0000007100000030=_init
0000007100000170=_fini
00000071000001E0=__nnDetailNintendoSdkRuntimeObjectFileRefer
00000071000001F0=nndetailRoGetRoDataStart
0000007100000200=nndetailRoGetRoDataEnd
0000007100000210=__nnDetailNintendoSdkRuntimeObjectFile
0000007100000220=__nnDetailNintendoSdkNsoFileRefer
0000007100000230=nnDetailNintendoSdkDeadStripChecker
0000007100000240=_ZN22AutoSwitchActivateAreaC2EPKc
00000071000002D0=_ZN22AutoSwitchActivateAreaC1EPKc
0000007100000360=_ZN22AutoSwitchActivateArea4initERKN2al13ActorInitInfoE
0000007100000400=_ZN4sead14SafeStringBaseIcED2Ev
0000007100000410=_ZN22AutoSwitchActivateArea7controlEv
0000007100000420=_ZN22AutoSwitchActivateArea14exePlayerCheckEv
0000007100000520=_ZN22AutoSwitchActivateArea7exeIdleEv
0000007100000530=_ZN22AutoSwitchActivateArea8calcAnimEv
0000007100000540=_ZNK2al9LiveActor14getNerveKeeperEv
0000007100000550=_ZN2al9LiveActor4initERKNS_13ActorInitInfoE
0000007100000560=_ZN2al9LiveActor26registerSwitchAreaDirectorEPNS_18SwitchAreaDirectorE
0000007100000570=_ZN2al9LiveActor8reappearEv
0000007100000580=_ZNK2al9LiveActor14isForcedHiddenEv
0000007100000590=_ZN2al9LiveActor12attackSensorEPNS_9HitSensorES2_
00000071000005A0=_ZNK2al9LiveActor14getOwnerSensorEv
00000071000005B0=_ZN2al9LiveActor10receiveMsgEPKNS_9SensorMsgEPNS_9HitSensorES5_
00000071000005C0=_ZN2al9LiveActor21receiveMsgScreenPointEPKNS_9SensorMsgEPNS_13ScreenPointerEPNS_17ScreenPointTargetE
00000071000005D0=_ZNK2al9LiveActor7getNameEv
00000071000005E0=_ZNK2al9LiveActor15getEffectKeeperEv
00000071000005F0=_ZNK2al9LiveActor14getAudioKeeperEv
0000007100000600=_ZNK2al9LiveActor20getStageSwitchKeeperEv
0000007100000610=_ZNK2al9LiveActor35isMovePartDisableStaticTouchEffectsEv
0000007100000620=_ZN2al9LiveActor7controlEv
0000007100000630=_ZN2al9LiveActor17calcAndSetBaseMtxEv
0000007100000640=_ZTv0_n24_NK2al9LiveActor7getNameEv
0000007100000660=_ZThn24_NK2al9LiveActor20getStageSwitchKeeperEv
0000007100000670=_ZN22AutoSwitchActivateAreaD1Ev
0000007100000680=_ZN22AutoSwitchActivateAreaD0Ev
00000071000006B0=_ZThn8_NK2al9LiveActor15getEffectKeeperEv
00000071000006C0=_ZThn16_NK2al9LiveActor14getAudioKeeperEv
00000071000006E0=_ZNK2al5Nerve12executeOnEndEPNS_11NerveKeeperE
00000071000006F0=nullsub_1
0000007100000700=_ZN4sead14SafeStringBaseIcED0Ev
0000007100000710=_ZNK4sead14SafeStringBaseIcE22assureTerminationImpl_Ev
0000007100000720=_ZN26AutoSwitchBlockWatcherAreaC2EPKc
00000071000007B0=_ZN26AutoSwitchBlockWatcherAreaC1EPKc
0000007100000840=_ZN26AutoSwitchBlockWatcherArea4initERKN2al13ActorInitInfoE
00000071000009A0=_ZN26AutoSwitchBlockWatcherArea7controlEv
00000071000009B0=_ZN26AutoSwitchBlockWatcherArea14exePlayerCheckEv
0000007100000AB0=_ZN26AutoSwitchBlockWatcherArea7exeIdleEv
0000007100000AC0=_ZN26AutoSwitchBlockWatcherArea8calcAnimEv
0000007100000AD0=_ZN26AutoSwitchBlockWatcherAreaD1Ev
0000007100000AE0=_ZN26AutoSwitchBlockWatcherAreaD0Ev
0000007100000B10=nullsub_2
0000007100000B30=_ZN18BlockHardWatchAreaC2EPKc
0000007100000BC0=_ZN18BlockHardWatchAreaC1EPKc
0000007100000C50=_ZN18BlockHardWatchArea4initERKN2al13ActorInitInfoE
0000007100000E10=_ZN18BlockHardWatchArea7controlEv
0000007100000E20=_ZN18BlockHardWatchArea14exePlayerCheckEv
0000007100000F50=_ZN18BlockHardWatchArea7exeIdleEv
0000007100000F60=_ZN18BlockHardWatchArea8calcAnimEv
0000007100000F70=_ZN18BlockHardWatchAreaD1Ev
0000007100000F80=_ZN18BlockHardWatchAreaD0Ev
0000007100000FC0=nullsub_3
0000007100000FD0=_ZN27CameraDirectionSwitchOnAreaC2EPKc
0000007100001020=_ZN27CameraDirectionSwitchOnAreaC1EPKc
0000007100001090=_ZN27CameraDirectionSwitchOnArea4initERKN2al12AreaInitInfoE
0000007100001150=_ZNK2al7AreaObj7getNameEv
0000007100001160=_ZNK2al7AreaObj20getStageSwitchKeeperEv
0000007100001170=_ZN36CameraPoserKinopioBrigadeObserveAreaC2EPKc
0000007100001210=_ZN36CameraPoserKinopioBrigadeObserveAreaC1EPKc
00000071000012C0=_ZN36CameraPoserKinopioBrigadeObserveArea4initERKN2al13ActorInitInfoE
00000071000013E0=_ZN36CameraPoserKinopioBrigadeObserveArea5checkEv
00000071000014F0=_ZN36CameraPoserKinopioBrigadeObserveArea7controlEv
0000007100001560=_ZN36CameraPoserKinopioBrigadeObserveAreaD1Ev
0000007100001570=_ZN36CameraPoserKinopioBrigadeObserveAreaD0Ev
00000071000015A0=_ZN19EnemyDeathWatchArea9initLinksERKN2al13ActorInitInfoEPNS0_9LiveActorE
0000007100001720=_ZN19EnemyDeathWatchAreaC1EPKcPN2al9LiveActorE
00000071000017C0=_ZN19EnemyDeathWatchArea4initERKN2al13PlacementInfoERKNS0_13ActorInitInfoE
0000007100001840=_ZN19EnemyDeathWatchAreaC2EPKcPN2al9LiveActorE
00000071000018D0=_ZN19EnemyDeathWatchArea7controlEv
00000071000019B0=_ZN19EnemyDeathWatchArea8calcAnimEv
00000071000019C0=_ZN19EnemyDeathWatchAreaD1Ev
00000071000019D0=_ZN19EnemyDeathWatchAreaD0Ev
0000007100001A00=_ZN16FrameOutCtrlAreaC2EPKc
0000007100001A50=_ZN16FrameOutCtrlAreaC1EPKc
0000007100001AB0=_ZN16FrameOutCtrlArea4initERKN2al12AreaInitInfoE
0000007100001B40=_ZN33PlayerCollisionFallOutReturnPointC2EPKc
0000007100001C10=_ZN33PlayerCollisionFallOutReturnPointC1EPKc
0000007100001CF0=_ZN33PlayerCollisionFallOutReturnPoint4initERKN2al13ActorInitInfoE
0000007100001E10=_ZN33PlayerCollisionFallOutReturnPoint18initAfterPlacementEv
0000007100001EF0=_ZN33PlayerCollisionFallOutReturnPoint7controlEv
0000007100001FA0=_ZNK33PlayerCollisionFallOutReturnPoint14tryIsInAreaObjERKN4sead7Vector3IfEE
0000007100001FB0=_ZN33PlayerCollisionFallOutReturnPointD1Ev
0000007100001FC0=_ZN33PlayerCollisionFallOutReturnPointD0Ev
0000007100001FF0=_ZN39PlayerCollisionFallOutReturnPointHolderC2Ev
0000007100002020=_ZN39PlayerCollisionFallOutReturnPointHolder19registerReturnPointEPK33PlayerCollisionFallOutReturnPoint
0000007100002050=_ZNK39PlayerCollisionFallOutReturnPointHolder17tryIsInAreaObjAnyEPN4sead7Vector3IfEERKS2_
0000007100002130=_ZNK39PlayerCollisionFallOutReturnPointHolder15getSceneObjNameEv
0000007100002140=_ZN2al9ISceneObj26initAfterPlacementSceneObjERKNS_13ActorInitInfoE
0000007100002150=_ZN2al9ISceneObj12initSceneObjEv
0000007100002160=_ZN25PlayerCollisionYPlaneAreaC2EPKc
00000071000021C0=_ZN25PlayerCollisionYPlaneAreaC1EPKc
0000007100002240=_ZN25PlayerCollisionYPlaneArea4initERKN2al12AreaInitInfoE
0000007100002250=_ZN25PlayerCollisionYPlaneArea19getResultCheckArrowEPKN2al13IUseCollisionE
0000007100002350=_ZN21ProjectAreaObjFactoryC2Ev
00000071000023A0=_ZNK2al7FactoryIPFPNS_7AreaObjEPKcEE11convertNameES4_
00000071000023B0=_ZN2al21createAreaObjFunctionINS_7AreaObjEEEPS1_PKc
00000071000023F0=_ZN2al21createAreaObjFunctionINS_10CameraAreaEEEPNS_7AreaObjEPKc
0000007100002430=_ZN2al21createAreaObjFunctionI27CameraDirectionSwitchOnAreaEEPNS_7AreaObjEPKc
0000007100002470=_ZN2al21createAreaObjFunctionINS_22CameraRailParallelAreaEEEPNS_7AreaObjEPKc
00000071000024B0=_ZN2al21createAreaObjFunctionINS_12EdgeDrawAreaEEEPNS_7AreaObjEPKc
00000071000024F0=_ZN2al21createAreaObjFunctionI16FrameOutCtrlAreaEEPNS_7AreaObjEPKc
0000007100002530=_ZN2al21createAreaObjFunctionINS_10SePlayAreaEEEPNS_7AreaObjEPKc
0000007100002570=_ZN2al21createAreaObjFunctionI13WorldClipAreaEEPNS_7AreaObjEPKc
00000071000025B0=_ZN2al21createAreaObjFunctionI25PlayerCollisionYPlaneAreaEEPNS_7AreaObjEPKc
00000071000025F0=_ZN2al21createAreaObjFunctionI24VRFocusPointReactionAreaEEPNS_7AreaObjEPKc
0000007100002630=_ZNK20TouchRotateWatchArea20TryForcePartRotationER26IUseTouchRotateHandleParts
0000007100002840=_ZN20TouchRotateWatchAreaC2EPKc
0000007100002890=_ZN20TouchRotateWatchAreaC1EPKc
00000071000028F0=_ZN20TouchRotateWatchArea4initERKN2al13PlacementInfoERKNS0_13ActorInitInfoE
0000007100002AA0=_ZNK20TouchRotateWatchArea12allPlayersInERN4sead8PtrArrayI26IUseTouchRotateHandlePartsEEPKN2al18CameraTargetHolderE
0000007100002BA0=_ZN24VRFocusPointReactionAreaC2EPKc
0000007100002BE0=_ZN24VRFocusPointReactionAreaC1EPKc
0000007100002C40=_ZN24VRFocusPointReactionArea4initERKN2al12AreaInitInfoE
0000007100002C50=_ZN24VRFocusPointReactionArea5setOnEv
0000007100002CA0=_ZN24VRFocusPointReactionArea6setOffEv
0000007100002CE0=_ZN13WorldClipAreaC2EPKc
0000007100002D20=_ZN13WorldClipAreaC1EPKc
0000007100002D80=_ZN13WorldClipArea4initERKN2al12AreaInitInfoE
0000007100002E70=_ZN18BgmBeatRateTriggerC2EPN2al9LiveActorEf
0000007100002E80=_ZN18BgmBeatRateTrigger6updateEv
0000007100002F20=_ZN22BgmBeatPeriodicTriggerC1EPN2al9LiveActorEi
0000007100002F40=_ZN22BgmBeatPeriodicTrigger6updateEv
0000007100002FF0=_ZN16MicInputSePlayerC2EPN2al13AudioDirectorE
0000007100003060=_ZN16MicInputSePlayer6updateEv
00000071000030A0=_ZN16MicInputSePlayer7exeWaitEv
0000007100003130=_ZN16MicInputSePlayer7exeBlowEv
00000071000031D0=_ZNK2al13NerveExecutor14getNerveKeeperEv
00000071000031E0=_ZN16MicInputSePlayerD0Ev
0000007100003210=_ZNK16MicInputSePlayer14getAudioKeeperEv
0000007100003220=_ZThn16_NK16MicInputSePlayer14getAudioKeeperEv
0000007100003370=_ZN15PcmTempoChangerC1Ev
0000007100003380=_ZN15PcmTempoChanger10initializeEfjjj
0000007100003430=_ZN15PcmTempoChanger16CopyPcmOnTempoUpER9PcmBufferIsER9PcmReaderIsEj
00000071000035D0=_ZN15PcmTempoChanger18CopyPcmOnTempoDownER9PcmBufferIsER9PcmReaderIsEj
00000071000037A0=_ZN15PcmTempoChanger11changeTempoER9PcmBufferIsER9PcmReaderIsEj
0000007100003A30=_ZN15PcmTempoChanger11changeTempoER9PcmBufferIsES2_
0000007100003A40=_ZN22PlayerBigBgmControllerC2EPN2al13AudioDirectorE
0000007100003A90=_ZN22PlayerBigBgmController6updateEv
0000007100003B60=_ZN22PlayerBigBgmController11notifyStartEv
0000007100003B70=_ZN22PlayerBigBgmController9notifyEndEv
0000007100003BE0=_ZN22PlayerBigBgmController9notifyGetEv
0000007100003C00=_ZNK22PlayerBigBgmController14getAudioKeeperEv
0000007100003C10=_ZN29PlayerInvincibleBgmControllerC2EPN2al13AudioDirectorE
0000007100003C60=_ZN29PlayerInvincibleBgmController6updateEv
0000007100003CC0=_ZN29PlayerInvincibleBgmController11notifyStartEv
0000007100003CD0=_ZN29PlayerInvincibleBgmController9notifyEndEv
0000007100003D00=_ZN29PlayerInvincibleBgmController9notifyGetEv
0000007100003D10=_ZNK29PlayerInvincibleBgmController14getAudioKeeperEv
0000007100003D20=_ZN22BossBirdStateBlowParamC2EibfbPKcS1_S1_
0000007100004000=_ZN22BossBirdStateBlowParamD2Ev
0000007100004010=_ZN24BossBirdStateAttackParamC2EibbPKcS1_S1_
00000071000042E0=_ZN24BossBirdStateAttackParamD2Ev
00000071000042F0=_ZN8BossBirdC2EPKc
00000071000043F0=_ZN8BossBirdC1EPKc
0000007100004500=_ZN8BossBird4initERKN2al13ActorInitInfoE
0000007100004A20=_ZN22BossBirdStateMoveParamC2EfbfPKcS1_S1_
0000007100004CF0=_ZN22BossBirdStateMoveParamC2ERKS_
0000007100005030=_ZN8BossBird7controlEv
0000007100005340=_ZNK8BossBird6isDemoEv
00000071000053A0=_ZNK8BossBird20isNerveEnableAimHeadEv
0000007100005420=_ZN8BossBird6appearEv
0000007100005460=_ZNK8BossBird19isNerveEnableDamageEv
0000007100005580=_ZN8BossBird12attackSensorEPN2al9HitSensorES2_
0000007100005830=_ZNK8BossBird11isMoveStartEv
0000007100005880=_ZNK8BossBird9isMoveEndEv
00000071000058D0=_ZN8BossBird10receiveMsgEPKN2al9SensorMsgEPNS0_9HitSensorES5_
0000007100005BC0=_ZN8BossBird9exeAppearEv
0000007100005C80=_ZN8BossBird7exeWaitEv
0000007100005D20=_ZN8BossBird9exeDamageEv
0000007100005F60=_ZN8BossBird26tryShiftThunderOrNextNerveEPKN2al5NerveE
0000007100006000=_ZN8BossBird19exeReleaseItemStartEv
00000071000060F0=_ZN8BossBird26rotatePuppetFaceToKinopicoEv
0000007100006240=_ZN8BossBird14exeReleaseItemEv
0000007100006380=_ZN8BossBird7exeDownEv
00000071000063D0=_ZN8BossBird15exeMoveApproachEv
0000007100006570=_ZN8BossBird9exeAttackEv
0000007100006640=_ZN8BossBird10exeThunderEv
0000007100006700=_ZN8BossBird15exeBlowApproachEv
0000007100006870=_ZN8BossBird8exeShoutEv
0000007100006940=_ZN8BossBird10exeEndDemoEv
00000071000069B0=_ZN8BossBirdD1Ev
00000071000069C0=_ZN8BossBirdD0Ev
00000071000069F0=_ZN4sead15FixedSafeStringILi64EED0Ev
0000007100006A00=_ZN4sead15FixedSafeStringILi64EEaSERKNS_14SafeStringBaseIcEE
0000007100006AF0=_ZN4sead19FixedSafeStringBaseIcLi64EED0Ev
0000007100006B00=_ZN4sead19FixedSafeStringBaseIcLi64EEaSERKNS_14SafeStringBaseIcEE
0000007100006BF0=_ZN4sead22BufferedSafeStringBaseIcED0Ev
0000007100006EB0=_ZN14BossBirdDoubleC2EPKcP21BossBirdDoubleWatcher
0000007100006FD0=_ZN14BossBirdDoubleC1EPKcP21BossBirdDoubleWatcher
00000071000070F0=_ZN14BossBirdDouble4initERKN2al13ActorInitInfoE
0000007100007720=_ZN28BossBirdDoubleStateMoveParamC2EfbfPKcS1_S1_
00000071000079F0=_ZN28BossBirdDoubleStateMoveParamC2ERKS_
0000007100007D30=_ZN14BossBirdDouble7controlEv
0000007100007FC0=_ZNK14BossBirdDouble20isNerveEnableAimHeadEv
0000007100008040=_ZN14BossBirdDouble6appearEv
0000007100008080=_ZNK14BossBirdDouble19isNerveEnableDamageEv
00000071000081A0=_ZN14BossBirdDouble12attackSensorEPN2al9HitSensorES2_
0000007100008420=_ZNK14BossBirdDouble11isMoveStartEv
0000007100008470=_ZNK14BossBirdDouble9isMoveEndEv
00000071000084C0=_ZN14BossBirdDouble10receiveMsgEPKN2al9SensorMsgEPNS0_9HitSensorES5_
0000007100008790=_ZN14BossBirdDouble9exeAppearEv
0000007100008870=_ZN14BossBirdDouble9isCopycatEv
0000007100008880=_ZN14BossBirdDouble7exeWaitEv
0000007100008940=_ZN14BossBirdDouble9exeDamageEv
0000007100008C00=_ZN14BossBirdDouble26tryShiftThunderOrNextNerveEPKN2al5NerveE
0000007100008CA0=_ZN14BossBirdDouble7exeDownEv
0000007100008CE0=_ZN14BossBirdDouble15exeMoveApproachEv
0000007100008EC0=_ZN14BossBirdDouble9exeAttackEv
0000007100008FD0=_ZN14BossBirdDouble10exeThunderEv
0000007100009090=_ZN14BossBirdDouble15exeBlowApproachEv
0000007100009210=_ZN14BossBirdDouble8exeShoutEv
0000007100009360=_ZN14BossBirdDouble10exeEndDemoEv
00000071000093D0=_ZN14BossBirdDouble19checkRadishShootPosEv
00000071000093E0=_ZN14BossBirdDouble17getRadishShootPosEv
0000007100009400=_ZNK14BossBirdDouble6isWaitEv
0000007100009450=_ZN14BossBirdDouble18setCopycatCopyMoveERN4sead7Vector3IfEEPS_
00000071000094B0=_ZN14BossBirdDouble11setApproachEv
00000071000094D0=_ZN14BossBirdDouble8setShoutEv
00000071000094E0=_ZN14BossBirdDouble12setDisappearEv
0000007100009520=_ZNK14BossBirdDouble10isShoutingEv
0000007100009530=_ZN14BossBirdDouble12setDownNerveEv
0000007100009570=_ZN14BossBirdDouble14setSecondPhaseEv
0000007100009580=_ZNK14BossBirdDouble16canDemoTriggeredEv
0000007100009590=_ZN14BossBirdDouble21watcherCanDemoTriggerEv
00000071000095A0=_ZN14BossBirdDouble19canMoveToCoordinateEv
00000071000095B0=_ZN14BossBirdDouble13getCorrdinateEv
00000071000095C0=_ZN14BossBirdDouble11isAttackingEv
00000071000095D0=_ZN14BossBirdDouble18isDamageSecondLastEv
00000071000095E0=_ZN14BossBirdDouble9isDamagedEv
00000071000095F0=_ZN14BossBirdDouble14setClearRadishEv
0000007100009600=_ZNK14BossBirdDouble6isDemoEv
0000007100009610=_ZN14BossBirdDouble14switchEndDemo2Ev
0000007100009620=_ZN14BossBirdDoubleD1Ev
0000007100009630=_ZN14BossBirdDoubleD0Ev
00000071000098D0=_ZN26BossBirdDoubleStateEndDemoC2EPN2al9LiveActorERKNS0_13ActorInitInfoEb
0000007100009A60=_ZN26BossBirdDoubleStateEndDemo6appearEv
0000007100009A80=_ZN26BossBirdDoubleStateEndDemo11exeEndDemo1Ev
0000007100009B80=_ZN26BossBirdDoubleStateEndDemo11exeEndDemo2Ev
0000007100009C00=_ZN26BossBirdDoubleStateEndDemo6exeEndEv
0000007100009C40=_ZN26BossBirdDoubleStateEndDemoD0Ev
0000007100009C70=_ZN2al14NerveStateBase4initEv
0000007100009C80=_ZN2al14NerveStateBase4killEv
0000007100009C90=_ZN2al14NerveStateBase7controlEv
0000007100009D70=_ZN23BossBirdDoubleStateMoveC1EPN2al9LiveActorES2_PK28BossBirdDoubleStateMoveParam
0000007100009DF0=_ZN23BossBirdDoubleStateMove6appearEv
0000007100009E80=_ZN23BossBirdDoubleStateMove12exeMoveStartEv
0000007100009F00=_ZN23BossBirdDoubleStateMove14exeWaitForMoveEv
0000007100009F10=_ZN23BossBirdDoubleStateMove22exeWaitForMoveStartEndEv
0000007100009FA0=_ZN23BossBirdDoubleStateMove7exeMoveEv
000000710000A1C0=_ZN23BossBirdDoubleStateMove8moveRailEb
000000710000A250=_ZN23BossBirdDoubleStateMove10exeMoveEndEv
000000710000A340=_ZN23BossBirdDoubleStateMove11reverseRailEv
000000710000A370=_ZNK23BossBirdDoubleStateMove11isMoveStartEv
000000710000A390=_ZNK23BossBirdDoubleStateMove6isMoveEv
000000710000A3B0=_ZNK23BossBirdDoubleStateMove9isMoveEndEv
000000710000A3D0=_ZNK23BossBirdDoubleStateMove10isWaitMoveEv
000000710000A3F0=_ZNK23BossBirdDoubleStateMove16getAnimNameStartEv
000000710000A420=_ZN23BossBirdDoubleStateMove12setMoveNerveEv
000000710000A430=_ZN23BossBirdDoubleStateMove19requestNewRailIndexEv
000000710000A4B0=_ZN23BossBirdDoubleStateMove11resyncRailsEv
000000710000A4C0=_ZN23BossBirdDoubleStateMoveD0Ev
000000710000A630=nullsub_4
000000710000A640=_ZN21BossBirdDoubleWatcherC2EPKc
000000710000A6C0=_ZN21BossBirdDoubleWatcherC1EPKc
000000710000A740=_ZN21BossBirdDoubleWatcher4initERKN2al13ActorInitInfoE
000000710000A860=_ZN21BossBirdDoubleWatcher8exeWatchEv
000000710000A870=_ZN21BossBirdDoubleWatcher12exeAllAppearEv
000000710000A880=_ZN21BossBirdDoubleWatcher12exeDisAppearEv
000000710000A890=_ZN21BossBirdDoubleWatcher19canEndDemoTriggeredEP14BossBirdDouble
000000710000A8A0=_ZN21BossBirdDoubleWatcher18setCopycatApproachEP14BossBirdDouble
000000710000A910=_ZN21BossBirdDoubleWatcher15setCopycatShoutEP14BossBirdDouble
000000710000A980=_ZN21BossBirdDoubleWatcher19setCopycatDisappearEP14BossBirdDouble
000000710000A9F0=_ZN21BossBirdDoubleWatcher21setCopycatSecondPhaseEP14BossBirdDouble
000000710000AA60=_ZN21BossBirdDoubleWatcher21setCopycatClearRadishEP14BossBirdDouble
000000710000AAD0=_ZN21BossBirdDoubleWatcher11killCopyCatEP14BossBirdDouble
000000710000AB40=_ZN21BossBirdDoubleWatcher13canStopOnRailEP14BossBirdDouble
000000710000AC00=_ZN21BossBirdDoubleWatcher9movingNowEP14BossBirdDouble
000000710000ACB0=_ZN21BossBirdDoubleWatcher16isRadishPosValidEP14BossBirdDouble
000000710000AD80=_ZN21BossBirdDoubleWatcher10isOnlyBirdEP14BossBirdDouble
000000710000AE10=_ZN21BossBirdDoubleWatcher9canAttackEP14BossBirdDouble
000000710000AEC0=_ZN21BossBirdDoubleWatcherD1Ev
000000710000AED0=_ZN21BossBirdDoubleWatcherD0Ev
000000710000AF00=nullsub_5
000000710000AF10=_ZN16BossBirdFunction9BlowParamC2EfRKN4sead7Vector3IfEEffffff
000000710000AF40=_ZN16BossBirdFunction28trySendMsgBossBirdBlowAttackEPKN2al9LiveActorEPNS0_9HitSensorES5_RKNS_9BlowParamE
000000710000B010=_ZN16BossBirdFunction37checkCollisionBetweenTargetTransLocalEPKN2al9LiveActorERKN4sead7Vector3IfEE
000000710000B170=_ZN16BossBirdFunction25sendMsgBossBirdBlowAttackEPKN2al9LiveActorEPNS0_9HitSensorES5_RKNS_9BlowParamE
000000710000B2E0=_ZN16BossBirdFunction22tryCreateBossBirdLinksEPPN2al9LiveActorES2_RKNS0_13ActorInitInfoEPKcib
000000710000B510=_ZN16BossBirdFunction13followPlayerYEPN2al9LiveActorEff
000000710000B570=_ZN16BossBirdFunction9faceToDirEPN2al9LiveActorERKN4sead7Vector3IfEEf
000000710000B600=_ZN16BossBirdFunction12faceToPlayerEPN2al9LiveActorEf
000000710000B6C0=_ZN16BossBirdFunction19startSubActorActionEPKN2al9LiveActorEPKcS5_
000000710000B700=_ZN16BossBirdFunction19startKinopicoActionEPKN2al9LiveActorEPKc
000000710000B740=_ZN16BossBirdFunction31tryStartKinopicoHeadLightActionEPKN2al9LiveActorEPKc
000000710000B790=_ZN16BossBirdFunction23isKinopicoActionPlayingEPKN2al9LiveActorEPKc
000000710000B7D0=_ZN16BossBirdFunction19isKinopicoActionEndEPKN2al9LiveActorE
000000710000B800=_ZN16BossBirdFunction14getKinopicoPosEPKN2al9LiveActorE
000000710000B820=_ZN16BossBirdFunction27getNextBossBirdWaitAnimNameEPi
000000710000B860=_ZN16BossBirdFunction27getNextKinopicoWaitAnimNameEPi
000000710000B8A0=_ZN16BossBirdFunction21createFeatherDynamicsEPN2al9LiveActorERN4sead8PtrArrayINS0_21JointSpringControllerEEEPKNS_13DynamicsParamE
000000710000BAA0=_ZN2al9StringTmpILi128EEC2EPKcz
000000710000BB70=_ZN16BossBirdFunction18createTailDynamicsEPN2al9LiveActorERN4sead8PtrArrayINS0_21JointSpringControllerEEEfff
000000710000BD40=_ZN16BossBirdFunction26getBossBirdFeatherJointNumEv
000000710000BD50=_ZN16BossBirdFunction23getBossBirdTailJointNumEv
000000710000BD60=_ZN16BossBirdFunction19createAimControllerEPN2al9LiveActorEPPNS0_12JointAimInfoES5_S5_
000000710000BF30=_ZN16BossBirdFunction33tryAcceptMsgBossBirdNotifyHitAreaEPKN2al9SensorMsgEPNS0_9HitSensorES5_f
000000710000BFC0=_ZN16BossBirdFunction17createItemArcNameEPN2al9StringTmpILi64EEE22GameDataHolderAccessorPKcb
000000710000C060=_ZN16BossBirdFunction14calcRailCenterEPN4sead7Vector3IfEEPKN2al9LiveActorE
000000710000C120=_ZN16BossBirdFunction30tryDeleteEmitterAndParticleAllEPN2al9LiveActorEPKc
000000710000C160=_ZN2al9StringTmpILi128EED0Ev
000000710000C170=_ZN4sead15FixedSafeStringILi128EEaSERKNS_14SafeStringBaseIcEE
000000710000C260=_ZN15BossBirdOpeningC2EPKc
000000710000C370=_ZN15BossBirdOpeningC1EPKc
000000710000C490=_ZN15BossBirdOpeningD2Ev
000000710000C5E0=_ZN15BossBirdOpeningD1Ev
000000710000C5F0=_ZN15BossBirdOpeningD0Ev
000000710000C620=_ZN15BossBirdOpening4initERKN2al13ActorInitInfoE
000000710000CB10=_ZN15BossBirdOpening7startUpEv
000000710000CB20=_ZN15BossBirdOpening14onDrawClippingEv
000000710000CB50=_ZN15BossBirdOpening15offDrawClippingEv
000000710000CB80=_ZN15BossBirdOpening12forceEndBlowEv
000000710000CBD0=_ZN15BossBirdOpening18setDemoEndPositionEv
000000710000CC70=_ZNK15BossBirdOpening19isNerveEnableDamageEv
000000710000CD30=_ZN15BossBirdOpening12attackSensorEPN2al9HitSensorES2_
000000710000CDF0=_ZN15BossBirdOpening10receiveMsgEPKN2al9SensorMsgEPNS0_9HitSensorES5_
000000710000CEC0=_ZN15BossBirdOpening7controlEv
000000710000D340=_ZNK15BossBirdOpening6isDemoEv
000000710000D3A0=_ZNK15BossBirdOpening19isNerveEnableAimEyeEv
000000710000D400=_ZNK15BossBirdOpening20isNerveEnableAimHeadEv
000000710000D490=_ZN15BossBirdOpening9startDemoEv
000000710000D4E0=_ZN15BossBirdOpening7endDemoEv
000000710000D5F0=_ZN15BossBirdOpening8exeDemo1Ev
000000710000D6C0=_ZN15BossBirdOpening8exeDemo2Ev
000000710000D7C0=_ZN15BossBirdOpening15checkSwitchRailEv
000000710000D840=_ZN15BossBirdOpening7exeWaitEv
000000710000D9D0=_ZN15BossBirdOpening7endWaitEv
000000710000D9F0=_ZN15BossBirdOpening19exeDamageShortStartEv
000000710000DA50=_ZN15BossBirdOpening14exeDamageShortEv
000000710000DAF0=_ZN15BossBirdOpening17exeDamageShortEndEv
000000710000DB50=_ZN15BossBirdOpening18exeSwitchRailStartEv
000000710000DBB0=_ZN15BossBirdOpening13exeSwitchRailEv
000000710000DD40=_ZN15BossBirdOpening16exeSwitchRailEndEv
000000710000DDF0=_ZN15BossBirdOpening7exeMoveEv
000000710000DF20=_ZN15BossBirdOpening7exeBlowEv
000000710000E0A0=_ZN15BossBirdOpening7endBlowEv
000000710000E0B0=_ZN15BossBirdOpening5exeUpEv
000000710000E130=_ZNK15BossBirdOpening11isMoveStartEv
000000710000E180=_ZNK15BossBirdOpening9isMoveEndEv
000000710000E1D0=_ZNK15BossBirdOpening7isDemo1Ev
000000710000E4E0=_ZNK2al10FunctorV0MIP15BossBirdOpeningMS1_FvvEEclEv
000000710000E500=_ZNK2al10FunctorV0MIP15BossBirdOpeningMS1_FvvEE5cloneEv
000000710000E680=_ZN18BossBirdRailKeeperC2EPKc
000000710000E730=_ZN18BossBirdRailKeeperC1EPKc
000000710000E7F0=_ZN18BossBirdRailKeeperC2EPKcPN2al9LiveActorE
000000710000E8A0=_ZN18BossBirdRailKeeperC1EPKcPN2al9LiveActorE
000000710000E950=_ZN18BossBirdRailKeeperD2Ev
000000710000E9E0=_ZN18BossBirdRailKeeperD1Ev
000000710000EA60=_ZN18BossBirdRailKeeperD0Ev
000000710000EAF0=_ZN18BossBirdRailKeeper4initERKN2al13ActorInitInfoE
000000710000EC20=_ZN18BossBirdRailKeeper7exeWaitEv
000000710000EC30=_ZNK18BossBirdRailKeeper14tryIsInAreaObjERKN4sead7Vector3IfEEPi
000000710000EC80=_ZN19BossBirdStateAttackC1EPN2al9LiveActorERKNS0_13ActorInitInfoEPK24BossBirdStateAttackParamb
000000710000EF70=_ZN19BossBirdStateAttack6appearEv
000000710000EF80=_ZN19BossBirdStateAttack14exeAttackStartEv
000000710000F060=_ZN19BossBirdStateAttack9exeAttackEv
000000710000F580=_ZN19BossBirdStateAttack11getShootPosEPKN2al9LiveActorEi
000000710000F6B0=_ZN19BossBirdStateAttack5shootERKN4sead7Vector3IfEE
000000710000F790=_ZN19BossBirdStateAttack12exeAttackEndEv
000000710000F870=_ZN19BossBirdStateAttack11clearRadishEib
000000710000F900=_ZN19BossBirdStateAttack20calcPlantedRadishNumEv
000000710000F980=_ZNK19BossBirdStateAttack13isAttackStartEv
000000710000F9A0=_ZNK19BossBirdStateAttack8isAttackEv
000000710000F9C0=_ZNK19BossBirdStateAttack11isAttackEndEv
000000710000F9E0=_ZN19BossBirdStateAttack13setDamageLastEv
000000710000FA40=_ZN19BossBirdStateAttack14setSecondPhaseEv
000000710000FA60=_ZN19BossBirdStateAttackD0Ev
000000710000FAC0=_ZN17BossBirdStateBlowC1EPN2al9LiveActorES2_PK22BossBirdStateBlowParam
000000710000FB60=_ZN17BossBirdStateBlow6appearEv
000000710000FB70=_ZN17BossBirdStateBlow12exeBlowStartEv
000000710000FCE0=_ZN17BossBirdStateBlow13updateBlowDirEPN4sead7Vector3IfEE
000000710000FDB0=_ZN17BossBirdStateBlow13faceToBlowDirERKN4sead7Vector3IfEE
000000710000FE30=_ZN17BossBirdStateBlow7exeBlowEv
000000710000FF50=_ZN17BossBirdStateBlow10exeBlowEndEv
0000007100010030=_ZN17BossBirdStateBlow10setBlowEndEv
0000007100010040=_ZNK17BossBirdStateBlow11isBlowStartEv
0000007100010060=_ZNK17BossBirdStateBlow6isBlowEv
0000007100010080=_ZN17BossBirdStateBlowD0Ev
00000071000100E0=_ZN27BossBirdStateDemoAppearLastC2EPN2al9LiveActorERKNS0_13ActorInitInfoEb
0000007100010510=_ZN27BossBirdStateDemoAppearLast6appearEv
0000007100010520=_ZN27BossBirdStateDemoAppearLast17exeDemoAppearLastEv
00000071000106C0=_ZN27BossBirdStateDemoAppearLast6exeEndEv
0000007100010710=_ZN27BossBirdStateDemoAppearLastD0Ev
00000071000107A0=_ZN2al9StringTmpILi64EED0Ev
00000071000107B0=_ZN20BossBirdStateEndDemoC2EPN2al9LiveActorERKNS0_13ActorInitInfoEbb
0000007100010D60=_ZN20BossBirdStateEndDemo6appearEv
0000007100010DA0=_ZN20BossBirdStateEndDemo11exeEndDemo1Ev
0000007100010FE0=_ZN20BossBirdStateEndDemo11exeEndDemo2Ev
0000007100011190=_ZN20BossBirdStateEndDemo6exeEndEv
0000007100011210=_ZN20BossBirdStateEndDemoD0Ev
00000071000112E0=_ZN17BossBirdStateMoveC1EPN2al9LiveActorES2_PK22BossBirdStateMoveParam
0000007100011350=_ZN17BossBirdStateMove6appearEv
00000071000113C0=_ZN17BossBirdStateMove12exeMoveStartEv
0000007100011440=_ZN17BossBirdStateMove7exeMoveEv
0000007100011650=_ZN17BossBirdStateMove8moveRailEb
00000071000116E0=_ZN17BossBirdStateMove10exeMoveEndEv
00000071000117D0=_ZN17BossBirdStateMove11reverseRailEv
0000007100011800=_ZNK17BossBirdStateMove11isMoveStartEv
0000007100011820=_ZNK17BossBirdStateMove6isMoveEv
0000007100011840=_ZNK17BossBirdStateMove9isMoveEndEv
0000007100011860=_ZNK17BossBirdStateMove16getAnimNameStartEv
0000007100011890=_ZN17BossBirdStateMoveD0Ev
0000007100011960=_ZN19BossBirdThunderboltC2EPKc
00000071000119D0=_ZN19BossBirdThunderboltC1EPKc
0000007100011A50=_ZN19BossBirdThunderbolt4initERKN2al13ActorInitInfoE
0000007100011AC0=_ZN19BossBirdThunderbolt12attackSensorEPN2al9HitSensorES2_
0000007100011BC0=_ZN19BossBirdThunderbolt10receiveMsgEPKN2al9SensorMsgEPNS0_9HitSensorES5_
0000007100011C40=_ZN19BossBirdThunderbolt9setAppearERKN4sead7Vector3IfEE
0000007100011C90=_ZN19BossBirdThunderbolt7exeSignEv
0000007100011CF0=_ZN19BossBirdThunderbolt9exeAppearEv
0000007100011D50=_ZN19BossBirdThunderbolt7exeWaitEv
0000007100011D90=_ZN19BossBirdThunderbolt12exeDisappearEv
0000007100011DF0=_ZN19BossBirdThunderbolt9disappearEv
0000007100011E40=_ZN19BossBirdThunderboltD1Ev
0000007100011E50=_ZN19BossBirdThunderboltD0Ev
0000007100011FE0=_ZN28BossBirdThunderboltGeneratorC2EPKc
0000007100012120=_ZN28BossBirdThunderboltGeneratorC1EPKc
0000007100012260=_ZN28BossBirdThunderboltGenerator4initERKN2al13ActorInitInfoE
00000071000123D0=_ZN28BossBirdThunderboltGenerator6appearEv
0000007100012420=_ZN28BossBirdThunderboltGenerator5shootEv
00000071000124F0=_ZN28BossBirdThunderboltGenerator16calcAliveBoltNumEv
0000007100012570=_ZN28BossBirdThunderboltGenerator22generateBoltIndexArrayEif
00000071000129E0=_ZN28BossBirdThunderboltGenerator7exeWaitEv
0000007100012AD0=_ZN28BossBirdThunderboltGenerator11exeWaitKeepEv
0000007100012B90=_ZN28BossBirdThunderboltGenerator6exeEndEv
0000007100012C00=_ZN28BossBirdThunderboltGenerator9disappearEv
0000007100012C60=_ZN28BossBirdThunderboltGenerator3endEv
0000007100012CB0=_ZN28BossBirdThunderboltGeneratorD1Ev
0000007100012CC0=_ZN28BossBirdThunderboltGeneratorD0Ev
0000007100012E40=_ZN8BossFireC2EPKc
0000007100012EF0=_ZN8BossFireC1EPKc
0000007100012FB0=_ZN8BossFireD2Ev
0000007100013100=_ZN8BossFireD1Ev
0000007100013110=_ZN8BossFireD0Ev
0000007100013140=_ZN8BossFire4initERKN2al13ActorInitInfoE
00000071000138D0=_ZN8BossFire9startRoarEv
0000007100013990=_ZN8BossFire18startPressDownSignEv
00000071000139E0=_ZN8BossFire7controlEv
0000007100013A80=_ZN8BossFire12attackSensorEPN2al9HitSensorES2_
0000007100013B20=_ZN8BossFire10receiveMsgEPKN2al9SensorMsgEPNS0_9HitSensorES5_
0000007100013CD0=_ZN8BossFire21receiveMsgScreenPointEPKN2al9SensorMsgEPNS0_13ScreenPointerEPNS0_17ScreenPointTargetE
0000007100013D80=_ZN8BossFire24tryCalcVerticalMovePointEPKN2al9LiveActorE
0000007100013DD0=_ZN8BossFire16exeStartDemoWaitEv
0000007100013ED0=_ZN8BossFire12exeStartDemoEv
00000071000140D0=_ZN8BossFire21calcPlayerChaseHeightEPKN2al9LiveActorE
00000071000141E0=_ZN8BossFire16exeWaitAfterDemoEv
0000007100014370=_ZN8BossFire12turnToTargetEPKN2al9LiveActorE
00000071000143A0=_ZN8BossFire7exeWaitEv
00000071000144B0=_ZN8BossFire16turnHeadToTargetEPN4sead7Vector3IfEEPKN2al9LiveActorE
00000071000145F0=_ZN8BossFire15exeMoveVerticalEv
00000071000146D0=_ZN8BossFire18exeMoveVerticalEndEv
0000007100014760=_ZN8BossFire13exeAttackSignEv
0000007100014990=_ZN8BossFire9exeAttackEv
0000007100014A50=_ZN8BossFire12exeAttackEndEv
0000007100014AD0=_ZN8BossFire7exeRoarEv
0000007100014B40=_ZN8BossFire16exePressDownSignEv
0000007100014C60=_ZN8BossFire12exePressDownEv
0000007100014CE0=_ZN8BossFire10exeEndDemoEv
0000007100014E50=_ZN8BossFire7exeDeadEv
0000007100015250=_ZNK2al10FunctorV0MIP8BossFireMS1_FvvEEclEv
0000007100015270=_ZNK2al10FunctorV0MIP8BossFireMS1_FvvEE5cloneEv
0000007100015360=_ZN26BossFireActionSyncMapStateC2EPN2al9LiveActorEP25IUseBossFireActionSyncMap
00000071000153C0=_ZN26BossFireActionSyncMapState7controlEv
00000071000153E0=_ZN26BossFireActionSyncMapState13startWaitMildEb
0000007100015490=_ZN26BossFireActionSyncMapState15startActionSyncEPKc
0000007100015540=_ZN26BossFireActionSyncMapState20startDemoBattleStartEv
0000007100015550=_ZN26BossFireActionSyncMapState21cancelDemoBattleStartEv
0000007100015560=_ZN26BossFireActionSyncMapState9startWaitEv
00000071000155B0=_ZN26BossFireActionSyncMapState11startAttackEv
00000071000155C0=_ZN26BossFireActionSyncMapState18startDemoBattleEndEv
00000071000155D0=_ZN26BossFireActionSyncMapState9isMapDeadEv
00000071000155E0=_ZNK26BossFireActionSyncMapState15calcPlaneHeightEv
00000071000155F0=_ZN26BossFireActionSyncMapState11exeWaitMildEv
0000007100015690=_ZN26BossFireActionSyncMapState18exeDemoBattleStartEv
0000007100015730=_ZN26BossFireActionSyncMapState7exeWaitEv
00000071000157D0=_ZN26BossFireActionSyncMapState9exeAttackEv
00000071000158D0=_ZN26BossFireActionSyncMapState16exeDemoBattleEndEv
0000007100015970=_ZN26BossFireActionSyncMapStateD0Ev
00000071000159A0=_ZN2al14NerveStateBase6appearEv
0000007100015C80=_ZN12BossFireDownC2EPKci
0000007100015D20=_ZN12BossFireDownC1EPKci
0000007100015DC0=_ZN12BossFireDown4initERKN2al13ActorInitInfoE
0000007100015ED0=_ZN12BossFireDown10receiveMsgEPKN2al9SensorMsgEPNS0_9HitSensorES5_
0000007100015F90=_ZN12BossFireDown21receiveMsgScreenPointEPKN2al9SensorMsgEPNS0_13ScreenPointerEPNS0_17ScreenPointTargetE
0000007100015FA0=_ZN12BossFireDown12startEndDemoEv
0000007100016010=_ZN12BossFireDown10endEndDemoEv
0000007100016030=_ZN12BossFireDown19exeWaitBeforeAppearEv
0000007100016040=_ZN12BossFireDown10exeEndDemoEv
0000007100016080=_ZN12BossFireDown7exeWaitEv
0000007100016100=_ZN12BossFireDown12exeLandFirstEv
0000007100016160=_ZN12BossFireDown13exeLandSecondEv
00000071000161C0=_ZN12BossFireDown11exeGoalPoseEv
0000007100016200=_ZN12BossFireDownD1Ev
0000007100016210=_ZN12BossFireDownD0Ev
0000007100016240=nullsub_6
0000007100016420=_ZN17BossFireFallPartsC2EPKc
0000007100016490=_ZN17BossFireFallPartsC1EPKc
0000007100016510=_ZN17BossFireFallParts4initERKN2al13ActorInitInfoE
0000007100016590=_ZN17BossFireFallParts9startFallEv
00000071000165E0=_ZN17BossFireFallParts12attackSensorEPN2al9HitSensorES2_
0000007100016670=_ZN17BossFireFallParts7exeWaitEv
0000007100016680=_ZN17BossFireFallParts11exeFallSignEv
00000071000166C0=_ZN17BossFireFallParts7exeFallEv
0000007100016710=_ZN17BossFireFallParts8exeBreakEv
0000007100016750=_ZN17BossFireFallPartsD1Ev
0000007100016760=_ZN17BossFireFallPartsD0Ev
0000007100016790=nullsub_7
0000007100016880=_ZNK2al10FunctorV0MIP17BossFireFallPartsMS1_FvvEEclEv
00000071000168A0=_ZNK2al10FunctorV0MIP17BossFireFallPartsMS1_FvvEE5cloneEv
00000071000168F0=_ZN16BossFireFireBallC2EPKci
0000007100016970=_ZN16BossFireFireBallC1EPKci
00000071000169F0=_ZN16BossFireFireBall4initERKN2al13ActorInitInfoE
0000007100016AA0=_ZN16BossFireFireBall12attackSensorEPN2al9HitSensorES2_
0000007100016B20=_ZN16BossFireFireBall10receiveMsgEPKN2al9SensorMsgEPNS0_9HitSensorES5_
0000007100016B90=_ZN16BossFireFireBall11startAttackERKN4sead7Vector3IfEES4_S4_
0000007100016C40=_ZN16BossFireFireBall9killForceEv
0000007100016C70=_ZN16BossFireFireBall7exeWaitEv
0000007100016C80=_ZN16BossFireFireBall9exeAttackEv
0000007100016CE0=_ZN16BossFireFireBall10exeExplodeEv
0000007100016D20=_ZN16BossFireFireBallD1Ev
0000007100016D30=_ZN16BossFireFireBallD0Ev
0000007100016D60=nullsub_8
0000007100016E10=_ZN18BossFireFlamePartsC2EPKc
0000007100016E90=_ZN18BossFireFlamePartsC1EPKc
0000007100016F10=_ZN18BossFireFlameParts4initERKN2al13ActorInitInfoE
0000007100016F70=_ZN18BossFireFlameParts12attackSensorEPN2al9HitSensorES2_
0000007100016FD0=_ZN13BossFireFlameC2EPKc
0000007100017050=_ZN13BossFireFlameC1EPKc
00000071000170D0=_ZN13BossFireFlame4initERKN2al13ActorInitInfoE
0000007100017250=_ZN13BossFireFlame7controlEv
0000007100017260=_ZN13BossFireFlame6appearEv
0000007100017290=_ZN13BossFireFlame4killEv
00000071000172F0=_ZN13BossFireFlame10updatePoseERKN4sead7Vector3IfEES4_
00000071000173A0=_ZN13BossFireFlame9exeAppearEv
0000007100017430=_ZN18BossFireFlamePartsD1Ev
0000007100017440=_ZN18BossFireFlamePartsD0Ev
0000007100017470=_ZN13BossFireFlameD1Ev
0000007100017480=_ZN13BossFireFlameD0Ev
0000007100017540=_ZN16BossFireFunction17setEyeTrackTargetEP24ActorJointLookControllerPKN2al9LiveActorES5_
0000007100017590=_ZN16BossFireFunction24calcBeardJointNumForInitEv
00000071000175A0=_ZN16BossFireFunction14initBeardJointEPN2al9LiveActorEPN4sead8PtrArrayINS0_21JointSpringControllerEEE
0000007100017690=_ZN25BossFireMagmaKeyMovePartsC2EPKci
0000007100017770=_ZN25BossFireMagmaKeyMovePartsC1EPKci
0000007100017840=_ZN25BossFireMagmaKeyMoveParts4initERKN2al13ActorInitInfoE
0000007100017A40=_ZN25BossFireMagmaKeyMoveParts5startEv
0000007100017AC0=_ZN25BossFireMagmaKeyMoveParts9startKillEv
0000007100017B40=_ZN25BossFireMagmaKeyMoveParts17makeActorAppearedEv
0000007100017BA0=_ZN25BossFireMagmaKeyMoveParts6appearEv
0000007100017BF0=_ZN25BossFireMagmaKeyMoveParts10receiveMsgEPKN2al9SensorMsgEPNS0_9HitSensorES5_
0000007100017C60=_ZN25BossFireMagmaKeyMoveParts7controlEv
0000007100017D40=_ZN25BossFireMagmaKeyMoveParts14startFromOtherEv
0000007100017D60=_ZN25BossFireMagmaKeyMoveParts17appearAndSetStartEv
0000007100017DF0=_ZN25BossFireMagmaKeyMoveParts9isMapDeadEv
0000007100017E30=_ZThn264_N25BossFireMagmaKeyMoveParts9isMapDeadEv
0000007100017E70=_ZNK25BossFireMagmaKeyMoveParts11isActionEndEv
0000007100017E80=_ZThn264_NK25BossFireMagmaKeyMoveParts11isActionEndEv
0000007100017E90=_ZNK25BossFireMagmaKeyMoveParts17getActionFrameMaxEPKc
0000007100017EA0=_ZThn264_NK25BossFireMagmaKeyMoveParts17getActionFrameMaxEPKc
0000007100017EB0=_ZNK25BossFireMagmaKeyMoveParts15calcPlaneHeightEv
0000007100017ED0=_ZThn264_NK25BossFireMagmaKeyMoveParts15calcPlaneHeightEv
0000007100017F00=_ZN25BossFireMagmaKeyMoveParts15startSyncActionEPKc
0000007100017F70=_ZThn264_N25BossFireMagmaKeyMoveParts15startSyncActionEPKc
0000007100017FE0=_ZN25BossFireMagmaKeyMoveParts21cancelDemoBattleStartEv
0000007100017FF0=_ZThn264_N25BossFireMagmaKeyMoveParts21cancelDemoBattleStartEv
0000007100018000=_ZN25BossFireMagmaKeyMoveParts10exeStandByEv
0000007100018010=_ZN25BossFireMagmaKeyMoveParts8exeDelayEv
0000007100018060=_ZN25BossFireMagmaKeyMoveParts7exeWaitEv
0000007100018120=_ZN25BossFireMagmaKeyMoveParts11exeMoveSignEv
0000007100018130=_ZN25BossFireMagmaKeyMoveParts7exeMoveEv
0000007100018230=_ZN25BossFireMagmaKeyMoveParts11exeStopSignEv
0000007100018240=_ZN25BossFireMagmaKeyMoveParts7exeStopEv
00000071000182D0=_ZN25BossFireMagmaKeyMoveParts7exeDeadEv
0000007100018310=_ZN25BossFireMagmaKeyMovePartsD1Ev
0000007100018320=_ZN25BossFireMagmaKeyMovePartsD0Ev
0000007100018350=_ZN25BossFireMagmaKeyMoveParts13setSyncActionEPKcff
0000007100018360=_ZThn264_N25BossFireMagmaKeyMoveParts13setSyncActionEPKcff
00000071000183D0=nullsub_9
00000071000184D0=_ZNK2al10FunctorV0MIP25BossFireMagmaKeyMovePartsMS1_FvvEEclEv
00000071000184F0=_ZNK2al10FunctorV0MIP25BossFireMagmaKeyMovePartsMS1_FvvEE5cloneEv
0000007100018540=_ZN17BossFireStateTurnC2EPN2al9LiveActorEPK22BossFireStateTurnParamP24ActorJointLookController
00000071000185B0=_ZN17BossFireStateTurn6appearEv
00000071000185C0=_ZN17BossFireStateTurn12turnToTargetEPKN2al9LiveActorE
0000007100018610=_ZN17BossFireStateTurn7exeWaitEv
0000007100018620=_ZN17BossFireStateTurn7exeTurnEv
0000007100018770=_ZN17BossFireStateTurnD0Ev
00000071000187A0=nullsub_10
00000071000187C0=_ZN19BossFireTopplePartsC2EPKc
00000071000188E0=_ZN19BossFireTopplePartsC1EPKc
0000007100018A10=_ZN19BossFireToppleParts4initERKN2al13ActorInitInfoE
0000007100018C90=_ZN19BossFireToppleParts10startBreakEv
0000007100018D00=_ZN19BossFireToppleParts17startBreakSignLv1Ev
0000007100018D20=_ZN19BossFireToppleParts17startBreakSignLv2Ev
0000007100018D40=_ZN19BossFireToppleParts12attackSensorEPN2al9HitSensorES2_
0000007100018DC0=_ZN19BossFireToppleParts10receiveMsgEPKN2al9SensorMsgEPNS0_9HitSensorES5_
00000071000190B0=_ZN19BossFireToppleParts18endTopplePartsBindEb
00000071000190F0=_ZN19BossFireToppleParts17appearAndSetStartEv
0000007100019120=_ZN19BossFireToppleParts12startEndBindEv
0000007100019160=_ZN19BossFireToppleParts7exeWaitEv
00000071000191F0=_ZN19BossFireToppleParts12exeBreakSignEv
0000007100019260=_ZN19BossFireToppleParts17exeSignBeforeBindEv
0000007100019270=_ZN19BossFireToppleParts16exeSignAfterBindEv
0000007100019490=_ZN19BossFireToppleParts7exeOpenEv
0000007100019710=_ZN19BossFireToppleParts10exeOpenEndEv
00000071000198C0=_ZN19BossFireToppleParts6exeEndEv
0000007100019910=_ZN19BossFireToppleParts10updatePoseEf
0000007100019980=_ZN19BossFireTopplePartsD1Ev
0000007100019990=_ZN19BossFireTopplePartsD0Ev
0000007100019AD0=_ZNK2al10FunctorV0MIP19BossFireTopplePartsMS1_FvvEEclEv
0000007100019AF0=_ZNK2al10FunctorV0MIP19BossFireTopplePartsMS1_FvvEE5cloneEv
0000007100019B40=_ZN4sead18Matrix34CalcCommonIfE7inverseERNS_9BaseMtx34IfEERKS3_
0000007100019C90=_ZN9BossMagmaC2EPKc
0000007100019D10=_ZN9BossMagmaC1EPKc
0000007100019D90=_ZN9BossMagma4initERKN2al13ActorInitInfoE
0000007100019F50=_ZN9BossMagma5startEv
0000007100019F80=_ZN9BossMagma9exeAppearEv
000000710001A130=_ZN9BossMagma7exeMoveEv
000000710001A250=_ZN9BossMagma9exeAttackEv
000000710001A2C0=_ZN9BossMagma6exeEndEv
000000710001A320=_ZN9BossMagmaD1Ev
000000710001A330=_ZN9BossMagmaD0Ev
000000710001A4B0=_ZNK2al10FunctorV0MIP9BossMagmaMS1_FvvEEclEv
000000710001A4D0=_ZNK2al10FunctorV0MIP9BossMagmaMS1_FvvEE5cloneEv
000000710001A520=_ZN17BossDemoStartInfoC2EPN2al12CameraTicketEPKcS4_ibbbS4_bRKN4sead7Vector3IfEEbS9_RKNS5_4QuatIfEEi
000000710001A5B0=_ZN18BossStateDemoStartC1EPN2al9LiveActorERKNS0_13ActorInitInfoEP17BossDemoStartInfob
000000710001A6E0=_ZN18BossStateDemoStart6appearEv
000000710001A740=_ZN18BossStateDemoStart14setReturnTransERKN4sead7Vector3IfEE
000000710001A760=_ZN18BossStateDemoStart21setReturnTransAndQuatERKN4sead7Vector3IfEERKNS0_4QuatIfEE
000000710001A780=_ZN18BossStateDemoStart12exeDemoStartEv
000000710001A7F0=_ZN18BossStateDemoStart7exeDemoEv
000000710001AA50=_ZN18BossStateDemoStart7endDemoEb
000000710001AB80=_ZNK18BossStateDemoStart13isDemoPlayingEv
000000710001ABA0=_ZN18BossStateDemoStart9exeCancelEv
000000710001ABD0=_ZN18BossStateDemoStartD0Ev
000000710001ACC0=_ZN20DemoBossBirdPositionC2EPKc
000000710001AD30=_ZN20DemoBossBirdPositionC1EPKc
000000710001ADB0=_ZN20DemoBossBirdPosition4initERKN2al13ActorInitInfoE
000000710001AE30=_ZN20DemoBossBirdPosition7exeWaitEv
000000710001AE40=_ZN20DemoBossBirdPositionD1Ev
000000710001AE50=_ZN20DemoBossBirdPositionD0Ev
000000710001AE80=nullsub_11
000000710001AE90=_ZN18DemoPositionTargetC2EPKcS1_S1_S1_
000000710001B190=_ZN18DemoPositionTargetC1EPKcS1_S1_S1_
000000710001B490=_ZN18DemoPositionTarget6appearEv
000000710001B500=_ZN18DemoPositionTarget4initERKN2al13ActorInitInfoE
000000710001B590=_ZN18DemoPositionTarget12attackSensorEPN2al9HitSensorES2_
000000710001B5A0=_ZN18DemoPositionTarget10receiveMsgEPKN2al9SensorMsgEPNS0_9HitSensorES5_
000000710001B5B0=_ZN18DemoPositionTarget7exeWaitEv
000000710001B5C0=_ZN18DemoPositionTarget8exeDemo1Ev
000000710001B660=_ZN18DemoPositionTarget8exeDemo2Ev
000000710001B6D0=_ZN18DemoPositionTarget6exeEndEv
000000710001B6E0=_ZNK18DemoPositionTarget5isEndEv
000000710001B6F0=_ZN18DemoPositionTargetD1Ev
000000710001B700=_ZN18DemoPositionTargetD0Ev
000000710001B740=nullsub_12
000000710001B750=nullsub_13
000000710001B7D0=_ZN13DummyBossBirdC2EPKc
000000710001B840=_ZN13DummyBossBirdC1EPKc
000000710001B8C0=_ZN13DummyBossBird4initERKN2al13ActorInitInfoE
000000710001B960=_ZN13DummyBossBird7exeWaitEv
000000710001B9C0=_ZN13DummyBossBird7exeMoveEv
000000710001BA70=_ZN13DummyBossBird7controlEv
000000710001BAB0=_ZN13DummyBossBirdD1Ev
000000710001BAC0=_ZN13DummyBossBirdD0Ev
000000710001BC00=_ZN21EffectObjBossBirdRainC2EPKcb
000000710001BC80=_ZN21EffectObjBossBirdRainC1EPKcb
000000710001BD10=_ZN21EffectObjBossBirdRain4initERKN2al13ActorInitInfoE
000000710001BDC0=_ZN21EffectObjBossBirdRain4killEv
000000710001BE00=_ZN21EffectObjBossBirdRain17makeActorAppearedEv
000000710001BE30=_ZN21EffectObjBossBirdRain4waitEv
000000710001BE90=_ZN21EffectObjBossBirdRain4blowEv
000000710001BEF0=_ZN21EffectObjBossBirdRain7exeWaitEv
000000710001BF30=_ZN21EffectObjBossBirdRain7exeBlowEv
000000710001BF70=_ZN21EffectObjBossBirdRainD1Ev
000000710001BF80=_ZN21EffectObjBossBirdRainD0Ev
000000710001C050=_ZN25EffectObjBossBirdRainAreaC2EPKc
000000710001C0D0=_ZN25EffectObjBossBirdRainAreaC1EPKc
000000710001C150=_ZN25EffectObjBossBirdRainArea4initERKN2al13ActorInitInfoE
000000710001C200=_ZN25EffectObjBossBirdRainAreaD1Ev
000000710001C210=_ZN25EffectObjBossBirdRainAreaD0Ev
000000710001C240=_ZN19GateKeeperStateDemoC2EPN2al9LiveActorERKNS0_13ActorInitInfoEPK24GateKeeperStateDemoParamPNS0_12CameraTicketE
000000710001C2A0=_ZN19GateKeeperStateDemo6appearEv
000000710001C2B0=_ZN19GateKeeperStateDemo4killEv
000000710001C2C0=_ZNK19GateKeeperStateDemo15isDemoFirstStepEv
000000710001C320=_ZN19GateKeeperStateDemo15exeInitOnGroundEv
000000710001C3C0=_ZN19GateKeeperStateDemo14exeDemoRequestEv
000000710001C400=_ZN19GateKeeperStateDemo7exeDemoEv
000000710001C520=_ZN24GateKeeperStateDemoParamC2EPKc
000000710001C540=_ZN19GateKeeperStateDemoD0Ev
000000710001C5D0=_ZN15CameraDebugMoveC2Ev
000000710001C630=_ZN15CameraDebugMove5StartEPN2al11CameraPoserE
000000710001C710=_ZN15CameraDebugMove3EndEPN2al11CameraPoserE
000000710001C720=_ZN15CameraDebugMove6updateEv
000000710001CB00=_ZNK2al11CameraPoser14getAudioKeeperEv
000000710001CB10=_ZN2al11CameraPoser4initEv
000000710001CB20=_ZN2al11CameraPoser5startEv
000000710001CB30=_ZN2al11CameraPoser3endEv
000000710001CB40=_ZN2al11CameraPoser4loadERKNS_9ByamlIterE
000000710001CB50=_ZNK2al11CameraPoser16makeLookAtCameraEPN4sead12LookAtCameraE
000000710001CC30=_ZNK2al11CameraPoser13isFirstPersonEv
000000710001CC40=_ZNK2al11CameraPoser14getNerveKeeperEv
000000710001CC50=_ZThn16_NK2al11CameraPoser14getNerveKeeperEv
000000710001CC60=_ZN13CameraInPointC2EPKN2al9LiveActorE
000000710001CC70=_ZN13CameraInPoint4initERKN2al13ActorInitInfoE
000000710001CD60=_ZN13CameraInPoint8isInAreaEv
000000710001D180=_ZN17CameraPoserFollowC2EPKc
000000710001D200=_ZN17CameraPoserFollow4loadERKN2al9ByamlIterE
000000710001D300=_ZN17CameraPoserFollow5startEv
000000710001D4B0=_ZN17CameraPoserFollow6updateEv
000000710001D6E0=_ZN25CameraPoserKinopioBrigadeC1EPKc
000000710001D940=_ZN25CameraPoserKinopioBrigade4initEv
000000710001D950=_ZN25CameraPoserKinopioBrigade5startEv
000000710001DC40=_ZN25CameraPoserKinopioBrigade11resetValuesEff
000000710001DD50=_ZN25CameraPoserKinopioBrigade9resetZoomEv
000000710001DE30=_ZN25CameraPoserKinopioBrigade6updateEv
000000710001E210=_ZNK25CameraPoserKinopioBrigade14isTargetMovingEv
000000710001E290=_ZN25CameraPoserKinopioBrigade12calcDrcAngleEv
000000710001E5B0=_ZN25CameraPoserKinopioBrigade17resetCameraStrictEPN2al9LiveActorE
000000710001E9B0=_ZN25CameraPoserKinopioBrigade11resetCameraEPN2al9LiveActorE
000000710001EC10=_ZN25CameraPoserKinopioBrigade13calcBaseAngleEv
000000710001F340=_ZN25CameraPoserKinopioBrigade10updateZoomEv
000000710001FB94=def_710001F70C
000000710001FBAC=def_710001F8F4
000000710001FBDC=def_710001F928
000000710001FD6C=def_710001FB50
000000710001FDF8=def_710001FC60
000000710001FE60=_ZN25CameraPoserKinopioBrigade17convergeBaseAngleEv
000000710001FF70=_ZN25CameraPoserKinopioBrigade8updateSEEv
0000007100020040=_ZN25CameraPoserKinopioBrigade12commitCameraEv
0000007100020470=_ZN25CameraPoserKinopioBrigade12followLookAtEfRKN4sead7Vector3IfEES4_RKNS_6V3boolE
0000007100020590=_ZN25CameraPoserKinopioBrigade12isMoveLimitXEv
0000007100020600=_ZN25CameraPoserKinopioBrigade12isMoveLimitYEv
0000007100020670=_ZN25CameraPoserKinopioBrigade12isMoveLimitZEv
00000071000206E0=_ZNK25CameraPoserKinopioBrigade20isRotateByStickValidEv
00000071000206F0=_ZN25CameraPoserKinopioBrigade12halfZoomModeEv
0000007100020710=_ZN25CameraPoserKinopioBrigade10onZoomModeEv
0000007100020810=_ZN25CameraPoserKinopioBrigade11offZoomModeEv
0000007100020890=_ZN25CameraPoserKinopioBrigade16onZoomModeTargetEPKN4sead7Vector3IfEERS3_ffbbb
0000007100020920=_ZN25CameraPoserKinopioBrigade17offZoomModeTargetEi
0000007100020960=_ZNK25CameraPoserKinopioBrigade14isZoomChangingEv
00000071000209E0=_ZNK25CameraPoserKinopioBrigade14isZoomFinishedEv
0000007100020A70=_ZNK25CameraPoserKinopioBrigade11isZoomValidEv
0000007100020AC0=_ZN25CameraPoserKinopioBrigade15lockGyroControlEv
0000007100020AE0=_ZN25CameraPoserKinopioBrigade17unlockGyroControlEv
0000007100020B00=_ZN25CameraPoserKinopioBrigade17getFovyByZoomModeENS_8ZoomModeE
0000007100020B38=def_7100020B28
0000007100020B60=_ZN25CameraPoserKinopioBrigade11largestFovyEv
0000007100020E30=_ZN25CameraPoserKinopioBrigade14worstAngleFovyEv
00000071000211D0=_ZN25CameraPoserKinopioBrigade13recoverLookAtEiiN4sead7Vector3IfEES2_
0000007100021310=_ZN25CameraPoserKinopioBrigade11recoverFovyEiiff
0000007100021390=_ZN25CameraPoserKinopioBrigade4loadERKN2al9ByamlIterE
00000071000217A0=_ZNK25CameraPoserKinopioBrigade16makeLookAtCameraEPN4sead12LookAtCameraE
0000007100021880=_ZN25CameraPoserKinopioBrigade26setControllerEventListenerEv
00000071000218A0=_ZN25CameraPoserKinopioBrigade23controllerEventCallbackEiPv
00000071000218E0=_ZN25CameraPoserKinopioBrigade13transferParamEPKS_
0000007100021A40=_ZN25CameraPoserKinopioBrigade13transferParamEPKN4sead12LookAtCameraE
0000007100021E80=_ZN25CameraPoserKinopioBrigade15invalidateResetEv
0000007100021ED0=_ZN25CameraPoserKinopioBrigade21toggleValidZoomSecondEv
0000007100021EF0=_ZN25CameraPoserKinopioBrigade18saveCameraZoomModeEv
0000007100021F00=_ZN25CameraPoserKinopioBrigade21restoreCameraZoomModeEv
0000007100021F10=_ZN25CameraPoserKinopioBrigade12validateZoomEv
0000007100021F20=_ZN25CameraPoserKinopioBrigade14invalidateZoomEv
0000007100021F30=_ZN25CameraPoserKinopioBrigade24validateRotateByCrossKeyEv
0000007100021F40=_ZN25CameraPoserKinopioBrigade26invalidateRotateByCrossKeyEv
0000007100021F50=_ZN25CameraPoserKinopioBrigade21validateRotateByStickEv
0000007100021F70=_ZN25CameraPoserKinopioBrigade23invalidateRotateByStickEb
0000007100021F90=_ZN25CameraPoserKinopioBrigade23updateRotateByWiiRemoteEv
0000007100021FA0=_ZN25CameraPoserKinopioBrigade17updateTouchRotateEv
0000007100022260=_ZNK25CameraPoserKinopioBrigade17getSceneObjHolderEv
0000007100022270=_ZN25CameraPoserKinopioBrigade17setIsAreaSwitchedEv
0000007100022280=_ZThn176_NK25CameraPoserKinopioBrigade17getSceneObjHolderEv
0000007100022290=_ZN26CameraPoserKinopioEntranceC2Ev
0000007100022320=_ZN26CameraPoserKinopioEntrance5startEv
00000071000224C0=_ZN26CameraPoserKinopioEntrance4loadERKN2al9ByamlIterE
0000007100022580=_ZN26CameraPoserKinopioEntrance6updateEv
0000007100022D70=_ZN4sead18Matrix33CalcCommonIfE6toQuatERNS_8BaseQuatIfEERKNS_9BaseMtx33IfEE
0000007100022FB0=_ZN26CameraPoserSubjectiveParamC2Ev
0000007100022FE0=_ZN21CameraPoserSubjectiveC2EPN2al14SceneObjHolderE
00000071000231C0=_ZN21CameraPoserSubjective23controllerEventCallbackEiPv
00000071000231E0=_ZN21CameraPoserSubjective4initEv
00000071000231F0=_ZN21CameraPoserSubjective5startEv
00000071000232D0=_ZN21CameraPoserSubjective16updateTargetPoseEPKN2al9LiveActorE
00000071000235C0=_ZN21CameraPoserSubjective19resetCameraPositionEv
0000007100023690=_ZN21CameraPoserSubjective6updateEv
0000007100024870=_ZNK21CameraPoserSubjective13isFirstPersonEv
0000007100024880=_ZNK21CameraPoserSubjective17getSceneObjHolderEv
0000007100024890=_ZThn176_NK21CameraPoserSubjective17getSceneObjHolderEv
00000071000248A0=_ZN17CameraPoserVRMenuC1EPKc
0000007100024910=_ZN17CameraPoserVRMenu4initEv
0000007100024920=_ZN17CameraPoserVRMenu5startEv
0000007100024940=_ZN17CameraPoserVRMenu4loadERKN2al9ByamlIterE
0000007100024A00=_ZN17CameraPoserVRMenu11updateInputEv
0000007100024B60=_ZN17CameraPoserVRMenu6updateEv
0000007100025000=_ZNK17CameraPoserVRMenu13isFirstPersonEv
0000007100025040=_ZN11CameraShakeC2EPKc
00000071000250C0=_ZN11CameraShakeC1EPKc
0000007100025150=_ZN11CameraShake4initERKN2al13ActorInitInfoE
0000007100025300=_ZN11CameraShake7nextEndEv
0000007100025310=_ZN11CameraShake7controlEv
0000007100025320=_ZN11CameraShake19exeBeginWatchInAreaEv
0000007100025380=_ZNK11CameraShake13isWatchInAreaEv
00000071000253D0=_ZN11CameraShake8exeDelayEv
0000007100025410=_ZN11CameraShake14exeWatchInAreaEv
0000007100025470=_ZN11CameraShake15exeShakeAndStopEv
0000007100025530=_ZN11CameraShake7exeWaitEv
0000007100025540=_ZN11CameraShakeD1Ev
0000007100025550=_ZN11CameraShakeD0Ev
0000007100025750=nullsub_14
0000007100025760=_ZNK2al10FunctorV0MIP11CameraShakeMS1_FvvEEclEv
0000007100025780=_ZNK2al10FunctorV0MIP11CameraShakeMS1_FvvEE5cloneEv
00000071000257D0=_ZN17CameraShakeRandomC2EPKc
0000007100025860=_ZN17CameraShakeRandomC1EPKc
00000071000258F0=_ZN17CameraShakeRandom4initERKN2al13ActorInitInfoE
0000007100025AC0=_ZN17CameraShakeRandom7nextEndEv
0000007100025AD0=_ZN17CameraShakeRandom7controlEv
0000007100025AE0=_ZN17CameraShakeRandom14exeWatchInAreaEv
0000007100025B40=_ZN17CameraShakeRandom15exeShakeAndStopEv
0000007100025C30=_ZN17CameraShakeRandom7exeWaitEv
0000007100025C40=_ZN17CameraShakeRandomD1Ev
0000007100025C50=_ZN17CameraShakeRandomD0Ev
0000007100025CF0=nullsub_15
0000007100025D00=_ZNK2al10FunctorV0MIP17CameraShakeRandomMS1_FvvEEclEv
0000007100025D20=_ZNK2al10FunctorV0MIP17CameraShakeRandomMS1_FvvEE5cloneEv
0000007100025D70=_ZN21CameraStateShakeParamC2EiiiPKcS1_
0000007100025D80=_ZN21CameraStateShakeParam10setDefaultEv
0000007100025DA0=_ZN16CameraStateShakeC2EPN2al9LiveActorEPKNS0_10IUseCameraEP21CameraStateShakeParam
0000007100025DF0=_ZN16CameraStateShake4initEv
0000007100025E00=_ZN16CameraStateShake6appearEv
0000007100025E10=_ZN16CameraStateShake4killEv
0000007100025E20=_ZN16CameraStateShake8exeShakeEv
0000007100025ED0=_ZN16CameraStateShake7exeStopEv
0000007100025F20=_ZN16CameraStateShake18setParamShakeFrameEi
0000007100025F30=_ZN16CameraStateShake17setParamStopFrameEi
0000007100025F40=_ZN16CameraStateShakeD0Ev
0000007100025FD0=_ZN27ProjectCameraInterpoleStateC2Ev
0000007100026020=_ZN27ProjectCameraInterpoleState8tryStartEPKN2al11CameraPoserE
0000007100026080=_ZN27ProjectCameraInterpoleState23exeActiveKinopioBrigadeEv
00000071000261C0=_ZN27ProjectCameraInterpoleStateD0Ev
0000007100026200=_ZN14DemoActionListC1ERKN2al13ActorInitInfoEPKc
0000007100026340=_ZN2al9StringTmpILi64EEC2EPKcz
0000007100026410=_ZNK14DemoActionList13getActionNameEi
0000007100026440=_ZNK14DemoActionList14getActionDelayEi
0000007100026470=_ZN14DemoActionList11startActionEPN2al9LiveActorEi
0000007100026530=_ZN15DemoActorSimpleC2EPKcS1_S1_S1_
0000007100026830=_ZN15DemoActorSimpleC1EPKcS1_S1_S1_
0000007100026B30=_ZN15DemoActorSimple6appearEv
0000007100026B60=_ZN15DemoActorSimple4initERKN2al13ActorInitInfoE
0000007100026BF0=_ZN15DemoActorSimple14initWithSuffixERKN2al13ActorInitInfoEPKc
0000007100026C80=_ZN15DemoActorSimple7exePlayEv
0000007100026D40=_ZN15DemoActorSimple8exePlay2Ev
0000007100026DB0=_ZN15DemoActorSimple6exeEndEv
0000007100026DC0=_ZN15DemoActorSimpleD1Ev
0000007100026DD0=_ZN15DemoActorSimpleD0Ev
0000007100026E10=nullsub_16
0000007100026E90=_ZN13DemoEffectObjC2EPKc
0000007100026F30=_ZN13DemoEffectObjC1EPKc
0000007100026FD0=_ZN13DemoEffectObj18initDemoSceneActorERKN2al13ActorInitInfoES3_PKN4sead8Matrix34IfEE
0000007100027040=_ZN13DemoEffectObj4initERKN2al13ActorInitInfoE
0000007100027180=_ZN13DemoEffectObj18initAfterPlacementEv
0000007100027190=_ZN13DemoEffectObj17makeActorAppearedEv
00000071000271F0=_ZN13DemoEffectObj7controlEv
0000007100027200=_ZN13DemoEffectObj6appearEv
0000007100027210=_ZN13DemoEffectObj4killEv
0000007100027240=_ZN13DemoEffectObjD1Ev
0000007100027250=_ZN13DemoEffectObjD0Ev
0000007100027280=_ZNK13DemoEffectObj10getBaseMtxEv
0000007100027290=_ZNK2al10FunctorV0MIP13DemoEffectObjMS1_FvvEEclEv
00000071000272B0=_ZNK2al10FunctorV0MIP13DemoEffectObjMS1_FvvEE5cloneEv
0000007100027300=_ZN10DemoManeckC2EPKc
0000007100027390=_ZN10DemoManeckC1EPKc
0000007100027430=_ZN10DemoManeck4initERKN2al13ActorInitInfoE
0000007100027500=_ZN10DemoManeck4killEv
0000007100027530=_ZN10DemoManeck7controlEv
00000071000275E0=_ZN10DemoManeck13calcOffsetPosERKN4sead7Vector3IfEES4_
0000007100027680=_ZN10DemoManeck15faceToDirectionERKN4sead7Vector3IfEE
0000007100027690=_ZN10DemoManeckD1Ev
00000071000276A0=_ZN10DemoManeckD0Ev
00000071000276D0=_ZN11DemoObjBaseC2EPKc
0000007100027750=_ZN11DemoObjBaseC1EPKc
00000071000277D0=_ZN11DemoObjBase4initERKN2al13ActorInitInfoE
00000071000278D0=_ZN11DemoObjBase9startDemoEv
00000071000278E0=_ZNK11DemoObjBase9isEndDemoEv
00000071000278F0=_ZN11DemoObjBase7exeWaitEv
0000007100027900=_ZN11DemoObjBase7exePlayEv
0000007100027970=_ZN11DemoObjBaseD1Ev
0000007100027980=_ZN11DemoObjBaseD0Ev
00000071000279B0=nullsub_17
0000007100027A30=_ZNK2al10FunctorV0MIP11DemoObjBaseMS1_FvvEEclEv
0000007100027A50=_ZNK2al10FunctorV0MIP11DemoObjBaseMS1_FvvEE5cloneEv
0000007100027AA0=_ZN20DemoPlayerControllerC2Ev
0000007100027AB0=_ZN20DemoPlayerController14setPlayerActorEP11PlayerActor
0000007100027AC0=_ZN20DemoPlayerController12tryStartDemoEv
0000007100027B20=_ZN20DemoPlayerController7endDemoEb
0000007100027B80=_ZNK20DemoPlayerController8getTransEv
0000007100027BA0=_ZNK20DemoPlayerController11getFrontVecEv
0000007100027BC0=_ZNK20DemoPlayerController8getUpVecEv
0000007100027BE0=_ZN20DemoPlayerController8setScaleEf
0000007100027C10=_ZN20DemoPlayerController8setTransERKN4sead7Vector3IfEE
0000007100027C60=_ZN20DemoPlayerController24setTransAndResetDynamicsERKN4sead7Vector3IfEE
0000007100027CB0=_ZN20DemoPlayerController13resetPositionERKN4sead7Vector3IfEE
0000007100027EA0=_ZN20DemoPlayerController13setFrontUpVecERKN4sead7Vector3IfEES4_
0000007100027EF0=_ZN20DemoPlayerController9setRotateERKN4sead7Vector3IfEE
0000007100028000=_ZN20DemoPlayerController7setQuatERKN4sead4QuatIfEE
00000071000280B0=_ZN20DemoPlayerController11setVelocityERKN4sead7Vector3IfEE
00000071000280F0=_ZN20DemoPlayerController11startActionEPKc
0000007100028270=_ZNK20DemoPlayerController11isActionEndEv
0000007100028290=_ZN20DemoPlayerController26stopSklAnimAndDeleteEffectEv
0000007100028300=_ZN20DemoPlayerController12deleteEffectEv
0000007100028350=_ZN20DemoPlayerController4hideEv
0000007100028390=_ZN20DemoPlayerController4showEv
0000007100028430=_ZN26DemoPlayerControllerHolderC2EPN2al12PlayerHolderE
00000071000284C0=_ZN26DemoPlayerControllerHolder16requestStartDemoEv
00000071000285C0=_ZN26DemoPlayerControllerHolder14requestEndDemoEb
0000007100028630=_ZNK26DemoPlayerControllerHolder11isStartDemoEv
0000007100028640=_ZN26DemoPlayerControllerHolder7endDemoEv
00000071000286A0=_ZNK26DemoPlayerControllerHolder16getDemoPlayerNumEv
00000071000286B0=_ZNK26DemoPlayerControllerHolder13getDemoPlayerEi
00000071000286C0=_ZNK26DemoPlayerControllerHolder24getDemoPlayerByCharacterEi
0000007100028760=_ZNK26DemoPlayerControllerHolder20getDemoPlayerByActorEPKN2al9LiveActorE
00000071000287B0=_ZN17DemoPlayerLocatorC2EPKc
0000007100028850=_ZN17DemoPlayerLocatorC1EPKc
00000071000288F0=_ZN17DemoPlayerLocator18initDemoSceneActorERKN2al13ActorInitInfoES3_PKN4sead8Matrix34IfEE
0000007100028A20=_ZN17DemoPlayerLocator4initERKN2al13ActorInitInfoE
0000007100028AC0=_ZN17DemoPlayerLocator9startDemoERKN4sead8Matrix34IfEEi
0000007100028B70=_ZN17DemoPlayerLocator11startActionEi
0000007100028C70=_ZNK17DemoPlayerLocator22getPlayerLocatorMtxPtrEi
0000007100028CD0=_ZN2al9StringTmpILi32EEC2EPKcz
0000007100028DA0=_ZN17DemoPlayerLocator7endDemoEv
0000007100028DB0=_ZN17DemoPlayerLocator7exeWaitEv
0000007100028DC0=_ZN17DemoPlayerLocatorD1Ev
0000007100028DD0=_ZN17DemoPlayerLocatorD0Ev
0000007100028E00=nullsub_18
0000007100028E10=_ZN2al9StringTmpILi32EED0Ev
0000007100028E20=_ZN4sead15FixedSafeStringILi32EEaSERKNS_14SafeStringBaseIcEE
0000007100028F10=_ZN23DemoPlayerModelDirectorC2Ev
0000007100029070=_ZN23DemoPlayerModelDirector22requestCreateAllPlayerEPKc
0000007100029120=_ZN23DemoPlayerModelDirector22requestCreateAllFigureEiPKc
0000007100029140=_ZN23DemoPlayerModelDirector24requestCreateFigureSuperEiPKc
0000007100029170=_ZN23DemoPlayerModelDirector7endInitERKN2al13ActorInitInfoE
00000071000292A0=_ZNK23DemoPlayerModelDirector18getDemoPlayerModelEi
00000071000292B0=_ZNK2al21SceneObjHolderAdapter17getSceneObjHolderEv
00000071000292C0=_ZN14DemoSceneActorC2EPKcP20DemoSceneActorHolder
0000007100029390=_ZN14DemoSceneActorC1EPKcP20DemoSceneActorHolder
0000007100029460=_ZN14DemoSceneActor18initDemoSceneActorERKN2al13ActorInitInfoES3_PKN4sead8Matrix34IfEE
00000071000294E0=_ZN14DemoSceneActor4initERKN2al13ActorInitInfoE
0000007100029790=_ZN14DemoSceneActor17showModelBySwitchEv
00000071000297A0=_ZN14DemoSceneActor17hideModelBySwitchEv
00000071000297B0=_ZN14DemoSceneActor7controlEv
0000007100029820=_ZN14DemoSceneActor9startDemoERKN4sead8Matrix34IfEE
00000071000298E0=_ZN14DemoSceneActor11startActionEi
0000007100029A60=_ZN14DemoSceneActor7endDemoEv
0000007100029A70=_ZN14DemoSceneActor8exeDelayEv
0000007100029AD0=_ZN14DemoSceneActor9exeActionEv
0000007100029AE0=_ZN14DemoSceneActorD1Ev
0000007100029AF0=_ZN14DemoSceneActorD0Ev
0000007100029B80=nullsub_19
0000007100029B90=_ZNK2al10FunctorV0MIP14DemoSceneActorMS1_FvvEEclEv
0000007100029BB0=_ZNK2al10FunctorV0MIP14DemoSceneActorMS1_FvvEE5cloneEv
0000007100029C00=_ZN22DemoSceneActorFunction20calcPlacementBaseMtxEPN4sead8Matrix34IfEERKN2al13ActorInitInfoES7_PKS2_
0000007100029CE0=_ZN22DemoSceneActorFunction12isHideActionEPKc
0000007100029D00=_ZN22DemoSceneActorFunction12isShowActionEPKc
0000007100029D20=_ZN20DemoSceneActorHolderC2Ei
0000007100029D60=_ZN20DemoSceneActorHolder22initPlacementDemoActorERKN2al13PlacementInfoERKNS0_13ActorInitInfoEP26PlayerRetargettingSelectorPKN4sead8Matrix34IfEEb
000000710002A190=_ZN20DemoSceneActorHolder6appearEv
000000710002A270=_ZN20DemoSceneActorHolder4killEv
000000710002A340=_ZN20DemoSceneActorHolder28setEndCameraInterpolateFrameEi
000000710002A350=_ZN20DemoSceneActorHolder19setCameraFovyDegreeEf
000000710002A360=_ZN20DemoSceneActorHolder30setGraphicsAreaFindByPlayerPosEv
000000710002A370=_ZN20DemoSceneActorHolder11startActionEi
000000710002A430=_ZNK20DemoSceneActorHolder17isActionEndCameraEi
000000710002A440=_ZNK20DemoSceneActorHolder13isExistCameraEv
000000710002A450=_ZN20DemoSceneActorHolder21tryFindDemoSceneActorEPKc
000000710002A4F0=_ZNK20DemoSceneActorHolder21getDemoSceneCameraNumEv
000000710002A510=_ZNK20DemoSceneActorHolder17getDemoSceneActorEi
000000710002A520=_ZN20DemoSceneActorPlayerC2EPKcP20DemoSceneActorHolderP26PlayerRetargettingSelector
000000710002A5E0=_ZN20DemoSceneActorPlayerC1EPKcP20DemoSceneActorHolderP26PlayerRetargettingSelector
000000710002A6B0=_ZN20DemoSceneActorPlayer18initDemoSceneActorERKN2al13ActorInitInfoES3_PKN4sead8Matrix34IfEE
000000710002A730=_ZN20DemoSceneActorPlayer4initERKN2al13ActorInitInfoE
000000710002A7F0=_ZN20DemoSceneActorPlayer18initAfterPlacementEv
000000710002A800=_ZN20DemoSceneActorPlayer9startDemoERKN4sead8Matrix34IfEE
000000710002A8D0=_ZN20DemoSceneActorPlayer11startActionEi
000000710002A910=_ZN20DemoSceneActorPlayer7endDemoEv
000000710002A950=_ZN20DemoSceneActorPlayer7exePlayEv
000000710002A960=_ZN20DemoSceneActorPlayer7exeWaitEv
000000710002A970=_ZN20DemoSceneActorPlayerD1Ev
000000710002A980=_ZN20DemoSceneActorPlayerD0Ev
000000710002A9B0=nullsub_20
000000710002A9D0=_ZN15DemoSceneCameraC1EPK14GameDataHolder
000000710002AA20=_ZN15DemoSceneCamera18initDemoSceneActorERKN2al13ActorInitInfoES3_PKN4sead8Matrix34IfEE
000000710002ABD0=_ZN2al9StringTmpILi256EEC2EPKcz
000000710002ACA0=_ZNK15DemoSceneCamera17getCameraDirectorEv
000000710002ACB0=_ZN15DemoSceneCamera11startActionEi
000000710002AD20=_ZN15DemoSceneCamera11startCameraEi
000000710002AD90=_ZN15DemoSceneCamera9startDemoERKN4sead8Matrix34IfEE
000000710002AE10=_ZN15DemoSceneCamera7endDemoEv
000000710002AE30=_ZN15DemoSceneCamera12endCameraAllEv
000000710002AE50=_ZN15DemoSceneCamera9endCameraEi
000000710002AE70=_ZNK15DemoSceneCamera15isEndAnimCameraEi
000000710002AEE0=_ZNK15DemoSceneCamera11getMaxFrameEv
000000710002AEF0=_ZNK15DemoSceneCamera15getCurrentFrameEv
000000710002AF00=_ZN15DemoSceneCamera19setInterpolateFrameEi
000000710002AF10=_ZN15DemoSceneCamera19setCameraFovyDegreeEf
000000710002AF20=_ZN2al9StringTmpILi256EED0Ev
000000710002AF30=_ZN4sead15FixedSafeStringILi256EEaSERKNS_14SafeStringBaseIcEE
000000710002B020=_ZN20DemoScenePlayerModelC2Ev
000000710002B0A0=_ZN20DemoScenePlayerModel9createAllERKN2al13ActorInitInfoEPKcP26PlayerRetargettingSelectorPNS0_11IUseHioNodeES5_
000000710002B200=_ZN20DemoScenePlayerModel12createSingleERKN2al13ActorInitInfoEPKciP26PlayerRetargettingSelectorPNS0_11IUseHioNodeES5_
000000710002B360=_ZN20DemoScenePlayerModel14createSingleRCERKN2al13ActorInitInfoEPKciP26PlayerRetargettingSelectorPNS0_11IUseHioNodeES5_
000000710002B4C0=_ZN20DemoScenePlayerModel4killEv
000000710002B500=_ZN20DemoScenePlayerModel6appearEv
000000710002B540=_ZN20DemoScenePlayerModel10initializeEv
000000710002B580=_ZN20DemoScenePlayerModel8getModelEv
000000710002B5B0=_ZN20DemoScenePlayerModel14getPlayerModelEv
000000710002B5D0=_ZN20DemoScenePlayerModel16getPlayerModelRCEv
000000710002B5F0=_ZN20DemoScenePlayerModel9startDemoERKN4sead8Matrix34IfEE
000000710002B660=_ZN20DemoScenePlayerModel11startActionEPKc
000000710002BB40=_ZN20DemoScenePlayerModel6updateEPN2al9LiveActorE
000000710002BD30=_ZN20DemoScenePlayerModel9setFigureEi
000000710002BDE0=_ZN20DemoScenePlayerModel17setSeMaterialCodeEPKc
000000710002BE10=_ZN20DemoScenePlayerModel19resetSeMaterialCodeEv
000000710002BE50=_ZN20DemoScenePlayerModel12setDemoActorEPKN2al9LiveActorE
000000710002BE60=_ZN20DemoScenePlayerModel16releaseDemoActorEv
000000710002BEC0=_ZN17DemoStartPositionC2EPKc
000000710002BF60=_ZN17DemoStartPositionC1EPKc
000000710002C000=_ZN17DemoStartPosition4initERKN2al13ActorInitInfoE
000000710002C070=_ZN17DemoStartPosition18initAfterPlacementEv
000000710002C090=_ZN17DemoStartPosition7controlEv
000000710002C0A0=_ZN17DemoStartPositionD1Ev
000000710002C0B0=_ZN17DemoStartPositionD0Ev
000000710002C0E0=_ZN2kp12tryStartDemoEP20DemoSceneActorHolder
000000710002C100=_ZN2kp10tryEndDemoEP20DemoSceneActorHolder
000000710002C120=_ZN2kp28setEndCameraInterpolateFrameEP20DemoSceneActorHolderi
000000710002C130=_ZN2kp24tryCreateDemoSceneHolderEPKcRKN2al13ActorInitInfoEP26PlayerRetargettingSelectorPKN4sead8Matrix34IfEEbi
000000710002C2A0=_ZN2kp21createDemoSceneHolderEPKcRKN2al13ActorInitInfoEP26PlayerRetargettingSelectorPKN4sead8Matrix34IfEEbi
000000710002C2B0=_ZN2kp23isDemoDirectorAvailableEPKN2al9LiveActorE
000000710002C2D0=_ZN2kp23isDemoDirectorAvailableEPKN2al5SceneE
000000710002C2F0=_ZN2kp22getEnableDemoSkipFrameEv
000000710002C300=_ZN2kp30getEnableCourseInDemoSkipFrameEv
000000710002C310=_ZN2kp17tryCancelBossDemoEPKN2al18IUseSceneObjHolderE
000000710002C370=_ZN2kp22setAlreadyShowBossDemoEPKN2al18IUseSceneObjHolderE
000000710002C3B0=_ZN2kp21tryCancelCourseInDemoEPKN2al18IUseSceneObjHolderEi
000000710002C480=_ZN2kp23tryCancelLastBeforeDemoEPKN2al18IUseSceneObjHolderEi
000000710002C520=_ZN2kp23tryCancelClearAfterDemoEPKN2al18IUseSceneObjHolderEi
000000710002C5E0=_ZN2kp19tryCancelEndingDemoEPKN2al18IUseSceneObjHolderEi
000000710002C720=_ZN2kp22requestStartDemoCameraEPN2al9LiveActorE
000000710002C780=_ZN2kp20requestEndDemoCameraEPKN2al9LiveActorE
000000710002C7A0=_ZN2kp22requestStartDemoPlayerEPKN2al9LiveActorE
000000710002C7C0=_ZN2kp20requestEndDemoPlayerEPKN2al9LiveActorEb
000000710002C7F0=_ZN2kp22requestStartDemoPlayerEPKN2al5SceneE
000000710002C810=_ZN2kp20requestEndDemoPlayerEPKN2al5SceneE
000000710002C830=_ZN2kp23requestStartDemoBindingEPKN2al9LiveActorE
000000710002C850=_ZN2kp21requestEndDemoBindingEPKN2al9LiveActorE
000000710002C870=_ZN2kp12isActiveDemoEPKN2al9LiveActorE
000000710002C890=_ZN2kp18isActiveDemoCameraEPKN2al9LiveActorE
000000710002C8B0=_ZN2kp18isActiveDemoPlayerEPKN2al9LiveActorE
000000710002C8D0=_ZN2kp19isActiveDemoBindingEPKN2al9LiveActorE
000000710002C8F0=_ZN2kp20isActiveCourseInDemoEPKN2al9LiveActorE
000000710002C910=_ZN2kp16isActiveGoalDemoEPKN2al9LiveActorE
000000710002C930=_ZN2kp12addDemoActorEPN2al9LiveActorE
000000710002C960=_ZN2kp16getDemoPlayerNumEPKN2al9LiveActorE
000000710002C980=_ZN2kp13getDemoPlayerEPKN2al9LiveActorEi
000000710002C9B0=_ZN2kp24getDemoPlayerByCharacterEPKN2al9LiveActorEi
000000710002C9E0=_ZN2kp20getDemoPlayerByActorEPKN2al9LiveActorE
000000710002CA10=_ZN2kp16getDemoPlayerNumEPKN2al5SceneE
000000710002CA30=_ZN2kp13getDemoPlayerEPKN2al5SceneEi
000000710002CA60=_ZN2kp24getDemoPlayerByCharacterEPKN2al5SceneEi
000000710002CA90=_ZN2kp20getDemoPlayerByActorEPKN2al5SceneEPKNS0_9LiveActorE
000000710002CAC0=_ZN2kp17hideDemoPlayerAllEPKN2al9LiveActorE
000000710002CB20=_ZN2kp17showDemoPlayerAllEPKN2al9LiveActorE
000000710002CB80=_ZN2kp17hideDemoPlayerAllEPKN2al5SceneE
000000710002CBE0=_ZN2kp17showDemoPlayerAllEPKN2al5SceneE
000000710002CC40=_ZN2kp39stopSklAnimAndDeleteEffectDemoPlayerAllEPKN2al9LiveActorE
000000710002CCA0=_ZN2kp39stopSklAnimAndDeleteEffectDemoPlayerAllEPKN2al5SceneE
000000710002CD00=_ZN2kp24startActionDemoPlayerAllEPKN2al9LiveActorEPKc
000000710002CD70=_ZN2kp22requestCreateAllPlayerEPKN2al9LiveActorEPKc
000000710002CDA0=_ZN2kp22requestCreateAllFigureEPKN2al9LiveActorEiPKc
000000710002CDE0=_ZN2kp24requestCreateFigureSuperEPKN2al9LiveActorEiPKc
000000710002CE20=_ZN2kp18getDemoPlayerModelEPKN2al9LiveActorEi
000000710002CE70=_ZN2kp22releaseDemoPlayerModelEP20DemoScenePlayerModel
000000710002CEA0=_ZN2kp20replaceDemoPlayerAllEPKN2al9LiveActorERKN4sead7Vector3IfEERKNS4_4QuatIfEEf
000000710002D070=_ZN19ProjectDemoDirector17getDemoNameCameraEv
000000710002D080=_ZN19ProjectDemoDirector17getDemoNamePlayerEv
000000710002D090=_ZN19ProjectDemoDirector18getDemoNameBindingEv
000000710002D0A0=_ZN19ProjectDemoDirectorC1EPN2al12PlayerHolderE
000000710002D120=_ZN19ProjectDemoDirector7endInitERKN2al13ActorInitInfoE
000000710002D130=_ZN19ProjectDemoDirector22requestStartDemoCameraEv
000000710002D140=_ZN19ProjectDemoDirector20requestEndDemoCameraEv
000000710002D150=_ZN19ProjectDemoDirector22requestStartDemoPlayerEv
000000710002D160=_ZN19ProjectDemoDirector20requestEndDemoPlayerEb
000000710002D170=_ZN19ProjectDemoDirector23requestStartDemoBindingEv
000000710002D180=_ZN19ProjectDemoDirector21requestEndDemoBindingEv
000000710002D190=_ZNK19ProjectDemoDirector18isActiveDemoCameraEv
000000710002D1C0=_ZNK19ProjectDemoDirector18isActiveDemoPlayerEv
000000710002D1F0=_ZNK19ProjectDemoDirector19isActiveDemoBindingEv
000000710002D220=_ZNK19ProjectDemoDirector18getDemoPlayerModelEi
000000710002D230=_ZN19ProjectDemoDirector9startDemoEPKc
000000710002D290=_ZN19ProjectDemoDirector7endDemoEPKcb
000000710002D2E0=_ZN27StageEndEventSeasonHalfDemoC2EPKc
000000710002D3A0=_ZN27StageEndEventSeasonHalfDemoC1EPKc
000000710002D420=_ZN27StageEndEventSeasonHalfDemo4initERKN2al13ActorInitInfoE
000000710002D540=_ZN27StageEndEventSeasonHalfDemo9startDemoEv
000000710002D580=_ZN27StageEndEventSeasonHalfDemo7endDemoEv
000000710002D590=_ZNK27StageEndEventSeasonHalfDemo9isEndDemoEv
000000710002D5A0=_ZNK27StageEndEventSeasonHalfDemo14isStartEndDemoEv
000000710002D5E0=_ZN27StageEndEventSeasonHalfDemo12exeFadeCloseEv
000000710002D640=_ZN27StageEndEventSeasonHalfDemo7exeFadeEv
000000710002D6C0=_ZN27StageEndEventSeasonHalfDemo7exePlayEv
000000710002D710=_ZN27StageEndEventSeasonHalfDemo6exeEndEv
000000710002D720=_ZN14StageEventBaseD1Ev
000000710002D730=_ZN14StageEventBaseD0Ev
000000710002D740=_ZNK14StageEventBase21isEnableOpenStartWipeEv
000000710002D750=_ZNK14StageEventBase16isEnableMovementEv
000000710002D760=_ZNK14StageEventBase14isStartEndDemoEv
000000710002D770=_ZNK14StageEventBase19isEnableWipeOpen2ndEv
000000710002D780=_ZN27StageEndEventSeasonHalfDemoD1Ev
000000710002D790=_ZN27StageEndEventSeasonHalfDemoD0Ev
000000710002D7C0=_ZNK27StageEndEventSeasonHalfDemo12getEventTypeEv
000000710002D7D0=_ZNK27StageEndEventSeasonHalfDemo16isEnableMovementEv
000000710002D920=_ZN26StageStartBindDemoBossBirdC2EPKc
000000710002DA10=_ZN26StageStartBindDemoBossBirdC1EPKc
000000710002DAC0=_ZN26StageStartBindDemoBossBird4initERKN2al13ActorInitInfoE
000000710002DD70=_ZN26StageStartBindDemoBossBird10receiveMsgEPKN2al9SensorMsgEPNS0_9HitSensorES5_
000000710002DE60=_ZN26StageStartBindDemoBossBird7controlEv
000000710002DEC0=_ZN26StageStartBindDemoBossBird11exeBindWaitEv
000000710002DF80=_ZN26StageStartBindDemoBossBird18exeCameraBossBird1Ev
000000710002E0C0=_ZN26StageStartBindDemoBossBird18exeCameraBossBird2Ev
000000710002E110=_ZN26StageStartBindDemoBossBird7endDemoEv
000000710002E260=_ZNK26StageStartBindDemoBossBird9isEndDemoEv
000000710002E270=_ZN26StageStartBindDemoBossBird10exeDemoEndEv
000000710002E2B0=_ZNK26StageStartBindDemoBossBird19isEnableWipeOpen2ndEv
000000710002E330=_ZN26StageStartBindDemoBossBirdD1Ev
000000710002E340=_ZN26StageStartBindDemoBossBirdD0Ev
000000710002E370=_ZNK26StageStartBindDemoBossBird12getEventTypeEv
000000710002E380=_ZN26StageStartBindDemoBossBird9startDemoEv
000000710002E450=_ZN32StageStartBindDemoKinopioBrigadeC2EPKc
000000710002E580=_ZN32StageStartBindDemoKinopioBrigadeC1EPKc
000000710002E670=_ZN32StageStartBindDemoKinopioBrigade4initERKN2al13ActorInitInfoE
000000710002E9C0=_ZN32StageStartBindDemoKinopioBrigade10receiveMsgEPKN2al9SensorMsgEPNS0_9HitSensorES5_
000000710002EB30=_ZN32StageStartBindDemoKinopioBrigade7controlEv
000000710002EBF0=_ZN32StageStartBindDemoKinopioBrigade7endDemoEv
000000710002EDA0=_ZNK32StageStartBindDemoKinopioBrigade9isEndDemoEv
000000710002EEA0=_ZN32StageStartBindDemoKinopioBrigade11exeBindWaitEv
000000710002EF80=_ZN32StageStartBindDemoKinopioBrigade9exeCameraEv
000000710002F050=_ZN32StageStartBindDemoKinopioBrigade14exeDokanAppearEv
000000710002F140=_ZN32StageStartBindDemoKinopioBrigade16exeKinopioAppearEv
000000710002F2E0=_ZN32StageStartBindDemoKinopioBrigade7exeWalkEv
000000710002F6D0=_ZN32StageStartBindDemoKinopioBrigade17exeDokanDisappearEv
000000710002F750=_ZN32StageStartBindDemoKinopioBrigade10exeMessageEv
000000710002F7D0=_ZN32StageStartBindDemoKinopioBrigade10exeBindEndEv
000000710002F830=_ZN32StageStartBindDemoKinopioBrigade8exeGuideEv
000000710002F880=_ZN32StageStartBindDemoKinopioBrigadeD1Ev
000000710002F890=_ZN32StageStartBindDemoKinopioBrigadeD0Ev
000000710002F8C0=_ZNK32StageStartBindDemoKinopioBrigade12getEventTypeEv
000000710002F8D0=_ZN32StageStartBindDemoKinopioBrigade9startDemoEv
000000710002FAE0=_ZN4sead15FixedSafeStringILi128EED0Ev
000000710002FAF0=_ZN22StageStartBindDemoRoveC2EPKc
000000710002FBB0=_ZN22StageStartBindDemoRoveC1EPKc
000000710002FC30=_ZN22StageStartBindDemoRove4initERKN2al13ActorInitInfoE
000000710002FDB0=_ZN22StageStartBindDemoRove18initAfterPlacementEv
000000710002FDC0=_ZN22StageStartBindDemoRove10receiveMsgEPKN2al9SensorMsgEPNS0_9HitSensorES5_
000000710002FEB0=_ZN22StageStartBindDemoRove7endDemoEv
000000710002FF10=_ZNK22StageStartBindDemoRove9isEndDemoEv
000000710002FF20=_ZN22StageStartBindDemoRove11exeBindWaitEv
000000710002FF70=_ZN22StageStartBindDemoRove7exeRoveEv
0000007100030050=_ZN22StageStartBindDemoRove10exeDemoEndEv
0000007100030090=_ZN22StageStartBindDemoRoveD1Ev
00000071000300A0=_ZN22StageStartBindDemoRoveD0Ev
00000071000300D0=_ZNK22StageStartBindDemoRove12getEventTypeEv
00000071000300E0=_ZN22StageStartBindDemoRove9startDemoEv
0000007100030190=_ZN24StageStartBindDemoZoomInC2EPKc
00000071000302D0=_ZN24StageStartBindDemoZoomInC1EPKc
00000071000303D0=_ZN24StageStartBindDemoZoomIn4initERKN2al13ActorInitInfoE
0000007100030700=_ZN24StageStartBindDemoZoomIn18initAfterPlacementEv
0000007100030720=_ZN24StageStartBindDemoZoomIn10receiveMsgEPKN2al9SensorMsgEPNS0_9HitSensorES5_
0000007100030CC0=_ZN24StageStartBindDemoZoomIn7controlEv
0000007100030D60=_ZNK24StageStartBindDemoZoomIn9isEndDemoEv
0000007100030D70=_ZNK24StageStartBindDemoZoomIn19isEnableWipeOpen2ndEv
0000007100030DC0=_ZN24StageStartBindDemoZoomIn11exeBindWaitEv
0000007100030E30=_ZN24StageStartBindDemoZoomIn15exePlayerMotionEv
0000007100030F50=_ZN24StageStartBindDemoZoomIn19exeCheckpointMotionEv
0000007100031010=_ZN24StageStartBindDemoZoomIn21exeCheckpointMotionUpEv
0000007100031080=_ZN24StageStartBindDemoZoomIn10exeBindEndEv
00000071000312C0=_ZN24StageStartBindDemoZoomIn7bindEndEv
0000007100031310=_ZN24StageStartBindDemoZoomIn10exeDemoEndEv
0000007100031350=_ZN24StageStartBindDemoZoomInD1Ev
0000007100031360=_ZN24StageStartBindDemoZoomInD0Ev
0000007100031390=_ZNK24StageStartBindDemoZoomIn12getEventTypeEv
00000071000313A0=_ZN24StageStartBindDemoZoomIn9startDemoEv
00000071000313B0=_ZN24StageStartBindDemoZoomIn7endDemoEv
0000007100031560=_ZN21StageStartEventCameraC2EPKc
0000007100031620=_ZN21StageStartEventCameraC1EPKc
00000071000316A0=_ZN21StageStartEventCamera4initERKN2al13ActorInitInfoE
00000071000317F0=_ZN21StageStartEventCamera9startDemoEv
0000007100031840=_ZN21StageStartEventCamera7endDemoEv
00000071000318D0=_ZNK21StageStartEventCamera9isEndDemoEv
00000071000318E0=_ZN21StageStartEventCamera7exePlayEv
0000007100031990=_ZN21StageStartEventCamera6exeEndEv
00000071000319A0=_ZN21StageStartEventCameraD1Ev
00000071000319B0=_ZN21StageStartEventCameraD0Ev
00000071000319E0=_ZNK21StageStartEventCamera12getEventTypeEv
00000071000319F0=_ZNK21StageStartEventCamera16isEnableMovementEv
0000007100031A20=_ZNK2al10FunctorV0MIP21StageStartEventCameraMS1_FvvEEclEv
0000007100031A40=_ZNK2al10FunctorV0MIP21StageStartEventCameraMS1_FvvEE5cloneEv
0000007100031A90=_ZN19StageStartEventDemoC2EPKc
0000007100031B50=_ZN19StageStartEventDemoC1EPKc
0000007100031BD0=_ZN19StageStartEventDemo4initERKN2al13ActorInitInfoE
0000007100031C90=_ZN19StageStartEventDemo4killEv
0000007100031CC0=_ZN19StageStartEventDemoD1Ev
0000007100031CD0=_ZN19StageStartEventDemoD0Ev
0000007100031D00=_ZNK19StageStartEventDemo12getEventTypeEv
0000007100031D10=_ZN19StageStartEventDemo9startDemoEv
0000007100031D20=_ZN19StageStartEventDemo7endDemoEv
0000007100031D30=_ZNK19StageStartEventDemo9isEndDemoEv
0000007100031D40=_ZN20StageStartEventSoundC2EPKc
0000007100031E00=_ZN20StageStartEventSoundC1EPKc
0000007100031E80=_ZN20StageStartEventSound4initERKN2al13ActorInitInfoE
0000007100031FA0=_ZN20StageStartEventSound9startDemoEv
0000007100031FE0=_ZN20StageStartEventSound7endDemoEv
0000007100031FF0=_ZNK20StageStartEventSound9isEndDemoEv
0000007100032000=_ZNK20StageStartEventSound21isEnableOpenStartWipeEv
0000007100032010=_ZN20StageStartEventSound7exePlayEv
00000071000320A0=_ZN20StageStartEventSound6exeEndEv
00000071000320F0=_ZN20StageStartEventSoundD1Ev
0000007100032100=_ZN20StageStartEventSoundD0Ev
0000007100032130=_ZNK20StageStartEventSound12getEventTypeEv
0000007100032230=_ZN29ActorJointLookControllerParamC2Ev
0000007100032250=_ZN29ActorJointLookControllerParamC2EfRKN4sead7Vector2IfEEbPKNS0_8Matrix34IfEES8_
0000007100032270=_ZN24ActorJointLookControllerC1EPKN2al9LiveActorEi
0000007100032390=_ZN24ActorJointLookControllerD1Ev
00000071000323D0=_ZN24ActorJointLookController11appendJointEPKcRKN4sead7Vector3IfEEPK29ActorJointLookControllerParam
0000007100032440=_ZN24ActorJointLookController6updateEv
0000007100032760=_ZN24ActorJointLookController22setLookAtNearestPlayerEf
0000007100032930=_ZN24ActorJointLookController11resetRotateEb
0000007100032970=_ZN15ActorMicRumblerC2EPN2al9LiveActorEPKNS0_14AnimScaleParamE
0000007100032A20=_ZN15ActorMicRumblerD2Ev
0000007100032A70=_ZN15ActorMicRumblerD0Ev
0000007100032AC0=_ZN15ActorMicRumbler6updateEv
0000007100032AD0=_ZN15ActorMicRumbler12stopAndResetEv
0000007100032B10=_ZN15ActorMicRumbler7exeWaitEv
0000007100032B60=_ZN15ActorMicRumbler12exeVibrationEv
0000007100032CB0=_ZN24ActorRailBrakeMoverParamC2Ev
0000007100032CF0=_ZN24ActorRailBrakeMoverParamC2Effffffff
0000007100032D20=_ZN19ActorRailBrakeMoverC2EPN2al9LiveActorEfPK24ActorRailBrakeMoverParam
0000007100032D50=_ZN19ActorRailBrakeMover17moveSyncRailBrakeEv
0000007100032E70=_ZN28ActorStateSupportFreezeParamC2Ev
0000007100032E90=_ZN28ActorStateSupportFreezeParamC1Ebi
0000007100032EB0=_ZN28ActorStateSupportFreezeParamC1EbibbiRKN4sead7Vector3IfEE
0000007100032EF0=_ZN23ActorStateSupportFreezeC1EPN2al9LiveActorEPK28ActorStateSupportFreezeParamPi
0000007100032FB0=_ZN23ActorStateSupportFreezeD2Ev
0000007100033000=_ZN23ActorStateSupportFreezeD0Ev
0000007100033050=_ZN23ActorStateSupportFreeze6appearEv
00000071000330A0=_ZN23ActorStateSupportFreeze4killEv
00000071000331D0=_ZN23ActorStateSupportFreeze20setScaleAnimTypeHardEv
00000071000331E0=_ZNK23ActorStateSupportFreeze14getStrokeFrameEv
00000071000331F0=_ZN23ActorStateSupportFreeze10receiveMsgEPKN2al9SensorMsgE
0000007100033240=_ZN23ActorStateSupportFreeze21receiveMsgScreenPointEPKN2al9SensorMsgEPNS0_13ScreenPointerEPNS0_17ScreenPointTargetE
0000007100033290=_ZN23ActorStateSupportFreeze7exeBindEv
0000007100033730=_ZN14AllDeadWatcherC2EPKc
00000071000337B0=_ZN14AllDeadWatcherC1EPKc
0000007100033830=_ZN14AllDeadWatcherD2Ev
00000071000338B0=_ZN14AllDeadWatcherD1Ev
0000007100033920=_ZN14AllDeadWatcherD0Ev
00000071000339A0=_ZN14AllDeadWatcher4initERKN2al13ActorInitInfoE
0000007100033B60=_ZN14AllDeadWatcher12killBySwitchEv
0000007100033B70=_ZN14AllDeadWatcher6appearEv
0000007100033BD0=_ZN14AllDeadWatcher4killEv
0000007100033C00=_ZN14AllDeadWatcher10receiveMsgEPKN2al9SensorMsgEPNS0_9HitSensorES5_
0000007100033C50=_ZN14AllDeadWatcher8exeWatchEv
0000007100033CC0=_ZN14AllDeadWatcher7exeWaitEv
0000007100033D00=_ZN14AllDeadWatcher10exeInvalidEv
0000007100033D10=_ZN14AllDeadWatcher10invalidateEv
0000007100033E20=nullsub_21
0000007100033E30=_ZNK2al10FunctorV0MIP14AllDeadWatcherMS1_FvvEEclEv
0000007100033E50=_ZNK2al10FunctorV0MIP14AllDeadWatcherMS1_FvvEE5cloneEv
0000007100033EA0=_ZN18BombStateExplosionC1EPN2al9LiveActorEbPK23BombStateExplosionParam
0000007100033F20=_ZN18BombStateExplosion4initEv
0000007100033F50=_ZN18BombStateExplosion5resetEv
0000007100033FE0=_ZN18BombStateExplosion6appearEv
0000007100033FF0=_ZN18BombStateExplosion12attackSensorEPN2al9HitSensorES2_PNS0_12ComboCounterE
00000071000340A0=_ZN18BombStateExplosion12exeExplosionEv
00000071000341D0=_ZN18BombStateExplosionD0Ev
0000007100034210=_ZN18BrosMoveStepKeeperC2EPN2al9LiveActorEPNS0_13KeyPoseKeeperERKNS0_13ActorInitInfoE
00000071000343C0=_ZN18BrosMoveStepKeeper7endInitEv
00000071000344C0=_ZN18BrosMoveStepKeeper6updateEv
00000071000346E0=_ZNK18BrosMoveStepKeeper19isCurrentStepKuriboEv
0000007100034700=_ZNK18BrosMoveStepKeeper23isCurrentStepRouteDokanEv
0000007100034720=_ZNK18BrosMoveStepKeeper22isCurrentStepPoseFixedEv
0000007100034740=_ZNK18BrosMoveStepKeeper16isNextStepKuriboEv
0000007100034780=_ZNK18BrosMoveStepKeeper20isNextStepRouteDokanEv
00000071000347B0=_ZNK18BrosMoveStepKeeper19isNextStepPoseFixedEv
00000071000347E0=_ZNK18BrosMoveStepKeeper13isAliveKuriboEv
0000007100034860=_ZNK18BrosMoveStepKeeper16tryGetStepKuriboEi
0000007100034880=_ZN15BrosStateAttackC1EPN2al9LiveActorEPK18BrosMoveStepKeeper
0000007100034AC0=_ZN15BrosStateAttack6appearEv
0000007100034B60=_ZN15BrosStateAttack7exeSignEv
0000007100034C10=_ZN15BrosStateAttack9exeAttackEv
0000007100034D50=_ZN15BrosStateAttack7exeWaitEv
0000007100034DD0=_ZN15BrosStateAttack7exeTurnEv
0000007100034F80=_ZN15BrosStateAttack6exeEndEv
0000007100035000=_ZNK15BrosStateAttack12isAttackStepEv
0000007100035050=_ZNK15BrosStateAttack10isSignStepEv
00000071000350C0=_ZN15BrosStateAttackD0Ev
00000071000351B0=_ZN13BrosStateJumpC2EPN2al9LiveActorEPNS0_13KeyPoseKeeperEPK18BrosMoveStepKeeper
0000007100035230=_ZN13BrosStateJump6appearEv
0000007100035260=_ZN13BrosStateJump8exeStartEv
0000007100035310=_ZN13BrosStateJump7exeLoopEv
0000007100035410=_ZN13BrosStateJump7exeLandEv
00000071000354C0=_ZNK13BrosStateJump6isLandEv
00000071000354F0=_ZN13BrosStateJumpD0Ev
0000007100035550=_ZN2kp37turnToTargetOrDefaultDirectionCurrentEPN2al9LiveActorEPK18BrosMoveStepKeeperf
00000071000355E0=_ZN2kp31isFaceToDefaultDirectionCurrentEPKN2al9LiveActorEPK18BrosMoveStepKeeper
00000071000356F0=_ZN2kp17getCurrentKeyQuatEPK18BrosMoveStepKeeper
0000007100035710=_ZN2kp34turnToTargetOrDefaultDirectionNextEPN2al9LiveActorEPK18BrosMoveStepKeeperf
00000071000357C0=_ZN2kp28isFaceToDefaultDirectionNextEPKN2al9LiveActorEPK18BrosMoveStepKeeper
00000071000358D0=_ZN2kp14getNextKeyQuatEPK18BrosMoveStepKeeper
00000071000358F0=_ZN2kp15getNextKeyTransEPK18BrosMoveStepKeeper
0000007100035910=_ZN2kp18getCurrentKeyTransEPK18BrosMoveStepKeeper
0000007100035930=_ZN2kp31isTurnToDefaultDirectionCurrentEPKN2al9LiveActorEPK18BrosMoveStepKeeper
00000071000359E0=_ZN2kp19isCurrentStepKuriboEPK18BrosMoveStepKeeper
00000071000359F0=_ZN2kp22isCurrentStepPoseFixedEPK18BrosMoveStepKeeper
0000007100035A00=_ZN2kp16updateWeaponPoseEPN2al9LiveActorEPKN4sead8Matrix34IfEERKNS3_7Vector3IfEESB_
0000007100035C30=_ZN2kp17killStepKuriboAllEPK18BrosMoveStepKeeperPN2al9HitSensorE
0000007100035D20=_ZN2kp23getCurrentStepKuriboNumEPK18BrosMoveStepKeeper
0000007100035D50=_ZN2kp44tryRequestSupportFreezeSyncCurrentStepKuriboEPK18BrosMoveStepKeeper
0000007100035D80=_ZN2kp47tryRequestEndSupportFreezeSyncCurrentStepKuriboEPK18BrosMoveStepKeeper
0000007100035DB0=_ZN13BrosStateWaitC2EPN2al9LiveActorE
0000007100035E00=_ZN13BrosStateWait7exeWaitEv
0000007100035EA0=_ZN13BrosStateWaitD0Ev
0000007100035EE0=_ZN4BullC2EPKc
0000007100035F90=_ZN4BullC1EPKc
0000007100036040=_ZN4Bull4initERKN2al13ActorInitInfoE
0000007100036190=_ZN4Bull12attackSensorEPN2al9HitSensorES2_
0000007100036370=_ZNK4Bull12isEnablePushEv
00000071000363D0=_ZNK4Bull14isEnableAttackEv
0000007100036450=_ZN4Bull10receiveMsgEPKN2al9SensorMsgEPNS0_9HitSensorES5_
0000007100036970=_ZNK4Bull15isEnableTrampleEPKN2al9SensorMsgE
0000007100036A50=_ZNK4Bull16isEnableBlowDownEv
0000007100036AB0=_ZN4Bull6noticeEv
0000007100036AD0=_ZNK4Bull17isEnableJumpPanelEv
0000007100036B40=_ZN4Bull21receiveMsgScreenPointEPKN2al9SensorMsgEPNS0_13ScreenPointerEPNS0_17ScreenPointTargetE
0000007100036D30=_ZNK4Bull21isEnableSupportFreezeEv
0000007100036DE0=_ZN4Bull7controlEv
0000007100036E40=_ZNK4Bull8isEndRunEv
0000007100036F40=_ZN4Bull14updateVelocityEv
0000007100036F80=_ZN4Bull13tryNextTargetEv
0000007100037000=_ZN4Bull10tryRevivalEv
0000007100037050=_ZN4Bull7exeWaitEv
0000007100037170=_ZN4Bull7exeFindEv
0000007100037230=_ZN4Bull6exeRunEv
0000007100037470=_ZN4Bull23trySendMsgAttackCollideEv
0000007100037550=_ZN4Bull8exeBrakeEv
0000007100037680=_ZN4Bull7exeStopEv
00000071000377B0=_ZN4Bull7exeTurnEv
0000007100037880=_ZN4Bull7exeJumpEv
0000007100037970=_ZN4Bull7exeBlowEv
0000007100037A70=_ZN4Bull11exeTrampledEv
0000007100037B70=_ZN4Bull14exeTrampledEndEv
0000007100037C30=_ZN4Bull8exeAngryEv
0000007100037D20=_ZN4Bull10exeRevivalEv
0000007100037E50=_ZN4Bull11exeBlowDownEv
0000007100037ED0=_ZN4Bull12exePressDownEv
0000007100037F60=_ZN4Bull16exeAttackSuccessEv
0000007100038060=_ZN4Bull16exeSupportFreezeEv
00000071000380A0=_ZN4BullD1Ev
00000071000380B0=_ZN4BullD0Ev
00000071000382E0=_ZN8ChorobonC2EPKcPKf
0000007100038390=_ZN8ChorobonC1EPKcPKf
0000007100038440=_ZN8Chorobon4initERKN2al13ActorInitInfoE
0000007100038590=_ZN8Chorobon12killBySwitchEv
00000071000385E0=_ZN8Chorobon26registerSwitchAreaDirectorEPN2al18SwitchAreaDirectorE
0000007100038600=_ZN8Chorobon6appearEv
0000007100038610=_ZN8Chorobon7controlEv
0000007100038730=_ZN8Chorobon12attackSensorEPN2al9HitSensorES2_
00000071000388A0=_ZN8Chorobon10receiveMsgEPKN2al9SensorMsgEPNS0_9HitSensorES5_
0000007100038A80=_ZN8Chorobon21receiveMsgScreenPointEPKN2al9SensorMsgEPNS0_13ScreenPointerEPNS0_17ScreenPointTargetE
0000007100038B00=_ZN8Chorobon7exeMoveEv
0000007100038B10=_ZN8Chorobon11exeReactionEv
0000007100038BB0=_ZN8Chorobon9exeVanishEv
0000007100038C20=_ZN12ChorobonNodeD1Ev
0000007100038C30=_ZN12ChorobonNodeD0Ev
0000007100038C60=_ZN8ChorobonD1Ev
0000007100038C70=_ZN8ChorobonD0Ev
0000007100038CA0=nullsub_22
0000007100038D30=_ZNK2al10FunctorV0MIP8ChorobonMS1_FvvEEclEv
0000007100038D50=_ZNK2al10FunctorV0MIP8ChorobonMS1_FvvEE5cloneEv
0000007100038DA0=_ZN14ChorobonColonyC2EPKc
0000007100038E20=_ZN14ChorobonColonyC1EPKc
0000007100038EA0=_ZN14ChorobonColony4initERKN2al13ActorInitInfoE
0000007100038FC0=_ZN14ChorobonColony12killBySwitchEv
0000007100039000=_ZN14ChorobonColony5startEv
0000007100039060=_ZN14ChorobonColony17makeActorAppearedEv
0000007100039090=_ZN14ChorobonColony7exeMoveEv
0000007100039150=_ZN14ChorobonColony8exeDelayEv
0000007100039190=_ZN14ChorobonColony7exeWaitEv
0000007100039200=_ZN14ChorobonColony7exeStopEv
0000007100039210=_ZN14ChorobonColonyD1Ev
0000007100039220=_ZN14ChorobonColonyD0Ev
00000071000392C0=nullsub_23
0000007100039330=_ZNK2al10FunctorV0MIP14ChorobonColonyMS1_FvvEEclEv
0000007100039350=_ZNK2al10FunctorV0MIP14ChorobonColonyMS1_FvvEE5cloneEv
00000071000393A0=_ZN12ChorobonCubeC2EPKc
0000007100039410=_ZN12ChorobonCubeC1EPKc
0000007100039490=_ZN12ChorobonCube4initERKN2al13ActorInitInfoE
00000071000394E0=_ZN12ChorobonCube9exeFollowEv
00000071000394F0=_ZN12ChorobonCubeD1Ev
0000007100039500=_ZN12ChorobonCubeD0Ev
0000007100039530=nullsub_24
0000007100039540=_ZN18ChorobonCubeHolderC2EPKc
00000071000395F0=_ZN18ChorobonCubeHolderC1EPKc
00000071000396A0=_ZN18ChorobonCubeHolder4initERKN2al13ActorInitInfoE
0000007100039890=_ZN18ChorobonCubeHolder5startEv
00000071000398C0=_ZN18ChorobonCubeHolder4killEv
0000007100039920=_ZN18ChorobonCubeHolder7exeMoveEv
0000007100039AC0=_ZN18ChorobonCubeHolder8exeDelayEv
0000007100039B40=_ZN18ChorobonCubeHolder7exeWaitEv
0000007100039BD0=_ZN18ChorobonCubeHolder7exeStopEv
0000007100039BE0=_ZN18ChorobonCubeHolderD1Ev
0000007100039BF0=_ZN18ChorobonCubeHolderD0Ev
0000007100039C30=nullsub_25
0000007100039D50=_ZNK2al10FunctorV0MIP18ChorobonCubeHolderMS1_FvvEEclEv
0000007100039D70=_ZNK2al10FunctorV0MIP18ChorobonCubeHolderMS1_FvvEE5cloneEv
0000007100039DC0=_ZN14ChorobonHolderC2EPKc
0000007100039E50=_ZN14ChorobonHolderC1EPKc
0000007100039EE0=_ZN14ChorobonHolder4initERKN2al13ActorInitInfoE
000000710003A1A0=_ZN14ChorobonHolder23calcNearestCoordOfPointEPKN2al9LiveActorE
000000710003A350=_ZN14ChorobonHolder8exeWatchEv
000000710003A4B0=_ZN14ChorobonHolder15tryGetNodeStartEv
000000710003A530=_ZN14ChorobonHolder13tryGetNodeEndEv
000000710003A590=_ZN14ChorobonHolderD1Ev
000000710003A5A0=_ZN14ChorobonHolderD0Ev
000000710003A5E0=_ZN12ChorobonItemC2EPKcPKf
000000710003A670=_ZN12ChorobonItemC1EPKcPKf
000000710003A710=_ZN12ChorobonItem4initERKN2al13ActorInitInfoE
000000710003A7FC=def_710003A7D4
000000710003A8B0=_ZN12ChorobonItem18initAfterPlacementEv
000000710003A910=_ZN12ChorobonItem17updateItemPostureEv
000000710003A960=_ZN12ChorobonItem11exeRailMoveEv
000000710003A9C0=_ZN12ChorobonItemD1Ev
000000710003A9D0=_ZN12ChorobonItemD0Ev
000000710003AA70=_ZN12ChorobonNodeC2EPKcPKf
000000710003AAF0=_ZN12ChorobonNodeC1EPKcPKf
000000710003AB70=_ZN12ChorobonNode12setRailCoordEf
000000710003ABD0=_ZN7CrawlerC2EPKc
000000710003AC70=_ZN7CrawlerC1EPKc
000000710003AD10=_ZN7Crawler4initERKN2al13ActorInitInfoE
000000710003B2D0=_ZN7Crawler12killBySwitchEv
000000710003B310=_ZN7Crawler6appearEv
000000710003B350=_ZN7Crawler7controlEv
000000710003B510=_ZN7Crawler4killEv
000000710003B580=_ZN7Crawler12attackSensorEPN2al9HitSensorES2_
000000710003B660=_ZN7Crawler10receiveMsgEPKN2al9SensorMsgEPNS0_9HitSensorES5_
000000710003BA00=_ZN7Crawler20startTrampleReactionEv
000000710003BA50=_ZN7Crawler21receiveMsgScreenPointEPKN2al9SensorMsgEPNS0_13ScreenPointerEPNS0_17ScreenPointTargetE
000000710003BBC0=_ZN7Crawler12startClippedEv
000000710003BC20=_ZN7Crawler10endClippedEv
000000710003BC80=_ZN7Crawler17makeActorAppearedEv
000000710003BCD0=_ZN7Crawler13makeActorDeadEv
000000710003BD40=_ZN7Crawler10resetParamERKN4sead7Vector3IfEES4_S4_
000000710003BE00=_ZN7Crawler12setWalkSpeedEf
000000710003BE10=_ZN7Crawler11startLaunchEv
000000710003BE60=_ZN7Crawler9startWalkEv
000000710003BED0=_ZNK7Crawler9isDamagedEv
000000710003BF20=_ZN7Crawler7exeStopEv
000000710003BF90=_ZN7Crawler14exeWalkStandbyEv
000000710003BFD0=_ZN7Crawler16exeLaunchStandbyEv
000000710003BFE0=_ZN7Crawler9exeLaunchEv
000000710003BFF0=_ZN7Crawler7exeWalkEv
000000710003C050=_ZN7Crawler12exePressDownEv
000000710003C200=_ZN7Crawler11exeBlowDownEv
000000710003C2B0=_ZN7CrawlerD1Ev
000000710003C2C0=_ZN7CrawlerD0Ev
000000710003C2F0=nullsub_26
000000710003C460=nullsub_27
000000710003C470=_ZNK2al10FunctorV0MIP7CrawlerMS1_FvvEEclEv
000000710003C490=_ZNK2al10FunctorV0MIP7CrawlerMS1_FvvEE5cloneEv
000000710003C590=_ZN16CrawlerGeneratorC2EPKc
000000710003C620=_ZN16CrawlerGeneratorC1EPKc
000000710003C6B0=_ZN16CrawlerGenerator4initERKN2al13ActorInitInfoE
000000710003CA00=_ZN16CrawlerGenerator12stopBySwitchEv
000000710003CA10=_ZN16CrawlerGenerator18initAfterPlacementEv
000000710003CA50=_ZN16CrawlerGenerator7controlEv
000000710003CA60=_ZN16CrawlerGenerator7exeStopEv
000000710003CA70=_ZN16CrawlerGenerator17exeLaunchIntervalEv
000000710003CAD0=_ZN16CrawlerGenerator13exeLaunchSignEv
000000710003CB30=_ZN16CrawlerGenerator9exeLaunchEv
000000710003CB80=_ZN16CrawlerGeneratorD1Ev
000000710003CB90=_ZN16CrawlerGeneratorD0Ev
000000710003CC10=nullsub_28
000000710003CCF0=_ZNK2al10FunctorV0MIP16CrawlerGeneratorMS1_FvvEEclEv
000000710003CD10=_ZNK2al10FunctorV0MIP16CrawlerGeneratorMS1_FvvEE5cloneEv
000000710003CDC0=_ZN23CrawlerLaunchStateParamC2Ev
000000710003CDF0=_ZN23CrawlerLaunchStateParamC1Effffiii
000000710003CE10=_ZN18CrawlerLaunchStateC2EPN2al9LiveActorEPK23CrawlerLaunchStateParamPNS0_16DeriveActorGroupI7CrawlerEE
000000710003CE80=_ZN18CrawlerLaunchState6appearEv
000000710003CE90=_ZN18CrawlerLaunchState7controlEv
000000710003CFC0=_ZN18CrawlerLaunchState12exeLaunchSetEv
000000710003D140=_ZN18CrawlerLaunchState13exeAppearSignEv
000000710003D1B0=_ZN18CrawlerLaunchState9exeAppearEv
000000710003D250=_ZN18CrawlerLaunchState12exeAppearEndEv
000000710003D2C0=_ZN18CrawlerLaunchStateD0Ev
000000710003D410=_ZN21CrawlerWalkStateParamC2Ev
000000710003D450=_ZN21CrawlerWalkStateParamC2Effffffffffi
000000710003D490=_ZN16CrawlerWalkStateC1EPN2al9LiveActorEPNS0_13KeyPoseKeeperERKN4sead7Vector3IfEEPK21CrawlerWalkStateParam
000000710003D570=_ZN16CrawlerWalkState6appearEv
000000710003D5F0=_ZN16CrawlerWalkState4killEv
000000710003D600=_ZN16CrawlerWalkState9checkFallEv
000000710003D680=_ZN16CrawlerWalkState7exeWalkEv
000000710003DB00=_ZN16CrawlerWalkState11exeTurnWallEv
000000710003DD50=_ZN16CrawlerWalkState11exeTurnEdgeEv
000000710003E090=_ZN16CrawlerWalkState7exeFallEv
000000710003E1D0=_ZN16CrawlerWalkState15exeKeyWalkFirstEv
000000710003E370=_ZN16CrawlerWalkState10exeKeyWalkEv
000000710003E500=_ZN16CrawlerWalkStateD0Ev
000000710003E590=_ZN15EnemyAttachItemC2EPN2al9LiveActorEPKcS4_iPKN4sead7Vector3IfEEPKNS5_8Matrix34IfEERS8_bb
000000710003E680=_ZN15EnemyAttachItemC1EPN2al9LiveActorEPKcS4_iPKN4sead7Vector3IfEEPKNS5_8Matrix34IfEERS8_bb
000000710003E770=_ZN15EnemyAttachItem4initERKN2al13ActorInitInfoE
000000710003E8D0=_ZN15EnemyAttachItem11initPostureEv
000000710003E920=_ZN15EnemyAttachItem13updatePostureEv
000000710003EA90=_ZN15EnemyAttachItem6appearEv
000000710003EAD0=_ZN15EnemyAttachItem12attackSensorEPN2al9HitSensorES2_
000000710003EB50=_ZN15EnemyAttachItem12startClippedEv
000000710003EBA0=_ZN15EnemyAttachItem10endClippedEv
000000710003EBF0=_ZN15EnemyAttachItem17makeActorAppearedEv
000000710003EC50=_ZN15EnemyAttachItem13makeActorDeadEv
000000710003ECB0=_ZN15EnemyAttachItem9exeAttachEv
000000710003ED70=_ZN15EnemyAttachItem7exeFallEv
000000710003EEC0=_ZN15EnemyAttachItem14exeBreakBubbleEv
000000710003EF00=_ZN15EnemyAttachItem10exeFallEndEv
000000710003EF40=_ZN15EnemyAttachItem8exePopUpEv
000000710003EFA0=_ZN15EnemyAttachItem7exeWaitEv
000000710003EFB0=_ZN15EnemyAttachItem17setFollowTransPtrEPKN4sead7Vector3IfEE
000000710003EFD0=_ZN15EnemyAttachItem15setFollowMtxPtrEPKN4sead8Matrix34IfEE
000000710003EFF0=_ZN15EnemyAttachItem11setVelocityERKN4sead7Vector3IfEE
000000710003F000=_ZN15EnemyAttachItem9endAttachEb
000000710003F050=_ZN15EnemyAttachItemD1Ev
000000710003F060=_ZN15EnemyAttachItemD0Ev
000000710003F190=nullsub_29
000000710003F1A0=_ZN17EnemyEffectBulletC2EPKcPK21EnemyEffectBulletInfo
000000710003F250=_ZN17EnemyEffectBulletC1EPKcPK21EnemyEffectBulletInfo
000000710003F300=_ZN17EnemyEffectBullet4initERKN2al13ActorInitInfoE
000000710003F360=_ZN17EnemyEffectBullet6appearEv
000000710003F3F0=_ZN17EnemyEffectBullet4killEv
000000710003F460=_ZN17EnemyEffectBullet7controlEv
000000710003F6E0=_ZN17EnemyEffectBullet12attackSensorEPN2al9HitSensorES2_
000000710003F820=_ZN17EnemyEffectBullet10receiveMsgEPKN2al9SensorMsgEPNS0_9HitSensorES5_
000000710003F8D0=_ZN17EnemyEffectBullet4shotERKN4sead7Vector3IfEEf
000000710003F920=_ZN21EnemyEffectBulletInfoC1EPKciS1_S1_S1_S1_S1_S1_bbiff
000000710003F970=_ZN17EnemyEffectBulletD1Ev
000000710003F980=_ZN17EnemyEffectBulletD0Ev
000000710003F9B0=_ZNK17EnemyEffectBullet10getBaseMtxEv
000000710003F9C0=_ZN12EnemySpawnerC2EPKc
000000710003FA50=_ZN12EnemySpawnerC1EPKc
000000710003FAE0=_ZN12EnemySpawner4initERKN2al13ActorInitInfoE
000000710003FEE0=_ZN15EnemySpawnArrayI6TeresaEC2EPN2al9LiveActorERKNS2_13ActorInitInfoEiPKc
000000710003FFE0=_ZN12EnemySpawner12killBySwitchEv
00000071000400B0=_ZN12EnemySpawner17disappearBySwitchEv
00000071000401A0=_ZN12EnemySpawner16makeActorStandbyEv
00000071000401D0=_ZN12EnemySpawner14appearBySwitchEv
0000007100040280=_ZN12EnemySpawner7controlEv
0000007100040380=_ZN12EnemySpawner17shuffleIndexArrayEi
00000071000403F0=_ZN12EnemySpawner13makeActorDeadEv
00000071000404C0=_ZN12EnemySpawner17makeActorAppearedEv
00000071000405A0=_ZN12EnemySpawner10exeStandbyEv
00000071000405B0=_ZN12EnemySpawner13exeDeactivateEv
00000071000405C0=_ZN12EnemySpawner8exeSpawnEv
0000007100040970=_ZN12EnemySpawner18isInPlayerPositionERKN4sead7Vector3IfEERS2_
0000007100040AD0=_ZN12EnemySpawner17isInEnemyPositionERKN4sead7Vector3IfEE
0000007100040BA0=_ZN12EnemySpawner7exeWaitEv
0000007100040BF0=_ZN12EnemySpawner7exeKillEv
0000007100040C80=_ZN12EnemySpawner8exeSleepEv
0000007100040CC0=_ZN12EnemySpawner14countdownSpawnEv
0000007100040CD0=_ZN12EnemySpawner16reportSpawnDeathEP6Teresa
0000007100040D00=_ZN12EnemySpawnerD1Ev
0000007100040D10=_ZN12EnemySpawnerD0Ev
0000007100040D60=nullsub_30
0000007100040D70=nullsub_31
0000007100040E10=_ZNK2al10FunctorV0MIP12EnemySpawnerMS1_FvvEEclEv
0000007100040E30=_ZNK2al10FunctorV0MIP12EnemySpawnerMS1_FvvEE5cloneEv
0000007100040E80=_ZN23EnemyStateBlowDownParamC2Eb
0000007100040EF0=_ZN23EnemyStateBlowDownParamC2EPKc
0000007100040F30=_ZN23EnemyStateBlowDownParamC1EPKcffffi
0000007100040F50=_ZN18EnemyStateBlowDownC1EPKcPN2al9LiveActorEPK23EnemyStateBlowDownParam
0000007100040FB0=_ZN18EnemyStateBlowDownC1EPN2al9LiveActorEPK23EnemyStateBlowDownParam
0000007100041020=_ZN18EnemyStateBlowDown6appearEv
0000007100041110=_ZN18EnemyStateBlowDown4killEv
0000007100041120=_ZN18EnemyStateBlowDown10setBlowDirEPKN2al9LiveActorE
00000071000412A0=_ZN18EnemyStateBlowDown10setBlowDirERKN4sead7Vector3IfEE
0000007100041380=_ZN18EnemyStateBlowDown10setBlowDirEPKN2al9HitSensorES3_
0000007100041500=_ZN18EnemyStateBlowDown16setBlowDownParamEPK23EnemyStateBlowDownParam
0000007100041510=_ZN18EnemyStateBlowDown7exeDownEv
00000071000415F0=_ZN18EnemyStateBlowDownD0Ev
0000007100041630=_ZN28EnemyStateBlowDownNoColliderC1EPN2al9LiveActorEPK23EnemyStateBlowDownParamPb
0000007100041690=_ZN28EnemyStateBlowDownNoCollider6appearEv
00000071000416C0=_ZN28EnemyStateBlowDownNoCollider7exeDownEv
0000007100041770=_ZN28EnemyStateBlowDownNoColliderD0Ev
00000071000417B0=_ZN14EnemyStateUtil32isMsgPressDownForCrossoverSensorEPKN2al9SensorMsgEPKNS0_9HitSensorES6_
0000007100041860=_ZN14EnemyStateUtil19tryRequestPressDownEPKN2al9SensorMsgEPNS0_9HitSensorES5_b
0000007100041940=_ZN14EnemyStateUtil31tryRequestPressDownAndNextNerveEPKN2al9SensorMsgEPNS0_9HitSensorES5_PNS0_9LiveActorEPKNS0_5NerveEb
0000007100041990=_ZN14EnemyStateUtil13isMsgBlowDownEPKN2al9SensorMsgE
0000007100041B00=_ZN14EnemyStateUtil21isMsgBlowDownForSpikeEPKN2al9SensorMsgE
0000007100041B80=_ZN14EnemyStateUtil21isMsgBlowDownForGhostEPKN2al9SensorMsgE
0000007100041C20=_ZN14EnemyStateUtil18tryRequestBlowDownEPKN2al9SensorMsgEPNS0_9HitSensorES5_P18EnemyStateBlowDownb
0000007100041CD0=_ZN14EnemyStateUtil15requestBlowDownEPKN2al9SensorMsgEPNS0_9HitSensorES5_P18EnemyStateBlowDownb
0000007100041D60=_ZN14EnemyStateUtil30tryRequestBlowDownAndNextNerveEPKN2al9SensorMsgEPNS0_9HitSensorES5_P18EnemyStateBlowDownPKNS0_5NerveEb
0000007100041DB0=_ZN14EnemyStateUtil21isMsgRouteDokanAttackEPKN2al9SensorMsgE
0000007100041E20=_ZN14EnemyStateUtil26isKillByAreaOrMaterialCodeEPKN2al9LiveActorE
0000007100041E70=_ZN14EnemyStateUtil27tryKillByAreaOrMaterialCodeEPN2al9LiveActorE
0000007100041ED0=_ZN14EnemyStateUtil42tryKillByAreaOrMaterialCodeWithHitReactionEPN2al9LiveActorE
0000007100041F40=_ZN14EnemyStateUtil16tryKillByGoalMsgEPN2al9LiveActorEPNS0_9HitSensorEPKNS0_9SensorMsgEPKcb
0000007100041FD0=_ZN8FireBrosC2EPKc
0000007100042060=_ZN8FireBrosC1EPKc
0000007100042100=_ZN8FireBros4initERKN2al13ActorInitInfoE
00000071000423D0=_ZN15BrosWeaponArrayI16FireBrosFireBallEC2EPN2al9LiveActorERKNS2_13ActorInitInfoEi
00000071000424E0=_ZN8FireBros18initAfterPlacementEv
00000071000424F0=_ZN8FireBros7controlEv
00000071000425C0=_ZN8FireBros12attackSensorEPN2al9HitSensorES2_
0000007100042670=_ZN8FireBros10receiveMsgEPKN2al9SensorMsgEPNS0_9HitSensorES5_
0000007100042990=_ZN8FireBros21receiveMsgScreenPointEPKN2al9SensorMsgEPNS0_13ScreenPointerEPNS0_17ScreenPointTargetE
0000007100042A50=_ZN8FireBros7exeWaitEv
0000007100042AE0=_ZN8FireBros7exeJumpEv
0000007100042B30=_ZN8FireBros9exeAttackEv
0000007100042CC0=_ZN8FireBros17exePressDownPressEv
0000007100042D20=_ZN8FireBros16exePressDownBlowEv
0000007100042DA0=_ZN8FireBros11exeBlowDownEv
0000007100042E20=_ZN8FireBros16exeSupportFreezeEv
0000007100042E80=_ZN8FireBrosD1Ev
0000007100042E90=_ZN8FireBrosD0Ev
0000007100043170=_ZN16FireBrosFireBallC2EPKc
0000007100043200=_ZN16FireBrosFireBallC1EPKc
0000007100043290=_ZN16FireBrosFireBall4initERKN2al13ActorInitInfoE
0000007100043360=_ZN16FireBrosFireBall12attackSensorEPN2al9HitSensorES2_
0000007100043490=_ZN16FireBrosFireBall10receiveMsgEPKN2al9SensorMsgEPNS0_9HitSensorES5_
0000007100043550=_ZN16FireBrosFireBall5shootEPKN2al9LiveActorEPKN4sead8Matrix34IfEERKNS4_7Vector3IfEEf
00000071000436F0=_ZN16FireBrosFireBall7exeMoveEv
0000007100043B10=_ZN16FireBrosFireBall13exeRouteDokanEv
0000007100043BD0=_ZN16FireBrosFireBallD1Ev
0000007100043BE0=_ZN16FireBrosFireBallD0Ev
0000007100043C30=_ZN20FlyerStateChaseParamD2Ev
0000007100043C40=_ZN20FlyerStateChaseParamC2Ev
0000007100043E40=_ZN20FlyerStateChaseParamC2EfiffiiPKcS1_
0000007100044030=_ZN15FlyerStateChaseC2EPN2al9LiveActorEPN4sead7Vector3IfEEP12TargetFinderPK15FlyerStateParamPK20FlyerStateChaseParam
00000071000440C0=_ZN15FlyerStateChase6appearEv
00000071000440D0=_ZN15FlyerStateChase8exeChaseEv
0000007100044260=_ZN15FlyerStateChase11exeChaseEndEv
0000007100044330=_ZN15FlyerStateChaseD0Ev
0000007100044380=_ZN4sead15FixedSafeStringILi32EED0Ev
0000007100044390=_ZN4sead19FixedSafeStringBaseIcLi32EED0Ev
00000071000443A0=_ZN4sead19FixedSafeStringBaseIcLi32EEaSERKNS_14SafeStringBaseIcEE
00000071000444A0=_ZN25FlyerStateFindPlayerParamD2Ev
00000071000444B0=_ZN25FlyerStateFindPlayerParamC2Ev
00000071000445C0=_ZN25FlyerStateFindPlayerParamC2EfPc
00000071000446E0=_ZN20FlyerStateFindPlayerC1EPN2al9LiveActorEPN4sead7Vector3IfEEP12TargetFinderPK15FlyerStateParamPK25FlyerStateFindPlayerParam
0000007100044770=_ZN20FlyerStateFindPlayer6appearEv
0000007100044780=_ZN20FlyerStateFindPlayer4killEv
0000007100044790=_ZN20FlyerStateFindPlayer13exeTurnPlayerEv
0000007100044850=_ZN20FlyerStateFindPlayer7exeFindEv
0000007100044900=_ZN20FlyerStateFindPlayerD0Ev
0000007100044A70=_ZN18FlyerStateFunction13recoverHeightEPN2al9LiveActorEfPK15FlyerStateParam
0000007100044AE0=_ZN15FlyerStateParamC2Ev
0000007100044B00=_ZN15FlyerStateParamC1Eff
0000007100044B10=_ZN25FlyerStateReturnAreaParamC2Ev
0000007100044B40=_ZN25FlyerStateReturnAreaParamC2Efifffi
0000007100044B60=_ZN20FlyerStateReturnAreaC2EPN2al9LiveActorEPN4sead7Vector3IfEERKS5_PK15FlyerStateParamPK25FlyerStateReturnAreaParam
0000007100044BF0=_ZN20FlyerStateReturnArea6appearEv
0000007100044C00=_ZN20FlyerStateReturnArea8exeBrakeEv
0000007100044C60=_ZN20FlyerStateReturnArea15exeReturnRotateEv
0000007100044CB0=_ZN20FlyerStateReturnArea9exeReturnEv
0000007100044D40=_ZN20FlyerStateReturnAreaD0Ev
0000007100044EA0=_ZN21FlyerStateWanderParamC1EiiiPKcPKN2al14ActorParamMoveE
0000007100044FC0=_ZN16FlyerStateWanderC2EPN2al9LiveActorEPN4sead7Vector3IfEEP12TargetFinderPK15FlyerStateParamPK21FlyerStateWanderParam
0000007100045040=_ZN16FlyerStateWander6appearEv
0000007100045050=_ZN16FlyerStateWander9exeWanderEv
0000007100045120=_ZN16FlyerStateWander7exeWaitEv
00000071000451A0=_ZN16FlyerStateWanderD0Ev
0000007100045260=_ZN5GabonC2EPKc
00000071000452F0=_ZN5GabonC1EPKc
0000007100045380=_ZN5GabonD2Ev
0000007100045430=_ZN5GabonD1Ev
00000071000454D0=_ZN5GabonD0Ev
0000007100045570=_ZN5Gabon4killEv
00000071000455B0=_ZN5Gabon17killCurrentRollerEv
00000071000455C0=_ZN5Gabon4initERKN2al13ActorInitInfoE
00000071000457C0=_ZN5Gabon5startEv
0000007100045810=_ZN5Gabon4stopEv
0000007100045860=_ZN5Gabon7killAllEv
00000071000458E0=_ZN5Gabon8reappearEv
0000007100045950=_ZNK5Gabon14isEnableAttackEv
00000071000459C0=_ZNK5Gabon12isEnableDownEv
0000007100045A40=_ZNK5Gabon21isEnableSupportFreezeEv
0000007100045AB0=_ZNK5Gabon16isMyRollerSensorEPN2al9HitSensorE
0000007100045AC0=_ZN5Gabon12attackSensorEPN2al9HitSensorES2_
0000007100045B60=_ZN5Gabon10receiveMsgEPKN2al9SensorMsgEPNS0_9HitSensorES5_
0000007100045D70=_ZN5Gabon21receiveMsgScreenPointEPKN2al9SensorMsgEPNS0_13ScreenPointerEPNS0_17ScreenPointTargetE
0000007100045E60=_ZN5Gabon7controlEv
0000007100045EA0=_ZN5Gabon10exeStandByEv
0000007100045EF0=_ZN5Gabon7exeWaitEv
0000007100045F60=_ZN5Gabon12exeThrowSignEv
0000007100045FE0=_ZN5Gabon8exeThrowEv
0000007100046040=_ZN5Gabon12exePressDownEv
00000071000460C0=_ZN5Gabon11exeBlowDownEv
0000007100046110=_ZN5Gabon7exeDeadEv
0000007100046120=_ZN5Gabon16exeSupportFreezeEv
0000007100046160=nullsub_32
0000007100046430=_ZNK2al10FunctorV0MIP5GabonMS1_FvvEEclEv
0000007100046450=_ZNK2al10FunctorV0MIP5GabonMS1_FvvEE5cloneEv
0000007100046500=_ZN18GabonThrowObjGroupC1EPN2al9LiveActorERKNS0_13ActorInitInfoE
00000071000466D0=_ZNK18GabonThrowObjGroup16isThrowObjSensorEPN2al9HitSensorE
00000071000467A0=_ZNK18GabonThrowObjGroup12getMemberNumEv
00000071000467B0=_ZNK18GabonThrowObjGroup9getMemberEj
00000071000467D0=_ZN18GabonThrowObjGroup7killAllEv
0000007100046880=_ZN18GabonThrowObjGroup11killCurrentEv
00000071000468C0=_ZN18GabonThrowObjGroup13startGenerateEv
0000007100046960=_ZN18GabonThrowObjGroup12calcBasePoseEb
00000071000469E0=_ZN18GabonThrowObjGroup9startMoveEv
0000007100046AC0=_ZN6GettonC2EPKcS1_P12GettonHolderRKN4sead7Vector3IfEEb
0000007100046B80=_ZN6GettonC1EPKcS1_P12GettonHolderRKN4sead7Vector3IfEEb
0000007100046C40=_ZN6Getton4initERKN2al13ActorInitInfoE
0000007100046CB0=_ZN6Getton18initAfterPlacementEv
0000007100046DE0=_ZN6Getton12attackSensorEPN2al9HitSensorES2_
0000007100046E60=_ZN6Getton10receiveMsgEPKN2al9SensorMsgEPNS0_9HitSensorES5_
0000007100046F20=_ZN6Getton7controlEv
0000007100047070=_ZN6Getton17calcTransFromRootERKN4sead7Vector3IfEES4_S4_S4_
0000007100047160=_ZN6Getton12changeActionEPKc
00000071000471A0=_ZN6Getton14changeEyeTransEi
00000071000471E0=_ZN6Getton10killByGoalEv
0000007100047240=_ZN6GettonD1Ev
0000007100047250=_ZN6GettonD0Ev
0000007100047280=_ZN12GettonHolderC2EPKcP13GettonWatcher
0000007100047350=_ZN12GettonHolderC1EPKcP13GettonWatcher
0000007100047420=_ZN12GettonHolder4initERKN2al13ActorInitInfoE
0000007100047950=_ZN12GettonHolder7controlEv
00000071000479B0=_ZN12GettonHolder8exeBeginEv
0000007100047A00=_ZN12GettonHolder31changeGettonEyeTransFromMoveDirEv
0000007100047B10=_ZNK12GettonHolder21getInverseMoveDirAnimEv
0000007100047B40=_ZN12GettonHolder12exeDelayWaitEv
0000007100047BF0=_ZN12GettonHolder18changeGettonActionEPKcb
0000007100047C60=_ZN12GettonHolder7exeWaitEv
0000007100047D20=_ZN12GettonHolder7exeWalkEv
0000007100047E10=_ZN12GettonHolder11exeWalkBackEv
0000007100047F00=_ZN12GettonHolder11exeNoneMoveEv
0000007100047F90=_ZN12GettonHolder9exeAttackEv
00000071000480B0=_ZN12GettonHolder10exeSpeedUpEv
0000007100048250=_ZNK12GettonHolder24getGettonAnimFromMoveDirEv
0000007100048280=_ZN12GettonHolder12exeSpeedDownEv
00000071000483A0=_ZN12GettonHolder16applyAttackNerveEb
00000071000483C0=_ZN12GettonHolderD1Ev
00000071000483D0=_ZN12GettonHolderD0Ev
0000007100048610=_ZN13GettonWatcherC2EPKc
0000007100048690=_ZN13GettonWatcherC1EPKc
0000007100048710=_ZN13GettonWatcher4initERKN2al13ActorInitInfoE
0000007100048810=_ZN13GettonWatcher16applyAttackNerveEv
0000007100048870=_ZN13GettonWatcherD1Ev
0000007100048880=_ZN13GettonWatcherD0Ev
00000071000488B0=_ZN21FlyerStateWanderParamD2Ev
00000071000488C0=_ZN7HacchinC2EPKc
0000007100048950=_ZN7HacchinC1EPKc
00000071000489E0=_ZN7Hacchin4initERKN2al13ActorInitInfoE
0000007100048D10=_ZN7Hacchin12killBySwitchEv
0000007100048D20=_ZN7Hacchin4killEv
0000007100048D50=_ZN7Hacchin12attackSensorEPN2al9HitSensorES2_
0000007100048E20=_ZN7Hacchin10receiveMsgEPKN2al9SensorMsgEPNS0_9HitSensorES5_
0000007100048FF0=_ZN7Hacchin21receiveMsgScreenPointEPKN2al9SensorMsgEPNS0_13ScreenPointerEPNS0_17ScreenPointTargetE
0000007100049090=_ZN7Hacchin9exeWanderEv
0000007100049130=_ZN7Hacchin13exeFindPlayerEv
00000071000491B0=_ZN7Hacchin8exeChaseEv
0000007100049320=_ZN7Hacchin13exeReturnAreaEv
00000071000493E0=_ZN7Hacchin12exeAttackHitEv
0000007100049440=_ZN7Hacchin12exePressDownEv
00000071000494C0=_ZN7Hacchin14exeHipDropDownEv
0000007100049560=_ZN7Hacchin11exeBlowDownEv
00000071000495B0=_ZN7Hacchin16exeSupportFreezeEv
00000071000495F0=_ZN7HacchinD1Ev
0000007100049600=_ZN7HacchinD0Ev
0000007100049800=_ZNK2al10FunctorV0MIP7HacchinMS1_FvvEEclEv
0000007100049820=_ZNK2al10FunctorV0MIP7HacchinMS1_FvvEE5cloneEv
0000007100049990=_ZN10HammerBrosC2EPKc
0000007100049A20=_ZN10HammerBrosC1EPKc
0000007100049AB0=_ZN10HammerBros4initERKN2al13ActorInitInfoE
0000007100049D30=_ZN15BrosWeaponArrayI16HammerBrosHammerEC2EPN2al9LiveActorERKNS2_13ActorInitInfoEi
0000007100049E40=_ZN10HammerBros12killBySwitchEv
0000007100049EB0=_ZN10HammerBros18initAfterPlacementEv
0000007100049EC0=_ZN10HammerBros12attackSensorEPN2al9HitSensorES2_
0000007100049F70=_ZN10HammerBros10receiveMsgEPKN2al9SensorMsgEPNS0_9HitSensorES5_
000000710004A230=_ZN10HammerBros21receiveMsgScreenPointEPKN2al9SensorMsgEPNS0_13ScreenPointerEPNS0_17ScreenPointTargetE
000000710004A2D0=_ZN10HammerBros7controlEv
000000710004A360=_ZN10HammerBros7exeWaitEv
000000710004A3D0=_ZN10HammerBros7exeJumpEv
000000710004A4E0=_ZN10HammerBros9exeAttackEv
000000710004A6A0=_ZN10HammerBros17exePressDownPressEv
000000710004A700=_ZN10HammerBros16exePressDownBlowEv
000000710004A770=_ZN10HammerBros11exeBlowDownEv
000000710004A7E0=_ZN10HammerBros16exeSupportFreezeEv
000000710004A850=_ZN10HammerBrosD1Ev
000000710004A860=_ZN10HammerBrosD0Ev
000000710004AB10=_ZNK2al10FunctorV0MIP10HammerBrosMS1_FvvEEclEv
000000710004AB30=_ZNK2al10FunctorV0MIP10HammerBrosMS1_FvvEE5cloneEv
000000710004AC00=_ZN24HammerBrosAllDeadWatcherC2EPKc
000000710004AC80=_ZN24HammerBrosAllDeadWatcherC1EPKc
000000710004AD10=_ZN24HammerBrosAllDeadWatcher4initERKN2al13ActorInitInfoE
000000710004AE80=_ZN24HammerBrosAllDeadWatcher7controlEv
000000710004AF00=_ZN24HammerBrosAllDeadWatcherD1Ev
000000710004AF10=_ZN24HammerBrosAllDeadWatcherD0Ev
000000710004AF40=nullsub_33
000000710004AF50=_ZN16HammerBrosHammerC2EPKc
000000710004AFF0=_ZN16HammerBrosHammerC1EPKc
000000710004B0A0=_ZN16HammerBrosHammer4initERKN2al13ActorInitInfoE
000000710004B120=_ZN16HammerBrosHammer12attackSensorEPN2al9HitSensorES2_
000000710004B200=_ZN16HammerBrosHammer10receiveMsgEPKN2al9SensorMsgEPNS0_9HitSensorES5_
000000710004B320=_ZN16HammerBrosHammer21receiveMsgScreenPointEPKN2al9SensorMsgEPNS0_13ScreenPointerEPNS0_17ScreenPointTargetE
000000710004B380=_ZN16HammerBrosHammer6attachEPKN4sead8Matrix34IfEERKNS0_7Vector3IfEES8_PKc
000000710004B440=_ZN16HammerBrosHammer5shootEPKN2al9LiveActorERKN4sead7Vector3IfEE
000000710004B4B0=_ZN16HammerBrosHammer7exeWaitEv
000000710004B4C0=_ZN16HammerBrosHammer7exeMoveEv
000000710004B550=_ZN16HammerBrosHammerD1Ev
000000710004B560=_ZN16HammerBrosHammerD0Ev
000000710004B5C0=_ZN26WalkerStateChaseHeyhoParamD2Ev
000000710004B5D0=_ZN22WalkerStateWanderParamD2Ev
000000710004B5E0=_ZN5HeyhoC2EPKc
000000710004B6D0=_ZN5HeyhoC1EPKc
000000710004B7C0=_ZN5Heyho4initERKN2al13ActorInitInfoE
000000710004BE20=_ZN5Heyho5startEv
000000710004BE30=_ZN5Heyho21changeClippingSettingEb
000000710004BEA0=_ZN5Heyho18initAfterPlacementEv
000000710004BFC0=_ZN5Heyho7controlEv
000000710004BFE0=_ZN5Heyho12attackSensorEPN2al9HitSensorES2_
000000710004C160=_ZN5Heyho10receiveMsgEPKN2al9SensorMsgEPNS0_9HitSensorES5_
000000710004C650=_ZN5Heyho21receiveMsgScreenPointEPKN2al9SensorMsgEPNS0_13ScreenPointerEPNS0_17ScreenPointTargetE
000000710004C760=_ZN5Heyho10exeStandByEv
000000710004C7A0=_ZN5Heyho13exeWaitSearchEv
000000710004C860=_ZN5Heyho13exeTurnSearchEv
000000710004CA10=_ZN5Heyho11exeRailWaitEv
000000710004CAB0=_ZN5Heyho11exeRailTurnEv
000000710004CBD0=_ZN5Heyho11exeRailWalkEv
000000710004CCC0=_ZN5Heyho19exeRailWaitForOtherEv
000000710004CD00=_ZN5Heyho22exeRailWaitAfterReturnEv
000000710004CDA0=_ZN5Heyho18exeAfterPlayerFindEv
000000710004CEB0=_ZN5Heyho14exeTurnToLightEv
000000710004CF40=_ZN5Heyho15exeWatchToLightEv
000000710004D020=_ZN5Heyho9exeAttackEv
000000710004D0D0=_ZN5Heyho16exeSupportFreezeEv
000000710004D190=_ZN5Heyho12exePressDownEv
000000710004D210=_ZN5Heyho11exeBlowDownEv
000000710004D260=_ZN5Heyho14exeRestoreWaitEv
000000710004D2C0=_ZN5HeyhoD1Ev
000000710004D2D0=_ZN5HeyhoD0Ev
000000710004D4F0=_ZNK2al10FunctorV0MIP5HeyhoMS1_FvvEEclEv
000000710004D510=_ZNK2al10FunctorV0MIP5HeyhoMS1_FvvEE5cloneEv
000000710004D730=_ZN20HeyhoStateChaseParamC2EPK26WalkerStateChaseHeyhoParamPK22WalkerStateWanderParamPK16WalkerStateParamS8_if
000000710004D750=_ZN15HeyhoStateChaseC2EPN2al9LiveActorEP20HeyhoStateChaseParamP12TargetFinderPNS0_12AreaObjGroupE
000000710004D970=_ZN15HeyhoStateChase13initReturnPosERKN4sead7Vector3IfEE
000000710004D9A0=_ZN15HeyhoStateChase6appearEv
000000710004DAC0=_ZN15HeyhoStateChase11resetStatusEv
000000710004DAD0=_ZN15HeyhoStateChase7controlEv
000000710004DAE0=_ZNK15HeyhoStateChase11isFindNerveEv
000000710004DAF0=_ZNK15HeyhoStateChase12isChaseNerveEv
000000710004DB00=_ZNK15HeyhoStateChase25isDisableAddVelocityNerveEv
000000710004DBA0=_ZN15HeyhoStateChase12searchPlayerEi
000000710004DC60=_ZN15HeyhoStateChase18startSupportFreezeEv
000000710004DCE0=_ZN15HeyhoStateChase5resetEv
000000710004DCF0=_ZN15HeyhoStateChase7exeWaitEv
000000710004DD00=_ZN15HeyhoStateChase7exeFindEv
000000710004DE00=_ZN15HeyhoStateChase8exeChaseEv
000000710004E270=_ZN15HeyhoStateChase12setNerveLostEv
000000710004E2A0=_ZN15HeyhoStateChase11exeLostWaitEv
000000710004E390=_ZN15HeyhoStateChase13exeLostGiveUpEv
000000710004E430=_ZN15HeyhoStateChase13exeGiveUpLoopEv
000000710004E4A0=_ZN15HeyhoStateChase12exeGiveUpEndEv
000000710004E570=_ZN15HeyhoStateChase9exeWanderEv
000000710004E7B0=_ZN15HeyhoStateChase16exeTurnForReturnEv
000000710004E990=_ZN15HeyhoStateChase3endEv
000000710004EA40=_ZN15HeyhoStateChase9exeReturnEv
000000710004EB90=_ZN15HeyhoStateChase26changeNerveIfArriveAtGoPosEv
000000710004EC60=_ZN15HeyhoStateChase15exeReturnInterpEv
000000710004EE20=_ZN15HeyhoStateChaseD0Ev
000000710004EE50=nullsub_34
000000710004EFF0=_ZN12JointAimUtil18updateEyeJointInfoEPN2al9LiveActorEPNS0_12JointAimInfoEff
000000710004F050=_ZN6KameckC2EPKc
000000710004F100=_ZN6KameckC1EPKc
000000710004F1C0=_ZN6Kameck4initERKN2al13ActorInitInfoE
000000710004F590=_ZN6Kameck12killBySwitchEv
000000710004F5D0=_ZN6Kameck6appearEv
000000710004F5E0=_ZN6Kameck4killEv
000000710004F610=_ZN6Kameck12attackSensorEPN2al9HitSensorES2_
000000710004F700=_ZN6Kameck10receiveMsgEPKN2al9SensorMsgEPNS0_9HitSensorES5_
000000710004F970=_ZN6Kameck21receiveMsgScreenPointEPKN2al9SensorMsgEPNS0_13ScreenPointerEPNS0_17ScreenPointTargetE
000000710004FAD0=_ZN6Kameck9exeAppearEv
000000710004FB70=_ZN6Kameck7exeWaitEv
000000710004FD70=_ZNK6Kameck14isTransitionOnEv
000000710004FDC0=_ZN6Kameck14exeAttackStartEv
000000710004FE40=_ZN6Kameck9exeAttackEv
000000710004FFD0=_ZN6Kameck13exeAttackWaitEv
0000007100050020=_ZN6Kameck7exeHideEv
00000071000500E0=_ZN6Kameck15checkTransitionEv
0000007100050170=_ZN6Kameck11exeHideMoveEv
00000071000502E0=_ZN6Kameck25exeHideMoveToNearestPointEv
0000007100050520=_ZNK6Kameck30calcNearestRailPointFromPlayerEv
0000007100050590=_ZNK6Kameck18isCrossTargetCoordEf
0000007100050640=_ZN6Kameck21exeHideMoveTransitionEv
0000007100050820=_ZN6Kameck11exeHideWaitEv
0000007100050870=_ZN6Kameck12exeAttackHitEv
00000071000508B0=_ZN6Kameck12exePressDownEv
0000007100050970=_ZN6Kameck11exeBlowDownEv
00000071000509C0=_ZN6Kameck16exeSupportFreezeEv
0000007100050AB0=_ZN6Kameck14transitionFromEPS_
0000007100050B40=_ZN6KameckD1Ev
0000007100050B50=_ZN6KameckD0Ev
0000007100050DF0=_ZNK2al10FunctorV0MIP6KameckMS1_FvvEEclEv
0000007100050E10=_ZNK2al10FunctorV0MIP6KameckMS1_FvvEE5cloneEv
0000007100050F30=_ZN6KillerC2EPKciP15KillerGeneratorPKN2al24CollisionPartsFilterBaseEf
0000007100050FF0=_ZN6KillerC1EPKciP15KillerGeneratorPKN2al24CollisionPartsFilterBaseEf
00000071000510B0=_ZN6Killer4initERKN2al13ActorInitInfoE
0000007100051290=_ZN6Killer6appearEv
0000007100051340=_ZN6Killer23invalidateAttackSensorsEv
00000071000513B0=_ZN6Killer4killEv
00000071000513E0=_ZN6Killer12killBySwitchEv
0000007100051430=_ZN6Killer12attackSensorEPN2al9HitSensorES2_
0000007100051600=_ZN6Killer10receiveMsgEPKN2al9SensorMsgEPNS0_9HitSensorES5_
0000007100051A70=_ZN6Killer17tryAppearDeadItemEv
0000007100051AC0=_ZN6Killer21receiveMsgScreenPointEPKN2al9SensorMsgEPNS0_13ScreenPointerEPNS0_17ScreenPointTargetE
0000007100051BC0=_ZN6Killer14isNerveFlyWaitEv
0000007100051C30=_ZN6Killer7controlEv
0000007100051CD0=_ZN6Killer14updateColliderEv
0000007100051D40=_ZN6Killer12tryOnCollideEv
0000007100051DA0=_ZN6Killer9exeAppearEv
0000007100051E30=_ZN6Killer10exeStandByEv
0000007100051E70=_ZN6Killer10exeFlyWaitEv
0000007100051F00=_ZN6Killer11exeFallDownEv
0000007100052000=_ZN6Killer14exeHipDropDownEv
00000071000520F0=_ZN6Killer10exeReflectEv
0000007100052160=_ZN6Killer10exeExplodeEv
0000007100052240=_ZN6Killer11exeBlowDownEv
00000071000522D0=_ZN6Killer16exeSupportFreezeEv
0000007100052310=_ZN6Killer12forceStandByEv
0000007100052380=_ZN6Killer18startStandByAppearEv
00000071000523D0=_ZN6Killer12startFlyWaitEv
0000007100052420=_ZN6Killer21validateAttackSensorsEv
0000007100052490=_ZNK6Killer16getStepDisappearEv
00000071000524A0=_ZNK6Killer8getAccelEv
00000071000524B0=_ZNK6Killer12getAccelRateEv
00000071000524C0=_ZN6Killer8isMagnumEi
00000071000524D0=_ZN6Killer8isSearchEi
00000071000524E0=_ZNK6Killer9isStandByEv
00000071000524F0=_ZN6KillerD1Ev
0000007100052500=_ZN6KillerD0Ev
0000007100052790=_ZN15KillerGeneratorC2EPKcPN2al9LiveActorEiPKNS2_24CollisionPartsFilterBaseE
0000007100052860=_ZN15KillerGeneratorC1EPKcPN2al9LiveActorEiPKNS2_24CollisionPartsFilterBaseE
0000007100052930=_ZN15KillerGenerator4initERKN2al13ActorInitInfoE
0000007100052D80=_ZN15KillerGenerator10startShootEv
0000007100052E40=_ZN15KillerGenerator9stopShootEv
0000007100052E50=_ZN15KillerGenerator12killBySwitchEv
0000007100052EF0=_ZN15KillerGenerator4killEv
0000007100052F30=_ZN15KillerGenerator8updateQTERKN4sead7Vector3IfEERKNS0_4QuatIfEE
0000007100052FA0=_ZN15KillerGenerator5shootEv
0000007100053000=_ZN15KillerGenerator18tryStartHostActionEPKc
0000007100053050=_ZNK15KillerGenerator12getAccelRateEv
00000071000530B0=_ZN15KillerGenerator10deactivateEv
00000071000530C0=_ZN15KillerGenerator18killAllKillerForceEv
0000007100053140=_ZN15KillerGenerator7restoreEv
00000071000531D0=_ZN15KillerGenerator11exeDeactiveEv
00000071000531E0=_ZN15KillerGenerator8exeDelayEv
0000007100053290=_ZN15KillerGenerator16exeStandByAppearEv
0000007100053340=_ZN15KillerGenerator18startStandByAppearEv
00000071000533B0=_ZN15KillerGenerator10exeStandByEv
0000007100053440=_ZN15KillerGenerator7exeWaitEv
00000071000534D0=_ZN15KillerGenerator18exeShootKeepAppearEv
0000007100053570=_ZN15KillerGenerator17exeShootKeepShootEv
0000007100053600=_ZN15KillerGeneratorD1Ev
0000007100053610=_ZN15KillerGeneratorD0Ev
0000007100053660=nullsub_35
0000007100053740=_ZNK2al10FunctorV0MIP15KillerGeneratorMS1_FvvEEclEv
0000007100053760=_ZNK2al10FunctorV0MIP15KillerGeneratorMS1_FvvEE5cloneEv
00000071000537B0=_ZN14KillerLauncherC2EPKc
0000007100053830=_ZN14KillerLauncherC1EPKc
00000071000538C0=_ZN14KillerLauncher4initERKN2al13ActorInitInfoE
0000007100053B30=def_7100053B08
0000007100053B60=_ZN14KillerLauncher19updatePoseGeneratorEv
0000007100053BC0=_ZN14KillerLauncher18initAfterPlacementEv
0000007100053BE0=_ZN14KillerLauncher7controlEv
0000007100053C50=_ZN14KillerLauncher10receiveMsgEPKN2al9SensorMsgEPNS0_9HitSensorES5_
0000007100053DB0=_ZN14KillerLauncher19turnRandomDirectionEv
0000007100054180=_ZN14KillerLauncherD1Ev
0000007100054190=_ZN14KillerLauncherD0Ev
00000071000541C0=_ZN14KillerStateFlyC2EP6Killer
0000007100054220=_ZN14KillerStateFly6appearEv
00000071000542B0=_ZN14KillerStateFly4killEv
00000071000542F0=_ZN14KillerStateFly5resetEv
0000007100054300=_ZN14KillerStateFly7restartEv
0000007100054310=_ZN14KillerStateFly15exeFlyWaitStartEv
0000007100054430=_ZN14KillerStateFly10exeFlyWaitEv
0000007100054740=_ZNK14KillerStateFly10getStepFlyEv
00000071000547B0=_ZN14KillerStateFlyD0Ev
0000007100054810=_ZN26WalkerStateFindPlayerParamD2Ev
0000007100054820=_ZN20WalkerStateJumpParamD2Ev
0000007100054830=_ZN6KuriboC2EPKc
00000071000548F0=_ZN6KuriboC1EPKc
00000071000549C0=_ZN6KuriboD2Ev
0000007100054B30=_ZN6KuriboD1Ev
0000007100054B40=_ZN6KuriboD0Ev
0000007100054B70=_ZN6Kuribo7controlEv
0000007100054CE0=_ZN6Kuribo4initERKN2al13ActorInitInfoE
00000071000551C0=_ZN6Kuribo18cancelStayBySwitchEv
00000071000551D0=_ZN6Kuribo12killBySwitchEv
0000007100055250=_ZN6Kuribo14appearBySwitchEv
00000071000552F0=_ZN6Kuribo12attackSensorEPN2al9HitSensorES2_
00000071000555A0=_ZNK6Kuribo12isEnableDownEv
0000007100055630=_ZNK6Kuribo14isEnableAttackEv
0000007100055640=_ZNK6Kuribo18isEnableRouteDokanEv
00000071000556D0=_ZN6Kuribo10receiveMsgEPKN2al9SensorMsgEPNS0_9HitSensorES5_
0000007100055CD0=_ZN6Kuribo21receiveMsgScreenPointEPKN2al9SensorMsgEPNS0_13ScreenPointerEPNS0_17ScreenPointTargetE
0000007100055D90=_ZN6Kuribo7exeWaitEv
0000007100055E40=_ZNK6Kuribo8isActiveEf
0000007100055E90=_ZN6Kuribo7exeFallEv
0000007100055EA0=_ZN6Kuribo9exeWanderEv
0000007100055F10=_ZN6Kuribo13exeFindPlayerEv
0000007100055F20=_ZN6Kuribo8exeChaseEv
0000007100055F70=_ZN6Kuribo9exeAttackEv
0000007100055F80=_ZN6Kuribo12exePressDownEv
0000007100056030=_ZN6Kuribo11exeBlowDownEv
0000007100056090=_ZN6Kuribo16exeSupportFreezeEv
00000071000560D0=_ZN6Kuribo13exeRouteDokanEv
0000007100056110=_ZN6Kuribo18exeRouteDokanDeathEv
0000007100056160=_ZN6Kuribo17exeJumpTrampolineEv
00000071000561D0=_ZN6Kuribo16exeJumpJumpPanelEv
00000071000566B0=_ZNK2al10FunctorV0MIP6KuriboMS1_FvvEEclEv
00000071000566D0=_ZNK2al10FunctorV0MIP6KuriboMS1_FvvEE5cloneEv
0000007100056920=_ZN11KuriboClimbC2EPKc
00000071000569B0=_ZN11KuriboClimbC1EPKc
0000007100056A50=_ZN11KuriboClimb4initERKN2al13ActorInitInfoE
0000007100056D40=_ZN11KuriboClimb7controlEv
0000007100056DB0=_ZN11KuriboClimb4killEv
0000007100056DE0=_ZN11KuriboClimb12attackSensorEPN2al9HitSensorES2_
0000007100056ED0=_ZN11KuriboClimb10receiveMsgEPKN2al9SensorMsgEPNS0_9HitSensorES5_
0000007100057050=_ZN11KuriboClimb21receiveMsgScreenPointEPKN2al9SensorMsgEPNS0_13ScreenPointerEPNS0_17ScreenPointTargetE
0000007100057140=_ZN11KuriboClimb7exeWaitEv
00000071000571E0=_ZN11KuriboClimb9exeWanderEv
0000007100057260=_ZN11KuriboClimb13exeFindPlayerEv
0000007100057270=_ZN11KuriboClimb8exeChaseEv
0000007100057350=_ZN11KuriboClimb13exeBodyAttackEv
0000007100057360=_ZN11KuriboClimb9exeAttackEv
0000007100057370=_ZN11KuriboClimb12exePressDownEv
0000007100057430=_ZN11KuriboClimb11exeBlowDownEv
0000007100057490=_ZN11KuriboClimb16exeSupportFreezeEv
0000007100057530=_ZN11KuriboClimb7exeFallEv
00000071000575B0=_ZN11KuriboClimbD1Ev
00000071000575C0=_ZN11KuriboClimbD0Ev
0000007100057910=_ZN21WalkerStateChaseParamD2Ev
0000007100057920=_ZNK16KuriboClimbParam20getParamTargetFinderEv
0000007100057930=_ZNK16KuriboClimbParam12getParamBaseEv
0000007100057940=_ZNK16KuriboClimbParam14getParamWanderEv
0000007100057950=_ZNK16KuriboClimbParam13getParamChaseEv
0000007100057960=_ZNK16KuriboClimbParam18getParamFindPlayerEv
0000007100057970=_ZNK16KuriboClimbParam16getParamJumpFindEv
0000007100057980=_ZNK16KuriboClimbParam21getParamSupportFreezeEv
0000007100057990=_ZNK16KuriboClimbParam12getPushPowerEv
00000071000579A0=_ZNK16KuriboClimbParam26getBodyAttackStartDistanceEv
0000007100057B10=_ZN15KuriboClimbRailC2EPKc
0000007100057BB0=_ZN15KuriboClimbRailC1EPKc
0000007100057C60=_ZN15KuriboClimbRail4initERKN2al13ActorInitInfoE
0000007100057F60=_ZN15KuriboClimbRail12killBySwitchEv
0000007100057FC0=_ZN15KuriboClimbRail18initAfterPlacementEv
0000007100058090=_ZN15KuriboClimbRail7controlEv
0000007100058170=_ZN15KuriboClimbRail4killEv
00000071000581A0=_ZN15KuriboClimbRail12attackSensorEPN2al9HitSensorES2_
0000007100058250=_ZN15KuriboClimbRail10receiveMsgEPKN2al9SensorMsgEPNS0_9HitSensorES5_
00000071000583D0=_ZN15KuriboClimbRail21receiveMsgScreenPointEPKN2al9SensorMsgEPNS0_13ScreenPointerEPNS0_17ScreenPointTargetE
00000071000584C0=_ZN15KuriboClimbRail7exeTurnEv
00000071000586D0=_ZN15KuriboClimbRail7exeWalkEv
0000007100058950=_ZN15KuriboClimbRail18exeBodyAttackReadyEv
0000007100058960=_ZN15KuriboClimbRail13exeBodyAttackEv
0000007100058C10=_ZN15KuriboClimbRail14exeRecoverTurnEv
0000007100058CF0=_ZN15KuriboClimbRail10exeRecoverEv
0000007100058E90=_ZN15KuriboClimbRail12exePressDownEv
0000007100059010=_ZN15KuriboClimbRail11exeBlowDownEv
0000007100059120=_ZN15KuriboClimbRail16exeSupportFreezeEv
00000071000591F0=_ZN15KuriboClimbRail7exeFallEv
0000007100059290=_ZNK15KuriboClimbRail18isEnableBodyAttackEv
00000071000592A0=_ZN15KuriboClimbRail15startBodyAttackEv
00000071000592B0=_ZN15KuriboClimbRailD1Ev
00000071000592C0=_ZN15KuriboClimbRailD0Ev
0000007100059400=nullsub_36
0000007100059440=_ZNK2al10FunctorV0MIP15KuriboClimbRailMS1_FvvEEclEv
0000007100059460=_ZNK2al10FunctorV0MIP15KuriboClimbRailMS1_FvvEE5cloneEv
0000007100059520=_ZN26KuriboClimbStateBodyAttackC1EPN2al9LiveActorE
0000007100059570=_ZN26KuriboClimbStateBodyAttack6appearEv
00000071000595F0=_ZN26KuriboClimbStateBodyAttack4killEv
0000007100059600=_ZNK26KuriboClimbStateBodyAttack6isWaitEv
0000007100059610=_ZN26KuriboClimbStateBodyAttack7exeWaitEv
0000007100059620=_ZN26KuriboClimbStateBodyAttack18exeAttackJumpStartEv
00000071000596D0=_ZN26KuriboClimbStateBodyAttack13exeAttackJumpEv
0000007100059750=_ZN26KuriboClimbStateBodyAttack14exeAttackStartEv
00000071000597B0=_ZN26KuriboClimbStateBodyAttack13exeAttackWaitEv
00000071000597C0=_ZN26KuriboClimbStateBodyAttack9exeAttackEv
00000071000598A0=_ZN26KuriboClimbStateBodyAttack12exeAttackEndEv
0000007100059900=_ZN26KuriboClimbStateBodyAttackD0Ev
0000007100059AE0=_ZN18KuriboClimbSyncObjC2EPKc
0000007100059B60=_ZN18KuriboClimbSyncObjC1EPKc
0000007100059BE0=_ZN18KuriboClimbSyncObj4initERKN2al13ActorInitInfoE
0000007100059CE0=_ZN18KuriboClimbSyncObj7controlEv
0000007100059E30=_ZN18KuriboClimbSyncObjD1Ev
0000007100059E40=_ZN18KuriboClimbSyncObjD0Ev
0000007100059E70=_ZN11KuriboTowerC2EPKc
0000007100059F20=_ZN11KuriboTowerC1EPKc
0000007100059FE0=_ZN11KuriboTower24calcAppearDoubleMarioNumERKN2al13ActorInitInfoE
000000710005A000=_ZN11KuriboTower4initERKN2al13ActorInitInfoE
000000710005A3D0=_ZNK11KuriboTower11getChildNumEv
000000710005A3E0=_ZN11KuriboTower13setupChildrenEb
000000710005A5C0=_ZN11KuriboTower14onDrawClippingEv
000000710005A630=_ZN11KuriboTower15offDrawClippingEv
000000710005A6A0=_ZN11KuriboTower18updateClippingInfoEv
000000710005A830=_ZNK11KuriboTower9getBottomEv
000000710005A860=_ZN11KuriboTower12attackSensorEPN2al9HitSensorES2_
000000710005A870=_ZN11KuriboTower10receiveMsgEPKN2al9SensorMsgEPNS0_9HitSensorES5_
000000710005A990=_ZN11KuriboTower7controlEv
000000710005A9A0=_ZN11KuriboTower7exeWaitEv
000000710005AAD0=_ZNK11KuriboTower13isHipDroppingEv
000000710005AAE0=_ZN11KuriboTower19requestSurpriseRootEv
000000710005AB10=_ZN11KuriboTower21requestAttackReactionEPN2al9HitSensorE
000000710005AB90=_ZN11KuriboTower12startHipDropEPN2al9LiveActorE
000000710005ABA0=_ZN11KuriboTower8endSleepEv
000000710005ABC0=_ZN11KuriboTower12releaseChildEP15KuriboTowerNode
000000710005AD50=_ZNK11KuriboTower9isContactEPK15KuriboTowerNode
000000710005ADF0=_ZN11KuriboTower11killedChildEP15KuriboTowerNode
000000710005AEC0=_ZNK11KuriboTower19isExterminatedChildEv
000000710005AF40=_ZNK11KuriboTower12isContactTopEPK15KuriboTowerNode
000000710005AFF0=_ZNK11KuriboTower9getParentEPK15KuriboTowerNode
000000710005B020=_ZNK11KuriboTower5isTopEPK15KuriboTowerNode
000000710005B060=_ZNK11KuriboTower6getTopEv
000000710005B090=_ZNK11KuriboTower14isTopChildNodeEPK15KuriboTowerNode
000000710005B120=_ZNK11KuriboTower8isBottomEPK15KuriboTowerNode
000000710005B160=_ZNK11KuriboTower8getChildEi
000000710005B190=_ZNK11KuriboTower18getTowerChildIndexEPK15KuriboTowerNode
000000710005B1B0=_ZNK11KuriboTower20getHipDropDownOffsetEPK15KuriboTowerNode
000000710005B260=_ZN11KuriboTower37revieseVelocityIfExistObstacleForwardEP15KuriboTowerNode
000000710005B570=_ZN11KuriboTower22isExistObstacleForwardERKN4sead7Vector3IfEES4_S4_fff
000000710005B680=_ZN11KuriboTowerD1Ev
000000710005B690=_ZN11KuriboTowerD0Ev
000000710005B6D0=_ZNK2al10FunctorV0MIP11KuriboTowerMS1_FvvEEclEv
000000710005B6F0=_ZNK2al10FunctorV0MIP11KuriboTowerMS1_FvvEE5cloneEv
000000710005B740=_ZN24WalkerStateRailMoveParamD2Ev
000000710005B750=_ZN16KuriboTowerChildC2EPKc
000000710005B800=_ZN16KuriboTowerChildC1EPKc
000000710005B8C0=_ZN16KuriboTowerChild7controlEv
000000710005BB20=_ZNK16KuriboTowerChild12isEnableDownEv
000000710005BBF0=_ZN16KuriboTowerChild4initERKN2al13ActorInitInfoE
000000710005BEA0=_ZN16KuriboTowerChild12setAreaGroupEPN2al12AreaObjGroupE
000000710005BEC0=_ZN16KuriboTowerChild12attackSensorEPN2al9HitSensorES2_
000000710005C070=_ZNK16KuriboTowerChild11isValidPushEv
000000710005C100=_ZN16KuriboTowerChild10receiveMsgEPKN2al9SensorMsgEPNS0_9HitSensorES5_
000000710005C5B0=_ZN16KuriboTowerChild8endSleepEv
000000710005C5C0=_ZN16KuriboTowerChild21receiveMsgScreenPointEPKN2al9SensorMsgEPNS0_13ScreenPointerEPNS0_17ScreenPointTargetE
000000710005C660=_ZN16KuriboTowerChild7endInitEv
000000710005C6D0=_ZN16KuriboTowerChild10exeStandByEv
000000710005C8E0=_ZN16KuriboTowerChild7exeWaitEv
000000710005C9B0=_ZNK16KuriboTowerChild8isActiveEf
000000710005CA00=_ZN16KuriboTowerChild8exeSleepEv
000000710005CA50=_ZN16KuriboTowerChild9exeWanderEv
000000710005CAF0=_ZN16KuriboTowerChild11exeRailMoveEv
000000710005CB50=_ZN16KuriboTowerChild13exeFindPlayerEv
000000710005CB80=_ZN16KuriboTowerChild8exeChaseEv
000000710005CC00=_ZN16KuriboTowerChild9exeAttackEv
000000710005CC60=_ZN16KuriboTowerChild7exeFallEv
000000710005CD70=_ZN16KuriboTowerChild7exeLandEv
000000710005CE10=_ZN16KuriboTowerChild12exePressDownEv
000000710005CED0=_ZN16KuriboTowerChild14exeHipDropDownEv
000000710005D100=_ZN16KuriboTowerChild11exeBlowDownEv
000000710005D220=_ZN16KuriboTowerChild16exeSupportFreezeEv
000000710005D2A0=_ZN16KuriboTowerChild20exeSupportFreezeSyncEv
000000710005D320=_ZN16KuriboTowerChild10exeEatDownEv
000000710005D440=_ZN16KuriboTowerChild10exeSwallowEv
000000710005D4F0=_ZN16KuriboTowerChild11exeSurpriseEv
000000710005D5C0=_ZNK16KuriboTowerChild18isNerveHipDropDownEv
000000710005D5D0=_ZNK16KuriboTowerChild20isNerveSupportFreezeEv
000000710005D5E0=_ZN16KuriboTowerChild19requestRootBehaviorEv
000000710005D660=_ZN16KuriboTowerChild14requestReleaseEv
000000710005D690=_ZN16KuriboTowerChild15requestSurpriseEv
000000710005D770=_ZN16KuriboTowerChild24requestSupportFreezeSyncEv
000000710005D830=_ZN16KuriboTowerChild27requestEndSupportFreezeSyncEv
000000710005D8A0=_ZN16KuriboTowerChild21requestAttackReactionEPN2al9HitSensorE
000000710005D960=_ZNK16KuriboTowerChild10getOffsetYEv
000000710005D970=_ZN16KuriboTowerChild7restoreEv
000000710005D980=_ZN15KuriboTowerNodeD1Ev
000000710005D990=_ZN15KuriboTowerNodeD0Ev
000000710005D9C0=_ZN15KuriboTowerNode7endInitEv
000000710005D9D0=_ZNK15KuriboTowerNode18isNerveHipDropDownEv
000000710005D9E0=_ZN15KuriboTowerNode19requestRootBehaviorEv
000000710005D9F0=_ZN15KuriboTowerNode14requestReleaseEv
000000710005DA00=_ZN15KuriboTowerNode15requestSurpriseEv
000000710005DA10=_ZN15KuriboTowerNode21requestAttackReactionEPN2al9HitSensorE
000000710005DA20=_ZNK15KuriboTowerNode20isNerveSupportFreezeEv
000000710005DA30=_ZN15KuriboTowerNode24requestSupportFreezeSyncEv
000000710005DA40=_ZN15KuriboTowerNode27requestEndSupportFreezeSyncEv
000000710005DA50=_ZNK15KuriboTowerNode10getOffsetYEv
000000710005DA60=_ZN15KuriboTowerNode28isValidSwitchingAttackSensorEv
000000710005DA70=_ZN15KuriboTowerNode29validateSwitchingAttackSensorEv
000000710005DA80=_ZN16KuriboTowerChildD1Ev
000000710005DA90=_ZN16KuriboTowerChildD0Ev
000000710005DFC0=_ZN15KuriboTowerItemC2EPKcS1_b
000000710005E060=_ZN15KuriboTowerItemC1EPKcS1_b
000000710005E110=_ZN15KuriboTowerItem4initERKN2al13ActorInitInfoE
000000710005E2F0=_ZN15KuriboTowerItem18initAfterPlacementEv
000000710005E3C0=_ZN15KuriboTowerItem17updateItemPostureEv
000000710005E460=_ZN15KuriboTowerItem12startClippedEv
000000710005E4B0=_ZN15KuriboTowerItem10endClippedEv
000000710005E500=_ZN15KuriboTowerItem19requestRootBehaviorEv
000000710005E540=_ZN15KuriboTowerItem14requestReleaseEv
000000710005E550=_ZN15KuriboTowerItem10exeStandByEv
000000710005E630=_ZN15KuriboTowerItem7exeFallEv
000000710005E730=_ZN15KuriboTowerItem15exeRootOnGroundEv
000000710005E850=_ZNK15KuriboTowerItem10getOffsetYEv
000000710005E860=_ZN15KuriboTowerItemD1Ev
000000710005E870=_ZN15KuriboTowerItemD0Ev
000000710005E8D0=_ZN15KuriboTowerNodeC2EPKc
000000710005E950=_ZN15KuriboTowerNodeC1EPKc
000000710005E9E0=_ZN15KuriboTowerNode7setHostEP11KuriboTower
000000710005E9F0=_ZN15KuriboTowerNode4killEv
000000710005EA20=_ZNK15KuriboTowerNode9getParentEv
000000710005EA40=_ZN15KuriboTowerNode13updatePostureEv
000000710005EAF0=_ZN15KuriboTowerNode14updateVelocityEv
000000710005EB80=_ZN15KuriboTowerNode23restrictToTowerPositionEv
000000710005ECC0=_ZN8KyoroHeiC2EPKc
000000710005ED90=_ZN8KyoroHeiC1EPKc
000000710005EE70=_ZN8KyoroHei4initERKN2al13ActorInitInfoE
000000710005F120=_ZN8KyoroHei10killSwitchEv
000000710005F160=_ZN8KyoroHei12attackSensorEPN2al9HitSensorES2_
000000710005F260=_ZNK8KyoroHei14isEnableAttackEv
000000710005F2C0=_ZN8KyoroHei10receiveMsgEPKN2al9SensorMsgEPNS0_9HitSensorES5_
000000710005F770=_ZNK8KyoroHei11isHitToBodyEPKN2al9SensorMsgEPNS0_9HitSensorES5_
000000710005F940=_ZNK8KyoroHei16isEnableReactionEv
000000710005F9A0=_ZNK8KyoroHei21isEnableSupportFreezeEv
000000710005FA20=_ZNK8KyoroHei21isInAppearRangePlayerEv
000000710005FAD0=_ZNK8KyoroHei19isInHideRangePlayerEv
000000710005FB50=_ZN8KyoroHei11exeHideWaitEv
000000710005FC20=_ZN8KyoroHei9exeAppearEv
000000710005FC80=_ZN8KyoroHei7exeMoveEv
000000710005FE60=_ZN8KyoroHei7exeStopEv
000000710005FF00=_ZN8KyoroHei16exeAttackSuccessEv
000000710005FF70=_ZN8KyoroHei11exeReactionEv
000000710005FFE0=_ZN8KyoroHei16exeSupportFreezeEv
0000007100060020=_ZN8KyoroHei7exeHideEv
0000007100060080=_ZN8KyoroHeiD1Ev
0000007100060090=_ZN8KyoroHeiD0Ev
00000071000602F0=_ZNK2al10FunctorV0MIP8KyoroHeiMS1_FvvEEclEv
0000007100060310=_ZNK2al10FunctorV0MIP8KyoroHeiMS1_FvvEE5cloneEv
00000071000603B0=_ZN9MagmaFishC2EPKc
00000071000604A0=_ZN9MagmaFishC1EPKc
0000007100060590=_ZN9MagmaFish4initERKN2al13ActorInitInfoE
0000007100060A60=_ZN9MagmaFish20updateJointTransListEv
0000007100060B10=_ZN9MagmaFish5startEv
0000007100060B20=_ZN9MagmaFish12attackSensorEPN2al9HitSensorES2_
0000007100060C30=_ZN9MagmaFish10receiveMsgEPKN2al9SensorMsgEPNS0_9HitSensorES5_
0000007100060CC0=_ZN9MagmaFish21receiveMsgScreenPointEPKN2al9SensorMsgEPNS0_13ScreenPointerEPNS0_17ScreenPointTargetE
0000007100060D20=_ZN9MagmaFish4killEv
0000007100060DE0=_ZN9MagmaFish7exeWaitEv
0000007100060E20=_ZN9MagmaFish13exeAttackSignEv
0000007100060FB0=_ZN9MagmaFish14exeAttackStartEv
0000007100061040=_ZN9MagmaFish19updateJointSyncRailEv
0000007100061810=_ZN9MagmaFish17updateEffectAndSeEv
00000071000619F0=_ZN9MagmaFish9exeAttackEv
0000007100061A80=_ZN9MagmaFish12exeAttackEndEv
0000007100061B20=_ZN9MagmaFish7exeStopEv
0000007100061B60=_ZN9MagmaFish29tryEmitEffectCheckStrikeArrowERKN4sead7Vector3IfEES4_S4_
0000007100061C80=_ZN9MagmaFishD1Ev
0000007100061C90=_ZN9MagmaFishD0Ev
0000007100061E10=_ZNK2al10FunctorV0MIP9MagmaFishMS1_FvvEEclEv
0000007100061E30=_ZNK2al10FunctorV0MIP9MagmaFishMS1_FvvEE5cloneEv
0000007100061E80=_ZN23MagmaFishCollisionTableC2Ev
0000007100061E90=_ZN23MagmaFishCollisionTable10receiveMsgEPKN2al9SensorMsgEPNS0_9HitSensorES5_
0000007100062090=_ZN23MagmaFishCollisionTable10isRegistedEPKN2al9HitSensorE
00000071000620D0=_ZN23MagmaFishCollisionTable6registEPKN2al9HitSensorE
0000007100062120=_ZN23MagmaFishCollisionTable6mallocEj
0000007100062150=_ZN23MagmaFishCollisionTable5clearEv
0000007100062180=_ZN6ManeckC2EPKc
0000007100062240=_ZN6ManeckC1EPKc
0000007100062310=_ZN6Maneck4initERKN2al13ActorInitInfoE
00000071000624D0=_ZN6Maneck3endEv
0000007100062590=_ZN6Maneck5startEv
00000071000625E0=_ZN6Maneck17GetFarthestPlayerEv
00000071000626E0=_ZN6Maneck4killEv
0000007100062710=_ZN6Maneck7controlEv
0000007100062B70=_ZN6Maneck13isMimicActionEv
0000007100062B80=_ZN6Maneck14isMimicPostureEv
0000007100062BE0=_ZN6Maneck4hideEb
0000007100062C40=_ZN6Maneck11exeWaitPlayEv
0000007100062D80=_ZN6Maneck16updateVisibilityEbiPKN2al5NerveE
0000007100062E20=_ZN6Maneck7exePlayEv
0000007100062F60=_ZN6Maneck4showEv
0000007100062FA0=_ZN6Maneck22exeWaitHideForRetargetEv
0000007100063030=_ZN6Maneck16exeWaitDisappearEv
00000071000630F0=_ZN6Maneck12exeDisappearEv
0000007100063160=_ZN6Maneck9exeDamageEv
00000071000631D0=_ZN6Maneck6exeDieEv
00000071000631E0=_ZN6Maneck13setKillManeckEib
0000007100063200=_ZN6Maneck15setAppearManeckEi
0000007100063230=_ZN6Maneck18setDisappearManeckEv
0000007100063280=_ZNK6Maneck26getInvincibleAnimFrameRateEv
0000007100063290=_ZNK6Maneck15HasActiveTargetEv
00000071000632A0=_ZN6Maneck10receiveMsgEPKN2al9SensorMsgEPNS0_9HitSensorES5_
00000071000633E0=_ZN6Maneck12attackSensorEPN2al9HitSensorES2_
0000007100063490=_ZN6Maneck26setKinopioMemberNpcWatcherEP23KinopioMemberNpcWatcher
00000071000634A0=_ZN6ManeckD1Ev
00000071000634B0=_ZN6ManeckD0Ev
0000007100063550=nullsub_37
0000007100063600=_ZNK2al10FunctorV0MIP6ManeckMS1_FvvEEclEv
0000007100063620=_ZNK2al10FunctorV0MIP6ManeckMS1_FvvEE5cloneEv
0000007100063670=_ZN14ManeckRecorderC2Ev
00000071000636B0=_ZN14ManeckRecorderD2Ev
00000071000636D0=_ZN14ManeckRecorder26initAfterPlacementSceneObjERKN2al13ActorInitInfoE
0000007100063770=_ZN14ManeckRecorder6updateEv
0000007100063F10=_ZN14ManeckRecorder14getPlayerActorEi
0000007100063F40=_ZN14ManeckRecorder21getClosestPlayerActorEv
0000007100064030=_ZN14ManeckRecorder13isPlayerMovedEv
00000071000640C0=_ZN14ManeckRecorder9setManeckEP6Maneck
00000071000640E0=_ZN14ManeckRecorder10initializeEjfPKN2al12PlayerHolderE
0000007100064180=_ZN14ManeckRecorder13setChaseActorEPKN2al9LiveActorE
00000071000641A0=_ZN14ManeckRecorder12setActorPoseEP6Maneckbbj
0000007100064520=_ZN14ManeckRecorder17isEnableLastFrameEi
0000007100064580=_ZN14ManeckRecorder15setDisableFrameEPKN2al18IUseSceneObjHolderEi
00000071000645C0=_ZN14ManeckRecorder13setKillManeckEib
00000071000645D0=_ZN14ManeckRecorder15setAppearManeckEi
00000071000645E0=_ZN14ManeckRecorder20isChaseActorOnGroundEv
00000071000645F0=_ZN14ManeckRecorder16switchChaseActorEv
0000007100064650=_ZN14ManeckRecorder10stopManeckEi
0000007100064660=_ZN14ManeckRecorder11startManeckEi
0000007100064670=_ZN14ManeckRecorder20isPlayerNotAvailableEf
0000007100064700=_ZN14ManeckRecorder20isPlayerNeedMoreTimeEv
0000007100064750=_ZN14ManeckRecorder18isPlayerInWarpCubeEv
00000071000647C0=_ZN14ManeckRecorder15getNumFollowersEv
00000071000647D0=_ZNK2al9ISceneObj15getSceneObjNameEv
00000071000647E0=_ZNK2al10FunctorV0MIP14ManeckRecorderMS1_FvvEEclEv
0000007100064800=_ZNK2al10FunctorV0MIP14ManeckRecorderMS1_FvvEE5cloneEv
0000007100064850=_ZN6MoamoaC2EPKcPK12MoamoaHolder
00000071000648F0=_ZN6MoamoaC1EPKcPK12MoamoaHolder
0000007100064990=_ZN6Moamoa4initERKN2al13ActorInitInfoE
0000007100064B40=_ZN6Moamoa7controlEv
0000007100064C80=_ZN6Moamoa12attackSensorEPN2al9HitSensorES2_
0000007100064D40=_ZN6Moamoa10receiveMsgEPKN2al9SensorMsgEPNS0_9HitSensorES5_
0000007100064F70=_ZN6Moamoa21receiveMsgScreenPointEPKN2al9SensorMsgEPNS0_13ScreenPointerEPNS0_17ScreenPointTargetE
0000007100065040=_ZN6Moamoa7exeWaitEv
00000071000650A0=_ZN6Moamoa6exeDieEv
0000007100065120=_ZN6Moamoa14exeMicWeakInitEv
0000007100065160=_ZN6Moamoa7exeWeakEv
00000071000652E0=_ZN6Moamoa11exeWeakWaitEv
0000007100065350=_ZN6Moamoa14exeRevivalSignEv
00000071000653B0=_ZN6Moamoa10exeRevivalEv
0000007100065480=_ZN6MoamoaD1Ev
0000007100065490=_ZN6MoamoaD0Ev
0000007100065820=_ZN12MoamoaHolderC2EPKc
00000071000658B0=_ZN12MoamoaHolderC1EPKc
0000007100065940=_ZN12MoamoaHolder4initERKN2al13ActorInitInfoE
0000007100065CB0=_ZN12MoamoaHolder16validateLookCtrlEv
0000007100065CC0=_ZN12MoamoaHolder18invalidateLookCtrlEv
0000007100065CD0=_ZN12MoamoaHolderD1Ev
0000007100065CE0=_ZN12MoamoaHolderD0Ev
0000007100065D10=_ZNK2al10FunctorV0MIP12MoamoaHolderMS1_FvvEEclEv
0000007100065D30=_ZNK2al10FunctorV0MIP12MoamoaHolderMS1_FvvEE5cloneEv
0000007100065D80=_ZN6MokingC2EPKcP12MokingLeader
0000007100065E70=_ZN6MokingC1EPKcP12MokingLeader
0000007100065F60=_ZN6Moking4initERKN2al13ActorInitInfoE
0000007100066180=_ZN6Moking7controlEv
0000007100066190=_ZN6Moking12attackSensorEPN2al9HitSensorES2_
0000007100066300=_ZNK6Moking7isDyingEv
0000007100066360=_ZN6Moking10receiveMsgEPKN2al9SensorMsgEPNS0_9HitSensorES5_
00000071000666C0=_ZN6Moking21receiveMsgScreenPointEPKN2al9SensorMsgEPNS0_13ScreenPointerEPNS0_17ScreenPointTargetE
0000007100066770=_ZNK6Moking13isFoundPlayerEv
0000007100066780=_ZNK6Moking11isAttackingEv
0000007100066830=_ZNK6Moking9isTurningEv
0000007100066840=_ZNK6Moking18isEndSupportFreezeEv
0000007100066850=_ZN6Moking11startAttackEv
00000071000668C0=_ZN6Moking9startTurnEv
0000007100066960=_ZN6Moking21tryStartSupportFreezeEv
0000007100066A70=_ZN6Moking20endSupportFreezeWaitEv
0000007100066AF0=_ZN6Moking23requestSwitchClippingOnEv
0000007100066B60=_ZN6Moking24requestSwitchClippingOffEv
0000007100066BA0=_ZN6Moking11exeMoveRailEv
0000007100066D30=_ZN6Moking24changeNerveIfPlayerFoundEv
0000007100066FE0=_ZN6Moking11exeTurnRailEv
00000071000670F0=_ZN6Moking7exeWaitEv
0000007100067180=_ZN6Moking14exeFoundPlayerEv
00000071000671C0=_ZN6Moking13exeAttackSignEv
00000071000672B0=_ZN6Moking9exeAttackEv
0000007100067460=_ZN6Moking26tryAttackToCollidedObjectsEPN2al9HitSensorE
00000071000675E0=_ZN6Moking13exeAttackLandEv
0000007100067690=_ZN6Moking41sendMsgBallAttackCollideToCollidedObjectsEv
0000007100067750=_ZN6Moking14exeAttackGuardEv
00000071000677B0=_ZN6Moking13exeReturnRailEv
00000071000679B0=_ZN6Moking16exeReturnRailEndEv
0000007100067AC0=_ZN6Moking12exePressDownEv
0000007100067B30=_ZN6Moking11exeBlowDownEv
0000007100067B80=_ZN6Moking16exeSupportFreezeEv
0000007100067C90=_ZN6Moking20exeSupportFreezeWaitEv
0000007100067CA0=_ZNK6Moking13isPlayerFoundEv
0000007100067D30=_ZNK6Moking28calcTargetLenghtFrontAndSideEPfS0_
0000007100067E50=_ZN6MokingD1Ev
0000007100067E60=_ZN6MokingD0Ev
0000007100067FA0=nullsub_38
00000071000681B0=_ZN12MokingLeaderC2EPKc
0000007100068240=_ZN12MokingLeaderC1EPKc
00000071000682E0=_ZN12MokingLeader4initERKN2al13ActorInitInfoE
00000071000684D0=_ZN12MokingLeader9killForceEv
0000007100068530=_ZN12MokingLeader17makeActorAppearedEv
0000007100068590=_ZN12MokingLeader13makeActorDeadEv
00000071000685F0=_ZN12MokingLeader7controlEv
00000071000686A0=_ZNK12MokingLeader14isChildAllDeadEv
0000007100068730=_ZN12MokingLeader30receiveMsgTouchAssistFromChildEv
00000071000687E0=_ZN12MokingLeader21tryStartSupportFreezeEv
0000007100068850=_ZN12MokingLeader8exeWatchEv
00000071000689E0=_ZNK12MokingLeader14isAttackingAnyEb
0000007100068AD0=_ZNK12MokingLeader12isTurningAnyEv
0000007100068B60=_ZN12MokingLeader19exeStopAllForAttackEv
0000007100068C40=_ZN12MokingLeader17exeStopAllForTurnEv
0000007100068DD0=_ZN12MokingLeader16exeSupportFreezeEv
0000007100068EE0=_ZNK12MokingLeader18isEndSupportFreezeEv
0000007100068F60=_ZNK12MokingLeader16isFoundPlayerAnyEv
0000007100068FE0=_ZN12MokingLeaderD1Ev
0000007100068FF0=_ZN12MokingLeaderD0Ev
0000007100069060=_ZNK2al10FunctorV0MIP12MokingLeaderMS1_FvvEEclEv
0000007100069080=_ZNK2al10FunctorV0MIP12MokingLeaderMS1_FvvEE5cloneEv
00000071000690D0=_ZN10NeedleSeedC2EPKc
0000007100069150=_ZN10NeedleSeedC1EPKc
00000071000691D0=_ZN10NeedleSeed4initERKN2al13ActorInitInfoE
0000007100069240=_ZN10NeedleSeed12attackSensorEPN2al9HitSensorES2_
00000071000692B0=_ZN10NeedleSeed10receiveMsgEPKN2al9SensorMsgEPNS0_9HitSensorES5_
0000007100069480=_ZN10NeedleSeed7exeWaitEv
00000071000694C0=_ZN10NeedleSeed8exeBreakEv
0000007100069540=_ZN10NeedleSeedD1Ev
0000007100069550=_ZN10NeedleSeedD0Ev
0000007100069640=_ZN24ItemStatePopUpFrontParamD2Ev
0000007100069650=_ZN6NukkunC2EPKc
0000007100069730=_ZN6NukkunC1EPKc
0000007100069820=_ZN6Nukkun4initERKN2al13ActorInitInfoE
0000007100069C80=_ZN6Nukkun18initAfterPlacementEv
0000007100069CB0=_ZN6Nukkun7controlEv
0000007100069E70=_ZN6Nukkun14updateColliderEv
0000007100069EC0=_ZN6Nukkun4killEv
0000007100069ED0=_ZN6Nukkun12attackSensorEPN2al9HitSensorES2_
000000710006A2A0=_ZN6Nukkun10receiveMsgEPKN2al9SensorMsgEPNS0_9HitSensorES5_
000000710006ADD0=_ZN6Nukkun21receiveMsgScreenPointEPKN2al9SensorMsgEPNS0_13ScreenPointerEPNS0_17ScreenPointTargetE
000000710006B0E0=_ZN6Nukkun14exeWatchInAreaEv
000000710006B170=_ZN6Nukkun16exeWaitDelayTimeEv
000000710006B300=_ZN6Nukkun12exePopUpSignEv
000000710006B360=_ZN6Nukkun14exePopUpAppearEv
000000710006B4C0=_ZN6Nukkun8exeCarryEv
000000710006B550=_ZN6Nukkun8exeThrowEv
000000710006B600=_ZN6Nukkun17exeParabolicThrowEv
000000710006B660=_ZN6Nukkun13exeAttackSignEv
000000710006B6C0=_ZN6Nukkun9exeAttackEv
000000710006B7F0=_ZN6Nukkun12exeAttackEndEv
000000710006B850=_ZN6Nukkun13exeAttackWaitEv
000000710006B8B0=_ZN6Nukkun7exeHideEv
000000710006B930=_ZN6Nukkun16exeWaitAfterHideEv
000000710006B990=_ZN6Nukkun11exeBlowDownEv
000000710006BA20=_ZN6Nukkun18exeBlowDownCollideEv
000000710006BAB0=_ZN6Nukkun11exeReactionEv
000000710006BB10=_ZN6Nukkun16exeSupportFreezeEv
000000710006BB20=_ZN6Nukkun6exeDieEv
000000710006BB50=_ZN6Nukkun13exeAppearSignEv
000000710006BBF0=_ZN6Nukkun9exeAppearEv
000000710006BC60=_ZN6Nukkun13exeAppearWaitEv
000000710006BCA0=_ZN6Nukkun12exePressDownEv
000000710006BD20=_ZN6NukkunD1Ev
000000710006BD30=_ZN6NukkunD0Ev
000000710006BD60=_ZNK6Nukkun14getOwnerSensorEv
000000710006C560=_ZN10NukkunBombC2EPKc
000000710006C5E0=_ZN10NukkunBombC1EPKc
000000710006C660=_ZN10NukkunBomb4initERKN2al13ActorInitInfoE
000000710006C6E0=_ZN10NukkunBomb12attackSensorEPN2al9HitSensorES2_
000000710006C830=_ZN10NukkunBomb10receiveMsgEPKN2al9SensorMsgEPNS0_9HitSensorES5_
000000710006C950=_ZN10NukkunBomb5shootEPKN2al9LiveActorEPKN4sead8Matrix34IfEERKNS4_7Vector3IfEE
000000710006CC10=_ZN10NukkunBomb7exeMoveEv
000000710006CD00=_ZN10NukkunBombD1Ev
000000710006CD10=_ZN10NukkunBombD0Ev
000000710006CD50=_ZN10NukkunHoleC2EPKc
000000710006CDE0=_ZN10NukkunHoleC1EPKc
000000710006CE80=_ZN10NukkunHole4initERKN2al13ActorInitInfoE
000000710006CF00=_ZN10NukkunHole18initAfterPlacementEv
000000710006CF10=_ZN10NukkunHole7controlEv
000000710006CF50=_ZN10NukkunHole7restoreEv
000000710006CFD0=_ZN10NukkunHoleD1Ev
000000710006CFE0=_ZN10NukkunHoleD0Ev
000000710006D010=_ZN10PackunFireC2EPKc
000000710006D0B0=_ZN10PackunFireC1EPKc
000000710006D160=_ZN10PackunFire4initERKN2al13ActorInitInfoE
000000710006D3C0=_ZN10PackunFire12killBySwitchEv
000000710006D430=_ZN10PackunFire18initAfterPlacementEv
000000710006D440=_ZN10PackunFire7controlEv
000000710006D540=_ZN10PackunFire4killEv
000000710006D5A0=_ZN10PackunFire12attackSensorEPN2al9HitSensorES2_
000000710006D650=_ZN10PackunFire10receiveMsgEPKN2al9SensorMsgEPNS0_9HitSensorES5_
000000710006D9F0=_ZN10PackunFire21receiveMsgScreenPointEPKN2al9SensorMsgEPNS0_13ScreenPointerEPNS0_17ScreenPointTargetE
000000710006DA80=_ZN10PackunFire7exeWaitEv
000000710006DB90=_ZN10PackunFire9exeSearchEv
000000710006DCD0=_ZNK10PackunFire14checkFrontWallEv
000000710006DDA0=_ZN10PackunFire13exeAttackSignEv
000000710006DEE0=_ZN10PackunFire9exeAttackEv
000000710006E010=_ZN10PackunFire12exeAttackHitEv
000000710006E070=_ZN10PackunFire12exePressDownEv
000000710006E120=_ZN10PackunFire11exeBlowDownEv
000000710006E200=_ZN10PackunFire16exeSupportFreezeEv
000000710006E240=_ZN10PackunFireD1Ev
000000710006E250=_ZN10PackunFireD0Ev
000000710006E380=_ZNK2al10FunctorV0MIP10PackunFireMS1_FvvEEclEv
000000710006E3A0=_ZNK2al10FunctorV0MIP10PackunFireMS1_FvvEE5cloneEv
000000710006E450=_ZN18PackunFireFireBallC2EPN2al9LiveActorE
000000710006E500=_ZN18PackunFireFireBallC1EPN2al9LiveActorE
000000710006E5A0=_ZN18PackunFireFireBall4initERKN2al13ActorInitInfoE
000000710006E660=_ZN18PackunFireFireBall12attackSensorEPN2al9HitSensorES2_
000000710006E790=_ZN18PackunFireFireBall10receiveMsgEPKN2al9SensorMsgEPNS0_9HitSensorES5_
000000710006E8B0=_ZN18PackunFireFireBall21receiveMsgScreenPointEPKN2al9SensorMsgEPNS0_13ScreenPointerEPNS0_17ScreenPointTargetE
000000710006E9E0=_ZN18PackunFireFireBall12killBySwitchEv
000000710006EA30=_ZN18PackunFireFireBall8setParamEPKN4sead8Matrix34IfEERKNS0_4QuatIfEEf
000000710006EB30=_ZN18PackunFireFireBall6appearEv
000000710006EBE0=_ZN18PackunFireFireBall7exeMoveEv
000000710006ED30=_ZN18PackunFireFireBall13exeRouteDokanEv
000000710006EE00=_ZN18PackunFireFireBallD1Ev
000000710006EE10=_ZN18PackunFireFireBallD0Ev
000000710006EF00=_ZN12PackunFlowerC2EPKc
000000710006EFF0=_ZN12PackunFlowerC1EPKc
000000710006F0F0=_ZN12PackunFlower4initERKN2al13ActorInitInfoE
000000710006F310=_ZN12PackunFlower12killBySwitchEv
000000710006F340=_ZN12PackunFlower18initAfterPlacementEv
000000710006F4B0=_ZN12PackunFlower7controlEv
000000710006F6A0=_ZN12PackunFlower14isEnableAttackEv
000000710006F700=_ZN12PackunFlower12attackSensorEPN2al9HitSensorES2_
000000710006F890=_ZN12PackunFlower9isDamagedEv
000000710006F8F0=_ZN12PackunFlower10receiveMsgEPKN2al9SensorMsgEPNS0_9HitSensorES5_
0000007100070060=_ZN12PackunFlower14checkCollisionEPKN2al9SensorMsgEPNS0_9HitSensorES5_
0000007100070140=_ZN12PackunFlower14tryAppearTraceEv
0000007100070190=_ZN12PackunFlower21receiveMsgScreenPointEPKN2al9SensorMsgEPNS0_13ScreenPointerEPNS0_17ScreenPointTargetE
0000007100070380=_ZN12PackunFlower8exeSleepEv
00000071000703E0=_ZNK12PackunFlower24isPlayerInFindableDomainEv
0000007100070530=_ZN12PackunFlower7exeFindEv
0000007100070590=_ZN12PackunFlower7exeWaitEv
0000007100070700=_ZN12PackunFlower7exeTurnEv
0000007100070820=_ZN12PackunFlower9isInSightEv
00000071000708F0=_ZN12PackunFlower11exeTurnFastEv
0000007100070AA0=_ZN12PackunFlower9exeAttackEv
0000007100070BB0=_ZN12PackunFlower14exeAfterAttackEv
0000007100070C10=_ZN12PackunFlower12exePressDownEv
0000007100070CE0=_ZN12PackunFlower11exeBlowDownEv
0000007100070D90=_ZN12PackunFlower16exeSupportFreezeEv
0000007100070DE0=_ZN12PackunFlower21exeSupportFreezeSwoonEv
0000007100070E20=_ZN12PackunFlower11exeTrampledEv
0000007100070EF0=_ZN12PackunFlower8exeSwoonEv
0000007100070F50=_ZN12PackunFlower11exeSwoonEndEv
0000007100070FC0=_ZN12PackunFlower9exeDamageEv
0000007100071030=_ZN12PackunFlowerD1Ev
0000007100071040=_ZN12PackunFlowerD0Ev
00000071000713D0=_ZNK2al10FunctorV0MIP12PackunFlowerMS1_FvvEEclEv
00000071000713F0=_ZNK2al10FunctorV0MIP12PackunFlowerMS1_FvvEE5cloneEv
00000071000714D0=_ZN16PackunFlowerHeadC2EPKc
0000007100071550=_ZN16PackunFlowerHeadC1EPKc
00000071000715D0=_ZN16PackunFlowerHead4initERKN2al13ActorInitInfoE
0000007100071650=_ZN16PackunFlowerHead5startEv
00000071000716C0=_ZN16PackunFlowerHead14isEnableAppearEv
00000071000716D0=_ZN16PackunFlowerHead7exeWaitEv
0000007100071710=_ZN16PackunFlowerHead8exeEatGoEv
0000007100071890=_ZN16PackunFlowerHead6exeEatEv
00000071000718D0=_ZN16PackunFlowerHead10exeEatBackEv
00000071000719C0=_ZN16PackunFlowerHeadD1Ev
00000071000719D0=_ZN16PackunFlowerHeadD0Ev
0000007100071AB0=_ZN19PackunFlowerWithPotC2EPKc
0000007100071B60=_ZN19PackunFlowerWithPotC1EPKc
0000007100071C20=_ZN19PackunFlowerWithPot4initERKN2al13ActorInitInfoE
0000007100071F20=_ZN19PackunFlowerWithPot18initAfterPlacementEv
0000007100071F30=_ZN19PackunFlowerWithPot7controlEv
0000007100072120=_ZN19PackunFlowerWithPot14isEnableAttackEv
00000071000721D0=_ZN19PackunFlowerWithPot17makeActorAppearedEv
0000007100072210=_ZN19PackunFlowerWithPot6appearEv
0000007100072290=_ZN19PackunFlowerWithPot13makeActorDeadEv
00000071000722C0=_ZN19PackunFlowerWithPot4killEv
0000007100072330=_ZN19PackunFlowerWithPot14updateColliderEv
0000007100072380=_ZN19PackunFlowerWithPot12attackSensorEPN2al9HitSensorES2_
0000007100072520=_ZN19PackunFlowerWithPot6isDownEv
0000007100072570=_ZN19PackunFlowerWithPot10receiveMsgEPKN2al9SensorMsgEPNS0_9HitSensorES5_
00000071000728C0=_ZN19PackunFlowerWithPot21receiveMsgScreenPointEPKN2al9SensorMsgEPNS0_13ScreenPointerEPNS0_17ScreenPointTargetE
0000007100072A10=_ZN19PackunFlowerWithPot8exeSleepEv
0000007100072A50=_ZN19PackunFlowerWithPot7exeFindEv
0000007100072AB0=_ZN19PackunFlowerWithPot7exeWaitEv
0000007100072BA0=_ZN19PackunFlowerWithPot7exeTurnEv
0000007100072C70=_ZN19PackunFlowerWithPot11exeTurnFastEv
0000007100072DD0=_ZN19PackunFlowerWithPot9exeAttackEv
0000007100072E30=_ZN19PackunFlowerWithPot14exeAfterAttackEv
0000007100072E90=_ZN19PackunFlowerWithPot7exeHoldEv
0000007100072EA0=_ZN19PackunFlowerWithPot10exeReleaseEv
0000007100073050=_ZN19PackunFlowerWithPot7exeLandEv
00000071000730B0=_ZN19PackunFlowerWithPot12exePressDownEv
00000071000731A0=_ZN19PackunFlowerWithPot11exeBlowDownEv
0000007100073260=_ZN19PackunFlowerWithPot16exeSupportFreezeEv
00000071000732A0=_ZN19PackunFlowerWithPotD1Ev
00000071000732B0=_ZN19PackunFlowerWithPotD0Ev
0000007100073550=_ZN15PackunStateHoldC1EPN2al9LiveActorEPP16PackunFlowerHead
00000071000735B0=_ZN15PackunStateHold4initEv
0000007100073600=_ZN15PackunStateHold6appearEv
0000007100073680=_ZN15PackunStateHold4killEv
00000071000736C0=_ZN15PackunStateHold7controlEv
0000007100073730=_ZN15PackunStateHold12attackSensorEPN2al9HitSensorES2_
0000007100073A10=_ZN15PackunStateHold10receiveMsgEPKN2al9SensorMsgEPNS0_9HitSensorES5_
0000007100073B90=_ZN15PackunStateHold13tryStartCarryEPKN2al9SensorMsgEPNS0_9HitSensorE
0000007100073BE0=_ZN15PackunStateHold19initColliderControlEv
0000007100073C20=_ZN15PackunStateHold14updateColliderEPN2al9HitSensorE
0000007100073C30=_ZN15PackunStateHold13exeCarryStartEv
0000007100073E40=_ZN15PackunStateHold16setHoldPosAndDirEv
0000007100074020=_ZN15PackunStateHold7exeHoldEv
0000007100074200=_ZN15PackunStateHold6exeEatEv
0000007100074410=_ZN15PackunStateHold13exeEatStandByEv
0000007100074670=_ZN15PackunStateHold10exeSwallowEv
0000007100074880=_ZN15PackunStateHoldD0Ev
0000007100074B60=_ZN11PackunTraceC2EPN2al9LiveActorE
0000007100074C10=_ZN11PackunTraceC1EPN2al9LiveActorE
0000007100074CB0=_ZN11PackunTrace4initERKN2al13ActorInitInfoE
0000007100074D20=_ZN11PackunTrace18initAfterPlacementEv
0000007100074D30=_ZN11PackunTrace7controlEv
0000007100074E80=_ZN11PackunTrace6appearEv
0000007100074EC0=_ZN11PackunTrace10receiveMsgEPKN2al9SensorMsgEPNS0_9HitSensorES5_
0000007100074F40=_ZN11PackunTraceD1Ev
0000007100074F50=_ZN11PackunTraceD0Ev
0000007100074F80=_ZN14PackunTraceBigC2EPN2al9LiveActorE
0000007100075030=_ZN14PackunTraceBigC1EPN2al9LiveActorE
00000071000750D0=_ZN14PackunTraceBig4initERKN2al13ActorInitInfoE
0000007100075150=_ZN14PackunTraceBig18initAfterPlacementEv
0000007100075160=_ZN14PackunTraceBig7controlEv
00000071000752B0=_ZN14PackunTraceBig6appearEv
00000071000752F0=_ZN14PackunTraceBig12attackSensorEPN2al9HitSensorES2_
0000007100075330=_ZN14PackunTraceBig10receiveMsgEPKN2al9SensorMsgEPNS0_9HitSensorES5_
0000007100075470=_ZN14PackunTraceBig9exeAppearEv
00000071000754D0=_ZN14PackunTraceBig7exeWaitEv
0000007100075510=_ZN14PackunTraceBig11exeReactionEv
0000007100075570=_ZN14PackunTraceBigD1Ev
0000007100075580=_ZN14PackunTraceBigD0Ev
00000071000756B0=_ZN10PipePackunC2EPKc
00000071000757A0=_ZN10PipePackunC1EPKc
0000007100075890=_ZN10PipePackun4killEv
00000071000758C0=_ZN10PipePackun4initERKN2al13ActorInitInfoE
0000007100075E20=_ZN10PipePackun5startEv
0000007100075E90=_ZN10PipePackun10killSwitchEv
0000007100075EE0=_ZN10PipePackun13makeActorDeadEv
0000007100075F30=_ZN10PipePackun12attackSensorEPN2al9HitSensorES2_
0000007100076020=_ZNK10PipePackun14isEnableAttackEv
0000007100076130=_ZN10PipePackun10receiveMsgEPKN2al9SensorMsgEPNS0_9HitSensorES5_
0000007100076420=_ZNK10PipePackun15isEnableTrampleEPKN2al9SensorMsgE
0000007100076530=_ZN10PipePackun21receiveMsgScreenPointEPKN2al9SensorMsgEPNS0_13ScreenPointerEPNS0_17ScreenPointTargetE
0000007100076730=_ZNK10PipePackun11isNerveWaitEv
00000071000767D0=_ZNK10PipePackun21isEnableSupportFreezeEv
0000007100076840=_ZN10PipePackun19hitInvincibleAttackEPKN2al9SensorMsgEPNS0_9HitSensorE
0000007100076900=_ZThn264_N10PipePackun19hitInvincibleAttackEPKN2al9SensorMsgEPNS0_9HitSensorE
0000007100076910=_ZNK10PipePackun11calcSideDirEPN4sead7Vector3IfEE
0000007100076920=_ZThn264_NK10PipePackun11calcSideDirEPN4sead7Vector3IfEE
0000007100076930=_ZN10PipePackun7controlEv
0000007100076B50=_ZN10PipePackun7exeWaitEv
0000007100076B90=_ZN10PipePackun13exeSleepStartEv
0000007100076BF0=_ZN10PipePackun8exeSleepEv
0000007100076C30=_ZN10PipePackun7exeMoveEv
0000007100076E00=_ZN10PipePackun11exeTrampledEv
0000007100076F80=_ZN10PipePackun16exeAttackSuccessEv
0000007100076FF0=_ZN10PipePackun16exeSupportFreezeEv
0000007100077050=_ZN10PipePackun7exeDownEv
0000007100077180=_ZN10PipePackunD1Ev
0000007100077190=_ZN10PipePackunD0Ev
00000071000771C0=_ZNK10PipePackun14isDamageType2DEv
00000071000771D0=_ZThn264_NK10PipePackun14isDamageType2DEv
00000071000773F0=_ZNK2al10FunctorV0MIP10PipePackunMS1_FvvEEclEv
0000007100077410=_ZNK2al10FunctorV0MIP10PipePackunMS1_FvvEE5cloneEv
00000071000774B0=_ZN14PipePackunBodyC2EP18IUsePipePackunHostPKc
0000007100077540=_ZN14PipePackunBodyC1EP18IUsePipePackunHostPKc
00000071000775C0=_ZN14PipePackunBody4killEv
0000007100077620=_ZN14PipePackunBody10killSwitchEv
0000007100077670=_ZN14PipePackunBody4initERKN2al13ActorInitInfoE
0000007100077840=_ZN14PipePackunBody7exeWaitEv
0000007100077850=_ZNK14PipePackunBody13calcPosAndDirEPN4sead7Vector3IfEES3_f
0000007100077910=_ZN14PipePackunBody8setCoordEf
0000007100077970=_ZNK14PipePackunBody13calcNearCoordERKN4sead7Vector3IfEE
0000007100077A00=_ZNK14PipePackunBody18calcClippingSphereEPN4sead7Vector3IfEEPfRKS2_f
0000007100077AC0=_ZN14PipePackunBodyD1Ev
0000007100077AD0=_ZN14PipePackunBodyD0Ev
0000007100077B00=nullsub_39
0000007100077B10=_ZN19PipePackunBodyPartsC2EP18IUsePipePackunHostPKc
0000007100077BC0=_ZN19PipePackunBodyPartsC1EP18IUsePipePackunHostPKc
0000007100077C70=_ZN19PipePackunBodyParts4initERKN2al13ActorInitInfoE
0000007100077D30=_ZNK19PipePackunBodyParts10isStraightEv
0000007100077D40=_ZN19PipePackunBodyParts11isHitToBodyEPN2al9HitSensorES2_PN4sead7Vector3IfEES6_
0000007100077F90=_ZN19PipePackunBodyParts12attackSensorEPN2al9HitSensorES2_
0000007100078010=_ZN19PipePackunBodyParts10receiveMsgEPKN2al9SensorMsgEPNS0_9HitSensorES5_
0000007100078100=_ZN19PipePackunBodyParts10killSwitchEv
0000007100078140=_ZN19PipePackunBodyParts14setTotalLengthEf
0000007100078150=_ZN19PipePackunBodyParts8setCoordEf
0000007100078370=_ZNK19PipePackunBodyParts9getLengthEv
0000007100078380=_ZN19PipePackunBodyParts14setTurnPatternEPKS_
0000007100078420=_ZN19PipePackunBodyParts7exeWaitEv
0000007100078430=_ZNK19PipePackunBodyParts7calcPosEPN4sead7Vector3IfEEf
0000007100078530=_ZNK19PipePackunBodyParts7calcDirEPN4sead7Vector3IfEEf
0000007100078690=_ZN19PipePackunBodyParts13calcNearCoordEPfRKN4sead7Vector3IfEE
0000007100078950=_ZN19PipePackunBodyPartsD1Ev
0000007100078960=_ZN19PipePackunBodyPartsD0Ev
0000007100078990=nullsub_40
00000071000789A0=_ZN27PipePackunWaterSurfaceModelC2EPKc
0000007100078A40=_ZN27PipePackunWaterSurfaceModelC1EPKc
0000007100078AE0=_ZN27PipePackunWaterSurfaceModel4initERKN2al13ActorInitInfoE
0000007100078B40=_ZN27PipePackunWaterSurfaceModel15setSurfaceCoordEf
0000007100078B50=_ZN27PipePackunWaterSurfaceModel8setCoordEf
0000007100078C60=_ZN27PipePackunWaterSurfaceModel7exeWaitEv
0000007100078C70=_ZN27PipePackunWaterSurfaceModel7exeMoveEv
0000007100078C80=_ZN27PipePackunWaterSurfaceModel6exeEndEv
0000007100078C90=_ZN27PipePackunWaterSurfaceModelD1Ev
0000007100078CA0=_ZN27PipePackunWaterSurfaceModelD0Ev
0000007100078CD0=_ZNK27PipePackunWaterSurfaceModel10getBaseMtxEv
0000007100078CE0=nullsub_41
0000007100078D00=nullsub_42
0000007100078D20=nullsub_43
0000007100078DB0=_ZN8PukupukuC2EPKc
0000007100078E60=_ZN8PukupukuC1EPKc
0000007100078F10=_ZN8Pukupuku4initERKN2al13ActorInitInfoE
0000007100079110=_ZN8Pukupuku17calcBrakeDistanceEv
0000007100079130=_ZN8Pukupuku7controlEv
0000007100079190=_ZN8Pukupuku12exeSwimClimbEv
00000071000791D0=_ZN8Pukupuku20exeSwimClimbReactionEv
0000007100079240=_ZN8Pukupuku21exeSwimClimbPressDownEv
00000071000792C0=_ZN8Pukupuku6doKillEv
0000007100079300=_ZN8Pukupuku11exeSwimWaitEv
00000071000793F0=_ZN8Pukupuku11exeSwimTurnEv
0000007100079490=_ZN8Pukupuku15exeSwimBlowDownEv
00000071000794F0=_ZN8Pukupuku16exeSwimPressDownEv
0000007100079570=_ZN8Pukupuku20exeSwimSupportFreezeEv
00000071000795D0=_ZN8Pukupuku15setRestartNerveEv
00000071000795F0=_ZN8Pukupuku24exeSwimSupportFreezeSyncEv
0000007100079630=_ZN8Pukupuku12exeSwimBrakeEv
0000007100079780=_ZN8Pukupuku17exeSwimAccelerateEv
00000071000798B0=_ZN8Pukupuku12attackSensorEPN2al9HitSensorES2_
0000007100079960=_ZN8Pukupuku12isEnableDownEv
0000007100079A10=_ZN8Pukupuku10receiveMsgEPKN2al9SensorMsgEPNS0_9HitSensorES5_
0000007100079CF0=_ZN8Pukupuku21receiveMsgScreenPointEPKN2al9SensorMsgEPNS0_13ScreenPointerEPNS0_17ScreenPointTargetE
0000007100079E50=_ZN8PukupukuD1Ev
0000007100079E60=_ZN8PukupukuD0Ev
000000710007A130=_ZN17TargetFinderParamC2Ev
000000710007A160=_ZN17TargetFinderParamC2Efffjffffb
000000710007A190=_ZN12TargetFinderC1EPN2al9LiveActorEPK17TargetFinderParam
000000710007A1C0=_ZN12TargetFinder10findTargetEb
000000710007A680=_ZN12TargetFinder6updateEb
000000710007A900=_ZN12TargetFinder12refindTargetEb
000000710007A910=_ZN12TargetFinder11setFrontDirEPN4sead7Vector3IfEE
000000710007A920=_ZN12TargetFinder15setSupportUpDirEPN4sead7Vector3IfEE
000000710007A930=_ZNK12TargetFinder12getTargetPosEv
000000710007A950=_ZNK12TargetFinder16getLastTargetPosEv
000000710007A980=_ZN6TentenC2EPKcP15TentenGenerator
000000710007AA30=_ZN6TentenC1EPKcP15TentenGenerator
000000710007AAE0=_ZN6Tenten4initERKN2al13ActorInitInfoE
000000710007AC80=_ZN6Tenten4killEv
000000710007ACB0=_ZN6Tenten12attackSensorEPN2al9HitSensorES2_
000000710007AD80=_ZNK6Tenten6isDownEv
000000710007ADF0=_ZN6Tenten10receiveMsgEPKN2al9SensorMsgEPNS0_9HitSensorES5_
000000710007B0C0=_ZN6Tenten21receiveMsgScreenPointEPKN2al9SensorMsgEPNS0_13ScreenPointerEPNS0_17ScreenPointTargetE
000000710007B1E0=_ZN6Tenten13exeControlledEv
000000710007B1F0=_ZN6Tenten12exePressDownEv
000000710007B2D0=_ZN6Tenten11exeBlowDownEv
000000710007B330=_ZN6Tenten16exeSupportFreezeEv
000000710007B420=_ZN6Tenten21moveSyncRailAddOffsetEf
000000710007B480=_ZN6Tenten9setOffsetEff
000000710007B560=_ZN6Tenten18startSupportFreezeEv
000000710007B5F0=_ZN6Tenten16endSupportFreezeEv
000000710007B640=_ZN6Tenten15setReverseFrontEb
000000710007B820=_ZN6Tenten4turnEf
000000710007B910=_ZNK6Tenten12isControlledEv
000000710007B950=_ZNK6Tenten13isHipDropDownEv
000000710007B960=_ZN6TentenD1Ev
000000710007B970=_ZN6TentenD0Ev
000000710007B9A0=nullsub_44
000000710007BA80=_ZN15TentenGeneratorC2EPKc
000000710007BB70=_ZN15TentenGeneratorC1EPKc
000000710007BC60=_ZN15TentenGenerator4initERKN2al13ActorInitInfoE
000000710007C550=_ZN15TentenGenerator14reverseRailAllEv
000000710007C5E0=_ZNK15TentenGenerator16tryFindTopTentenEi
000000710007C650=_ZN15TentenGenerator9startMoveEv
000000710007C660=_ZN15TentenGenerator12killBySwitchEv
000000710007C6B0=_ZN15TentenGenerator17makeActorAppearedEv
000000710007C730=_ZN15TentenGenerator13makeActorDeadEv
000000710007C7E0=_ZN15TentenGenerator7controlEv
000000710007C880=_ZN15TentenGenerator10receiveMsgEPKN2al9SensorMsgEPNS0_9HitSensorES5_
000000710007CA60=_ZN15TentenGenerator21tryStartSupportFreezeEPKN2al5NerveE
000000710007CB20=_ZN15TentenGenerator16endSupportFreezeEv
000000710007CBB0=_ZN15TentenGenerator21receiveMsgTouchAssistEv
000000710007CC60=_ZN15TentenGenerator12startClippedEv
000000710007CCC0=_ZN15TentenGenerator10endClippedEv
000000710007CD20=_ZN15TentenGenerator15noticeDeadChildEPK6Tenten
000000710007CE00=_ZN15TentenGenerator8exeWatchEv
000000710007CE10=_ZN15TentenGenerator7exeStopEv
000000710007CE20=_ZN15TentenGenerator7exeMoveEv
000000710007D010=_ZN15TentenGenerator20tryChangeWaitHipDropEv
000000710007D0C0=_ZN15TentenGenerator24updateBgmBeatRateTriggerEv
000000710007D200=_ZN15TentenGenerator7exeTurnEv
000000710007D310=_ZN15TentenGenerator7exeWaitEv
000000710007D340=_ZN15TentenGenerator14exeWaitHipDropEv
000000710007D350=_ZN15TentenGenerator16exeSupportFreezeEv
000000710007D410=_ZN15TentenGenerator20exeSyncSupportFreezeEv
000000710007D420=_ZNK15TentenGenerator12getTurnSpeedEv
000000710007D430=_ZN15TentenGeneratorD1Ev
000000710007D440=_ZN15TentenGeneratorD0Ev
000000710007D470=nullsub_45
000000710007D490=nullsub_46
000000710007D560=nullsub_47
000000710007D5F0=_ZNK2al10FunctorV0MIP15TentenGeneratorMS1_FvvEEclEv
000000710007D610=_ZNK2al10FunctorV0MIP15TentenGeneratorMS1_FvvEE5cloneEv
000000710007D660=_ZN5TerenC2EPKc
000000710007D6F0=_ZN5TerenC1EPKc
000000710007D780=_ZN5Teren4initERKN2al13ActorInitInfoE
000000710007D920=_ZN5Teren12killBySwitchEv
000000710007D960=_ZN5Teren7controlEv
000000710007DAA0=_ZN5Teren6appearEv
000000710007DB10=_ZN5Teren4killEv
000000710007DBB0=_ZN5Teren24deleteDoubleDamageEffectEv
000000710007DC30=_ZN5Teren12attackSensorEPN2al9HitSensorES2_
000000710007DCE0=_ZN5Teren10receiveMsgEPKN2al9SensorMsgEPNS0_9HitSensorES5_
000000710007E340=_ZN5Teren21receiveMsgScreenPointEPKN2al9SensorMsgEPNS0_13ScreenPointerEPNS0_17ScreenPointTargetE
000000710007E460=_ZN5Teren9exeAppearEv
000000710007E4D0=_ZN5Teren7exeMoveEv
000000710007E540=_ZN5Teren11exeReactionEv
000000710007E670=_ZN5Teren15exeReactionWaitEv
000000710007E6B0=_ZN5Teren17exeReactionAppearEv
000000710007E870=_ZN5Teren18exeReactionAndKillEv
000000710007E8C0=_ZN5Teren14exeDamageLightEv
000000710007E9F0=_ZN5Teren6exeDieEv
000000710007EA70=_ZN5TerenD1Ev
000000710007EA80=_ZN5TerenD0Ev
000000710007ED10=_ZNK2al10FunctorV0MIP5TerenMS1_FvvEEclEv
000000710007ED30=_ZNK2al10FunctorV0MIP5TerenMS1_FvvEE5cloneEv
000000710007ED80=_ZN6TeresaC2EPKc
000000710007EE40=_ZN6TeresaC1EPKc
000000710007EF00=_ZN6Teresa4initERKN2al13ActorInitInfoE
000000710007F260=_ZN6Teresa12killBySwitchEv
000000710007F270=_ZN6Teresa14appearBySwitchEv
000000710007F330=_ZN6Teresa17disappearBySwitchEv
000000710007F390=_ZN6Teresa4killEv
000000710007F3E0=_ZN6Teresa7deSpawnEv
000000710007F3F0=_ZN6Teresa5spawnEN4sead7Vector3IfEEPN2al12AreaObjGroupE
000000710007F5E0=_ZN6Teresa7controlEv
000000710007F6F0=_ZN6Teresa12attackSensorEPN2al9HitSensorES2_
000000710007F870=_ZN6Teresa10receiveMsgEPKN2al9SensorMsgEPNS0_9HitSensorES5_
000000710007FFF0=_ZN6Teresa21receiveMsgScreenPointEPKN2al9SensorMsgEPNS0_13ScreenPointerEPNS0_17ScreenPointTargetE
00000071000800D0=_ZN6Teresa9exeAppearEv
00000071000801C0=_ZN6Teresa7exeWaitEv
0000007100080290=_ZN6Teresa13exeFindPlayerEv
0000007100080310=_ZN6Teresa8exeChaseEv
0000007100080510=_ZN6Teresa13exeReturnAreaEv
00000071000805E0=_ZN6Teresa11exeShyStartEv
00000071000806F0=_ZN6Teresa10exeShyWaitEv
00000071000807C0=_ZN6Teresa13isPlayerSightEv
0000007100080900=_ZN6Teresa13exeShyEndSignEv
00000071000809E0=_ZN6Teresa9exeShyEndEv
0000007100080AC0=_ZN6Teresa15deleteShyEffectEv
0000007100080B10=_ZN6Teresa14exeDamageLightEv
0000007100080C80=_ZN6Teresa24deleteDoubleDamageEffectEv
0000007100080D00=_ZN6Teresa19exeDamageLightAfterEv
0000007100080DD0=_ZN6Teresa11exeReactionEv
0000007100080F80=_ZN6Teresa15exeReactionWaitEv
0000007100081090=_ZN6Teresa17exeReactionAppearEv
0000007100081170=_ZN6Teresa19exeDisappearOutAreaEv
0000007100081260=_ZN6Teresa12exeAttackHitEv
0000007100081330=_ZN6Teresa7exeDownEv
00000071000814A0=_ZN6TeresaD1Ev
00000071000814B0=_ZN6TeresaD0Ev
0000007100081690=_ZNK2al10FunctorV0MIP6TeresaMS1_FvvEEclEv
00000071000816B0=_ZNK2al10FunctorV0MIP6TeresaMS1_FvvEE5cloneEv
0000007100081810=_ZN23TeresaConveyorTeresaBigC2EPKc
0000007100081880=_ZN23TeresaConveyorTeresaBigC1EPKc
0000007100081900=_ZN23TeresaConveyorTeresaBig4initERKN2al13ActorInitInfoE
0000007100081980=_ZN23TeresaConveyorTeresaBig7exeWaitEv
0000007100081A00=_ZN23TeresaConveyorTeresaBigD1Ev
0000007100081A10=_ZN23TeresaConveyorTeresaBigD0Ev
0000007100081AC0=_ZN14TerritoryMoverC2Ef
0000007100081AD0=_ZN14TerritoryMover19decideNextTargetPosEPKN2al9LiveActorE
0000007100081B60=_ZNK14TerritoryMover15isReachedTargetEPKN2al9LiveActorEf
0000007100081C30=_ZN9TuccondorC2EPKc
0000007100081D00=_ZN9TuccondorC1EPKc
0000007100081DE0=_ZN9Tuccondor4initERKN2al13ActorInitInfoE
0000007100082070=_ZN9Tuccondor10receiveMsgEPKN2al9SensorMsgEPNS0_9HitSensorES5_
0000007100082220=_ZN9Tuccondor21receiveMsgScreenPointEPKN2al9SensorMsgEPNS0_13ScreenPointerEPNS0_17ScreenPointTargetE
0000007100082310=_ZN9Tuccondor12attackSensorEPN2al9HitSensorES2_
00000071000824B0=_ZN9Tuccondor7controlEv
00000071000824C0=_ZN9Tuccondor7exeWaitEv
0000007100082670=_ZNK9Tuccondor16calcOverAngleRadERKN4sead7Vector3IfEE
0000007100082710=_ZN9Tuccondor9exeWanderEv
00000071000827D0=_ZN9Tuccondor15exeTurnToPlayerEv
0000007100082970=_ZN9Tuccondor6exeRunEv
0000007100082A80=_ZN9Tuccondor13exeAttackSignEv
0000007100082B00=_ZN9Tuccondor9exeAttackEv
0000007100082BB0=_ZN9Tuccondor13exeAttackWaitEv
0000007100082C20=_ZN9Tuccondor12exeAttackEndEv
0000007100082CC0=_ZN9Tuccondor16exeSupportFreezeEv
0000007100082D40=_ZN13TuccondorBaseD1Ev
0000007100082D50=_ZN13TuccondorBaseD0Ev
0000007100082D80=_ZN9TuccondorD1Ev
0000007100082D90=_ZN9TuccondorD0Ev
0000007100083150=_ZN15TuccondorAroundC2EPKc
00000071000831E0=_ZN15TuccondorAroundC1EPKc
0000007100083270=_ZN15TuccondorAround4initERKN2al13ActorInitInfoE
0000007100083440=_ZN15TuccondorAround7controlEv
0000007100083530=_ZN15TuccondorAround12attackSensorEPN2al9HitSensorES2_
00000071000836D0=_ZN15TuccondorAround10receiveMsgEPKN2al9SensorMsgEPNS0_9HitSensorES5_
0000007100083840=_ZN15TuccondorAround21receiveMsgScreenPointEPKN2al9SensorMsgEPNS0_13ScreenPointerEPNS0_17ScreenPointTargetE
0000007100083930=_ZN15TuccondorAround7exeWaitEv
0000007100083990=_ZN15TuccondorAround13exeAttackSignEv
00000071000839D0=_ZN15TuccondorAround9exeAttackEv
0000007100083A60=_ZN15TuccondorAround13exeAttackWaitEv
0000007100083AC0=_ZN15TuccondorAround12exeAttackEndEv
0000007100083B20=_ZN15TuccondorAround16exeSupportFreezeEv
0000007100083B60=_ZN15TuccondorAroundD1Ev
0000007100083B70=_ZN15TuccondorAroundD0Ev
0000007100083E30=_ZN13TuccondorBaseC2EPKc
0000007100083EB0=_ZN13TuccondorBaseC1EPKc
0000007100083F40=_ZN13TuccondorBase14initNerveStateEv
0000007100083FA0=_ZNK13TuccondorBase15isHitNeckSensorEPKN2al9HitSensorES3_f
0000007100084050=_ZN13TuccondorBase14updateVelocityEv
0000007100084100=_ZN13TuccondorBase19tryRequestPressDownEPKN2al9SensorMsgEPNS0_9HitSensorES5_b
0000007100084130=_ZN13TuccondorBase30tryRequestBlowDownAndNextNerveEPKN2al9SensorMsgEPNS0_9HitSensorES5_
0000007100084160=_ZN13TuccondorBase27requestBlowDownAndNextNerveEPKN2al9SensorMsgEPNS0_9HitSensorES5_
00000071000841B0=_ZN13TuccondorBase11exeBlowDownEv
0000007100084200=_ZN13TuccondorBase12exePressDownEv
0000007100084280=_ZN13TuccondorBase22exePressDownAttackWaitEv
0000007100084300=_ZN13TuccondorBase24requestHitReactionAttackEv
00000071000844D0=_ZNK13TuccondorBase11isNerveDeadEv
00000071000846C0=_ZN14TuccondorGlassC2EPKc
0000007100084730=_ZN14TuccondorGlassC1EPKc
00000071000847B0=_ZN14TuccondorGlass4initERKN2al13ActorInitInfoE
0000007100084820=_ZN14TuccondorGlass10appearBlowERKN4sead7Vector3IfEE
00000071000848B0=_ZN14TuccondorGlass7exeWaitEv
0000007100084920=_ZN14TuccondorGlass14updateVelocityEv
0000007100084950=_ZN14TuccondorGlass6exeEndEv
0000007100084980=_ZN14TuccondorGlass7isReadyEv
00000071000849C0=_ZN14TuccondorGlass5isEndEv
00000071000849D0=_ZN14TuccondorGlassD1Ev
00000071000849E0=_ZN14TuccondorGlassD0Ev
0000007100084AC0=_ZN20TuccondorGlassBlowerC1EPN2al9LiveActorEP14TuccondorGlass
0000007100084B40=_ZN20TuccondorGlassBlower19tryRequestGlassBlowEPKN2al9SensorMsgEPNS0_13ScreenPointerEPNS0_17ScreenPointTargetE
0000007100084C60=_ZN20TuccondorGlassBlower6updateEv
0000007100084D30=_ZN13TuccondorTrapC2EPKc
0000007100084DB0=_ZN13TuccondorTrapC1EPKc
0000007100084E40=_ZN13TuccondorTrap4initERKN2al13ActorInitInfoE
0000007100085020=_ZN13TuccondorTrap18initAfterPlacementEv
0000007100085070=_ZN13TuccondorTrap12attackSensorEPN2al9HitSensorES2_
0000007100085260=_ZN13TuccondorTrap23pushTargetTowardSideDirEPN2al9HitSensorES2_
00000071000853C0=_ZN13TuccondorTrap10receiveMsgEPKN2al9SensorMsgEPNS0_9HitSensorES5_
00000071000855C0=_ZN13TuccondorTrap21receiveMsgScreenPointEPKN2al9SensorMsgEPNS0_13ScreenPointerEPNS0_17ScreenPointTargetE
00000071000856B0=_ZN13TuccondorTrap7controlEv
0000007100085700=_ZN13TuccondorTrap7exeWaitEv
0000007100085740=_ZN13TuccondorTrap13exeAttackSignEv
00000071000857B0=_ZN13TuccondorTrap9exeAttackEv
0000007100085840=_ZN13TuccondorTrap13exeAttackWaitEv
00000071000858B0=_ZN13TuccondorTrap12exeAttackEndEv
0000007100085920=_ZN13TuccondorTrap16exeSupportFreezeEv
0000007100085960=_ZN13TuccondorTrapD1Ev
0000007100085970=_ZN13TuccondorTrapD0Ev
0000007100085C70=_ZN5UkiboC2EPKc
0000007100085D20=_ZN5UkiboC1EPKc
0000007100085DE0=_ZN5Ukibo4initERKN2al13ActorInitInfoE
0000007100086080=_ZN5Ukibo20startActionWithFloatEPKc
0000007100086130=_ZN5Ukibo18initAfterPlacementEv
00000071000863F0=_ZN5Ukibo7controlEv
00000071000864B0=_ZN5Ukibo4killEv
0000007100086530=_ZN5Ukibo13makeActorDeadEv
0000007100086560=_ZN5Ukibo12attackSensorEPN2al9HitSensorES2_
0000007100086630=_ZN5Ukibo10receiveMsgEPKN2al9SensorMsgEPNS0_9HitSensorES5_
0000007100086820=_ZN5Ukibo21receiveMsgScreenPointEPKN2al9SensorMsgEPNS0_13ScreenPointerEPNS0_17ScreenPointTargetE
0000007100086930=_ZN5Ukibo13exeSleepStartEv
0000007100086980=_ZN5Ukibo17updateMoveSurfaceEv
0000007100086BC0=_ZN5Ukibo7exeWaitEv
0000007100086C40=_ZN5Ukibo7exeMoveEv
0000007100086FD0=_ZN5Ukibo7exeFindEv
0000007100087060=_ZN5Ukibo8exeChaseEv
0000007100087360=_ZN5Ukibo11exeChaseEndEv
0000007100087480=_ZN5Ukibo12exePressDownEv
0000007100087500=_ZN5Ukibo11exeBlowDownEv
00000071000875B0=_ZN5Ukibo19exePressDownHipDropEv
0000007100087670=_ZN5Ukibo16exeSupportFreezeEv
00000071000876F0=_ZN5UkiboD1Ev
0000007100087700=_ZN5UkiboD0Ev
0000007100087930=_ZN8VRKameckC2EPKc
00000071000879E0=_ZN8VRKameckC1EPKc
0000007100087AA0=_ZN8VRKameck4initERKN2al13ActorInitInfoE
0000007100087E30=_ZN8VRKameck12killBySwitchEv
0000007100087E70=_ZN8VRKameck6appearEv
0000007100087E80=_ZN8VRKameck4killEv
0000007100087EB0=_ZN8VRKameck12attackSensorEPN2al9HitSensorES2_
0000007100087F90=_ZN8VRKameck10receiveMsgEPKN2al9SensorMsgEPNS0_9HitSensorES5_
00000071000881B0=_ZN8VRKameck21receiveMsgScreenPointEPKN2al9SensorMsgEPNS0_13ScreenPointerEPNS0_17ScreenPointTargetE
0000007100088220=_ZN8VRKameck9exeAppearEv
00000071000882C0=_ZN8VRKameck7exeWaitEv
00000071000883C0=_ZNK8VRKameck14isTransitionOnEv
0000007100088410=_ZN8VRKameck14exeAttackStartEv
00000071000884A0=_ZN8VRKameck9exeAttackEv
0000007100088630=_ZN8VRKameck13exeAttackWaitEv
0000007100088680=_ZN8VRKameck7exeHideEv
0000007100088740=_ZN8VRKameck15checkTransitionEv
00000071000887D0=_ZN8VRKameck11exeHideMoveEv
0000007100088940=_ZN8VRKameck25exeHideMoveToNearestPointEv
0000007100088B70=_ZNK8VRKameck30calcNearestRailPointFromPlayerEv
0000007100088BD0=_ZNK8VRKameck18isCrossTargetCoordEf
0000007100088C80=_ZN8VRKameck21exeHideMoveTransitionEv
0000007100088E60=_ZN8VRKameck11exeHideWaitEv
0000007100088EB0=_ZN8VRKameck12exeAttackHitEv
0000007100088EF0=_ZN8VRKameck11exeBlowDownEv
0000007100089020=_ZN8VRKameck14transitionFromEPS_
00000071000890B0=_ZN8VRKameckD1Ev
00000071000890C0=_ZN8VRKameckD0Ev
00000071000892C0=_ZNK2al10FunctorV0MIP8VRKameckMS1_FvvEEclEv
00000071000892E0=_ZNK2al10FunctorV0MIP8VRKameckMS1_FvvEE5cloneEv
0000007100089400=_ZN8VRTeresaC2EPKc
00000071000894B0=_ZN8VRTeresaC1EPKc
0000007100089560=_ZN8VRTeresa4initERKN2al13ActorInitInfoE
00000071000896F0=_ZN8VRTeresa4killEv
0000007100089700=_ZN8VRTeresa7controlEv
0000007100089810=_ZN8VRTeresa12attackSensorEPN2al9HitSensorES2_
0000007100089820=_ZN8VRTeresa10receiveMsgEPKN2al9SensorMsgEPNS0_9HitSensorES5_
0000007100089830=_ZN8VRTeresa21receiveMsgScreenPointEPKN2al9SensorMsgEPNS0_13ScreenPointerEPNS0_17ScreenPointTargetE
0000007100089840=_ZN8VRTeresa9exeAppearEv
00000071000898C0=_ZN8VRTeresa7exeWaitEv
0000007100089910=_ZN8VRTeresa16exeWaitForAppearEv
0000007100089970=_ZN8VRTeresa7exeMoveEv
0000007100089A40=_ZN8VRTeresa12faceToCameraEv
0000007100089AB0=_ZN8VRTeresa18exeWaitForInactiveEv
0000007100089AC0=_ZN8VRTeresa11exeInactiveEv
0000007100089C10=_ZN8VRTeresa13exeWaitForShyEv
0000007100089C50=_ZN8VRTeresa11exeBeginShyEv
0000007100089C80=_ZN8VRTeresa11exeShyStartEv
0000007100089D60=_ZN8VRTeresa10exeShyWaitEv
0000007100089DE0=_ZN8VRTeresa13exeShyEndSignEv
0000007100089E70=_ZN8VRTeresa9exeShyEndEv
0000007100089F50=_ZN8VRTeresa15deleteShyEffectEv
0000007100089FA0=_ZN8VRTeresa11exeMoveSlowEv
000000710008A0D0=_ZN8VRTeresa8isActiveEv
000000710008A100=_ZN8VRTeresa9setActiveEv
000000710008A180=_ZN8VRTeresa11setDeactiveEv
000000710008A190=_ZN8VRTeresa7canMoveEv
000000710008A1F0=_ZN8VRTeresa11canMoveSlowEv
000000710008A240=_ZN8VRTeresa12cameraLookAtEv
000000710008A340=_ZN8VRTeresa11checkCameraEv
000000710008A530=_ZN8VRTeresaD1Ev
000000710008A540=_ZN8VRTeresaD0Ev
000000710008A800=_ZN29WalkerStateAttackSuccessParamC2Ev
000000710008AAA0=_ZN29WalkerStateAttackSuccessParamC1EPKcbf
000000710008AE60=_ZN24WalkerStateAttackSuccessC2EPN2al9LiveActorEPK16WalkerStateParamPK29WalkerStateAttackSuccessParam
000000710008AEE0=_ZN24WalkerStateAttackSuccess6appearEv
000000710008AF40=_ZN24WalkerStateAttackSuccess16exeAttackSuccessEv
000000710008AFC0=_ZN24WalkerStateAttackSuccess21exeAttackSuccessStartEv
000000710008B050=_ZN24WalkerStateAttackSuccess20exeAttackSuccessLoopEv
000000710008B0E0=_ZN24WalkerStateAttackSuccess19exeAttackSuccessEndEv
000000710008B160=_ZN24WalkerStateAttackSuccessD0Ev
000000710008B350=_ZN21WalkerStateChaseParamC2Ev
000000710008B550=_ZN21WalkerStateChaseParamC2EfffffbbPKcS1_f
000000710008B770=_ZN16WalkerStateChaseC1EPN2al9LiveActorEPN4sead7Vector3IfEEP12TargetFinderPK16WalkerStateParamPK21WalkerStateChaseParambPb
000000710008B820=_ZN16WalkerStateChase6appearEv
000000710008B840=_ZN16WalkerStateChase8exeStartEv
000000710008BB40=_ZN16WalkerStateChase6exeEndEv
000000710008BBE0=_ZN16WalkerStateChaseD0Ev
000000710008BC40=_ZN26WalkerStateChaseHeyhoParamC2Ev
000000710008BE40=_ZN26WalkerStateChaseHeyhoParamC1EfffffbbPKcS1_f
000000710008C060=_ZN21WalkerStateChaseHeyhoC2EPN2al9LiveActorEPN4sead7Vector3IfEEP12TargetFinderPK16WalkerStateParamPK26WalkerStateChaseHeyhoParambPb
000000710008C120=_ZN21WalkerStateChaseHeyho6appearEv
000000710008C140=_ZN21WalkerStateChaseHeyho32checkCollisionBetweenTargetTransEfRKN4sead7Vector3IfEEb
000000710008C2F0=_ZN21WalkerStateChaseHeyho27checkCollisionBetweenTargetEPKN2al9LiveActorEb
000000710008C330=_ZN21WalkerStateChaseHeyho8exeStartEv
000000710008C9B0=_ZN21WalkerStateChaseHeyho6exeEndEv
000000710008CA50=_ZN21WalkerStateChaseHeyhoD0Ev
000000710008CAB0=_ZN15WalkerStateFallC2EPN2al9LiveActorEPK16WalkerStateParam
000000710008CB10=_ZN15WalkerStateFall6appearEv
000000710008CB50=_ZN15WalkerStateFall7exeFallEv
000000710008CBA0=_ZN15WalkerStateFall7exeLandEv
000000710008CC00=_ZN15WalkerStateFallD0Ev
000000710008CCF0=_ZN26WalkerStateFindPlayerParamC2Ev
000000710008CE10=_ZN26WalkerStateFindPlayerParamC2EifbPKc
000000710008CF30=_ZN21WalkerStateFindPlayerC1EPN2al9LiveActorEPN4sead7Vector3IfEEPK12TargetFinderPK16WalkerStateParamPK26WalkerStateFindPlayerParamPK20WalkerStateJumpParam
000000710008D010=_ZN21WalkerStateFindPlayer6appearEv
000000710008D020=_ZN21WalkerStateFindPlayer7exeFindEv
000000710008D130=_ZN21WalkerStateFindPlayer11exeFindJumpEv
000000710008D1A0=_ZN21WalkerStateFindPlayer7exeJumpEv
000000710008D1E0=_ZN21WalkerStateFindPlayerD0Ev
000000710008D3F0=_ZN19WalkerStateFunction19calcPassiveMovementEPN2al9LiveActorEPK16WalkerStateParam
000000710008D460=_ZN19WalkerStateFunction19calcPassiveMovementEPN2al9LiveActorEPK16WalkerStateParamb
000000710008D4B0=_ZN19WalkerStateFunction14isFallNextMoveEPKN2al9LiveActorERKN4sead7Vector3IfEES8_S8_fffb
000000710008D670=_ZN19WalkerStateFunction14isFallNextMoveEPKN2al9LiveActorEfffb
000000710008D6F0=_ZN20WalkerStateJumpParamC1Ev
000000710008D9A0=_ZN20WalkerStateJumpParamC1Efb
000000710008DC50=_ZN20WalkerStateJumpParamC2EfPKcb
000000710008DF80=_ZN20WalkerStateJumpParamC1EfPKcS1_S1_b
000000710008E250=_ZN15WalkerStateJumpC2EPN2al9LiveActorEPK16WalkerStateParamPK20WalkerStateJumpParam
000000710008E2C0=_ZN15WalkerStateJump6appearEv
000000710008E2D0=_ZN15WalkerStateJump12exeJumpStartEv
000000710008E370=_ZN15WalkerStateJump11exeJumpLoopEv
000000710008E400=_ZN15WalkerStateJump10exeJumpEndEv
000000710008E480=_ZN15WalkerStateJumpD0Ev
000000710008E5F0=_ZN16WalkerStateParamC2Ev
000000710008E610=_ZN16WalkerStateParamC2Effffffff
000000710008E630=_ZN24WalkerStateRailMoveParamC2Ev
000000710008E820=_ZN24WalkerStateRailMoveParamC2Ef
000000710008EA10=_ZN24WalkerStateRailMoveParamC2EffffffPKcS1_b
000000710008EC10=_ZN19WalkerStateRailMoveC1EPN2al9LiveActorEPK16WalkerStateParamPK24WalkerStateRailMoveParam
000000710008ECF0=_ZN19WalkerStateRailMove21setClippingInfoOriginEv
000000710008ED30=_ZN19WalkerStateRailMove6appearEv
000000710008ED80=_ZN19WalkerStateRailMove4killEv
000000710008EDD0=_ZN19WalkerStateRailMove18setPositionToStartEv
000000710008EE00=_ZN19WalkerStateRailMove19setClippingInfoRailEv
000000710008EE20=_ZN19WalkerStateRailMove15exeReturnToRailEv
000000710008EFC0=_ZN19WalkerStateRailMove11exeRailMoveEv
000000710008F0E0=_ZN19WalkerStateRailMove7exeTurnEv
000000710008F210=_ZN19WalkerStateRailMoveD0Ev
000000710008F280=_ZN30WalkerStateRouteDokanMoveParamC2Ev
000000710008F2B0=_ZN30WalkerStateRouteDokanMoveParamC2Effffi
000000710008F2D0=_ZN25WalkerStateRouteDokanMoveC2EPN2al9LiveActorERKNS0_13ActorInitInfoEPK16WalkerStateParamPK30WalkerStateRouteDokanMoveParam
000000710008F3E0=_ZN25WalkerStateRouteDokanMove6appearEv
000000710008F410=_ZN25WalkerStateRouteDokanMove8tryStartEPN2al9HitSensorES2_
000000710008F560=_ZN25WalkerStateRouteDokanMove16setRouteSelecterEPN2al22BlockRailRouteSelecterE
000000710008F570=_ZNK25WalkerStateRouteDokanMove6isMoveEv
000000710008F580=_ZNK25WalkerStateRouteDokanMove7isEjectEv
000000710008F590=_ZN25WalkerStateRouteDokanMove8exeStartEv
000000710008F620=_ZN25WalkerStateRouteDokanMove7exeMoveEv
000000710008F8C0=_ZN25WalkerStateRouteDokanMove8exeEjectEv
000000710008F930=_ZN25WalkerStateRouteDokanMove7exeLandEv
000000710008F9A0=_ZN25WalkerStateRouteDokanMoveD0Ev
000000710008FAE0=_ZN22WalkerStateWanderParamC2Ev
000000710008FCE0=_ZN22WalkerStateWanderParamC2EiiffffbPKcS1_b
000000710008FEE0=_ZN17WalkerStateWanderC1EPN2al9LiveActorEPN4sead7Vector3IfEEPK16WalkerStateParamPK22WalkerStateWanderParamP12TargetFinder
000000710008FFA0=_ZN17WalkerStateWander6appearEv
000000710008FFF0=_ZN17WalkerStateWander15setWanderCenterERKN4sead7Vector3IfEE
0000007100090010=_ZN17WalkerStateWander7exeWaitEv
00000071000900E0=_ZN17WalkerStateWander7exeWalkEv
00000071000902E0=_ZN17WalkerStateWander6isWaitEv
00000071000902F0=_ZN17WalkerStateWanderD0Ev
0000007100090350=_ZN8WarpMoleC2EPKc
0000007100090470=_ZN8WarpMoleC1EPKc
0000007100090590=_ZN8WarpMole4initERKN2al13ActorInitInfoE
0000007100090760=_ZN8WarpMole17makeActorAppearedEv
0000007100090770=_ZN8WarpMole12attackSensorEPN2al9HitSensorES2_
0000007100090920=_ZN8WarpMole10receiveMsgEPKN2al9SensorMsgEPNS0_9HitSensorES5_
0000007100090E10=_ZN8WarpMole21receiveMsgScreenPointEPKN2al9SensorMsgEPNS0_13ScreenPointerEPNS0_17ScreenPointTargetE
0000007100090E20=_ZN8WarpMole7controlEv
0000007100090F80=_ZN8WarpMole4killEv
0000007100090FC0=_ZN8WarpMole5resetEv
0000007100091050=_ZN8WarpMole17selectNewPositionEb
00000071000915E0=def_71000914A8
00000071000915F0=_ZN8WarpMole10resetFloorEv
0000007100091610=_ZN8WarpMole11setMoleMazeEP8MoleMaze
0000007100091620=_ZN8WarpMole11moveOnRouteEf
0000007100091630=_ZN8WarpMole11setWarpCubeEP8WarpCube
0000007100091640=_ZN8WarpMole12faceToCameraEv
00000071000916B0=_ZN8WarpMole11tryStartRunEPKN2al5NerveEb
0000007100091770=_ZNK8WarpMole15canStartReverseEPKN2al9LiveActorE
0000007100091780=_ZN8WarpMole15tryStartReverseEPKN2al9LiveActorEPKNS0_5NerveE
00000071000917A0=_ZN8WarpMole15trySetMoundHoleEv
0000007100091800=_ZN8WarpMole21disappearFarMoundHoleEv
00000071000918C0=_ZNK8WarpMole18getMoveEndDistanceEv
00000071000918D0=_ZN8WarpMole12exeWaitFirstEv
0000007100091AB0=_ZN8WarpMole12exeFindFirstEv
0000007100091B50=_ZN8WarpMole7exeWaitEv
0000007100091C50=_ZN8WarpMole11exeRunBreakEv
0000007100091CA0=_ZN8WarpMole7exeFindEv
0000007100091D90=_ZN8WarpMole11exeRunFirstEv
0000007100091EA0=_ZN8WarpMole10exeRunDownEv
0000007100091F00=_ZN8WarpMole6exeRunEv
00000071000920D0=_ZN8WarpMole10exeReverseEv
00000071000920E0=_ZN8WarpMole8exeSwoonEv
0000007100092180=_ZN8WarpMole7exePullEv
00000071000924E8=def_7100092498
0000007100092560=_ZN8WarpMole10exePullEndEv
00000071000925B0=_ZN8WarpMole5exeUpEv
0000007100092610=_ZN8WarpMole16exeDownBeforeRunEv
0000007100092670=_ZN8WarpMole19exeDownBeforeSearchEv
00000071000926D0=_ZN8WarpMole9exeSearchEv
0000007100092720=_ZN8WarpMole15applySwoonNerveEPKN2al5NerveE
0000007100092760=_ZN8WarpMoleD1Ev
0000007100092770=_ZN8WarpMoleD0Ev
0000007100092AA0=_ZN6ZombieC2EPKcbb
0000007100092BE0=_ZN6ZombieC1EPKcbb
0000007100092D30=_ZN6Zombie4initERKN2al13ActorInitInfoE
0000007100093490=_ZN6Zombie5beginEv
00000071000935B0=_ZN6Zombie4downEv
00000071000937E0=_ZN6Zombie9killForceEv
0000007100093850=_ZN6Zombie7setHostEPS_
0000007100093A30=_ZN6Zombie18initAfterPlacementEv
0000007100093A70=_ZN6Zombie24deleteDoubleDamageEffectEv
0000007100093AF0=_ZN6Zombie12attackSensorEPN2al9HitSensorES2_
0000007100093D00=_ZN6Zombie10receiveMsgEPKN2al9SensorMsgEPNS0_9HitSensorES5_
0000007100094520=_ZN6Zombie13tryAppearItemEPKc
0000007100094570=_ZN6Zombie21receiveMsgScreenPointEPKN2al9SensorMsgEPNS0_13ScreenPointerEPNS0_17ScreenPointTargetE
0000007100094620=_ZN6Zombie7controlEv
0000007100094A20=_ZN6Zombie6appearEv
0000007100094A80=_ZN6Zombie4killEv
0000007100094AF0=_ZN6Zombie7exeHideEv
0000007100094B70=_ZN6Zombie9exeAppearEv
0000007100094CA0=_ZN6Zombie7exeWalkEv
0000007100094DA0=_ZN6Zombie7exeFallEv
0000007100094E40=_ZN6Zombie11exeBlowDownEv
0000007100094EB0=_ZN6Zombie12exePressDownEv
0000007100094F50=_ZN6Zombie12exeDownLightEv
0000007100095040=_ZN6Zombie15exeDownLightEndEv
00000071000950C0=_ZN6Zombie11exeDownKillEv
0000007100095130=_ZN6Zombie13exeDownSwitchEv
00000071000951F0=_ZN6Zombie19exeRevivalLightDownEv
0000007100095270=_ZN6Zombie16exeSupportFreezeEv
00000071000952F0=_ZN6Zombie9exeKilledEv
00000071000953A0=_ZNK6Zombie14isAllChildDeadEv
0000007100095420=_ZN6Zombie8switchOnEv
0000007100095430=_ZN6ZombieD1Ev
0000007100095440=_ZN6ZombieD0Ev
00000071000957E0=_ZNK2al10FunctorV0MIP6ZombieMS1_FvvEEclEv
0000007100095800=_ZNK2al10FunctorV0MIP6ZombieMS1_FvvEE5cloneEv
00000071000958B0=_ZN17AmiiboButtonPartsC2ERKN2al14LayoutInitInfoEPKcS5_PNS0_11LayoutActorE
0000007100095990=_ZN17AmiiboButtonPartsC1ERKN2al14LayoutInitInfoEPKcS5_PNS0_11LayoutActorE
0000007100095A70=_ZN17AmiiboButtonParts6appearEv
0000007100095AA0=_ZN17AmiiboButtonParts4hideEv
0000007100095AB0=_ZN17AmiiboButtonParts9tryDecideEv
0000007100095BC0=_ZNK17AmiiboButtonParts10checkTouchEv
0000007100095C00=_ZN17AmiiboButtonParts12tryEndButtonEv
0000007100095C50=_ZNK17AmiiboButtonParts8isAppearEv
0000007100095C80=_ZNK17AmiiboButtonParts6isWaitEv
0000007100095C90=_ZNK17AmiiboButtonParts7isTouchEv
0000007100095CA0=_ZNK17AmiiboButtonParts11isDecideEndEv
0000007100095CB0=_ZNK17AmiiboButtonParts10isDecidingEv
0000007100095CC0=_ZN17AmiiboButtonParts7exeHideEv
0000007100095D00=_ZN17AmiiboButtonParts7exeWaitEv
0000007100095D40=_ZN17AmiiboButtonParts8exeTouchEv
0000007100095ED0=_ZN17AmiiboButtonParts13exeDecideWaitEv
0000007100095F10=_ZN17AmiiboButtonParts9exeDecideEv
0000007100095F90=_ZN17AmiiboButtonParts12exeDecideEndEv
0000007100095FA0=_ZNK2al11LayoutActor14getNerveKeeperEv
0000007100095FB0=_ZNK2al11LayoutActor7getNameEv
0000007100095FE0=_ZNK2al11LayoutActor15getEffectKeeperEv
0000007100095FF0=_ZNK2al11LayoutActor14getAudioKeeperEv
0000007100096000=_ZNK2al11LayoutActor21getLayoutActionKeeperEv
0000007100096010=_ZNK2al11LayoutActor15getLayoutKeeperEv
0000007100096020=_ZN2al11LayoutActor7controlEv
0000007100096030=_ZTv0_n24_NK2al11LayoutActor7getNameEv
0000007100096070=_ZThn8_NK2al11LayoutActor15getLayoutKeeperEv
0000007100096080=_ZThn16_NK2al11LayoutActor21getLayoutActionKeeperEv
0000007100096090=_ZThn40_NK2al11LayoutActor14getAudioKeeperEv
00000071000960A0=_ZThn48_NK2al11LayoutActor15getEffectKeeperEv
0000007100096220=nullsub_48
0000007100096230=_ZN14AmiiboCourseInC2ERKN2al14LayoutInitInfoEP18CourseSelectLayout
0000007100096400=_ZN14AmiiboCourseInC1ERKN2al14LayoutInitInfoEP18CourseSelectLayout
00000071000965D0=_ZN14AmiiboCourseInD2Ev
0000007100096660=_ZN14AmiiboCourseInD1Ev
00000071000966E0=_ZN14AmiiboCourseIn18startAppearSuccessERKN4sead7Vector3IfEE
0000007100096770=_ZN14AmiiboCourseIn11showKinopioEv
00000071000967E0=_ZN14AmiiboCourseIn10appearCoreERKN4sead7Vector3IfEE
0000007100096A20=_ZN14AmiiboCourseIn24startAppearInvincibilityERKN4sead7Vector3IfEE
0000007100096AA0=_ZN14AmiiboCourseIn12showMushroomEv
0000007100096B00=_ZN14AmiiboCourseIn32startAppearInvincibilityNoCourseERKN4sead7Vector3IfEE
0000007100096B80=_ZN14AmiiboCourseIn30startAppearInvincibilityFailedERKN4sead7Vector3IfEE
0000007100096C00=_ZN14AmiiboCourseIn17startAppearFailedERKN4sead7Vector3IfEE
0000007100096C90=_ZN14AmiiboCourseIn19startAppearNoCourseERKN4sead7Vector3IfEE
0000007100096D20=_ZN14AmiiboCourseIn16startAppearOneUpERKN4sead7Vector3IfEEi
0000007100096DD0=_ZN14AmiiboCourseIn16show1UPMushroomsEv
0000007100096E40=_ZNK14AmiiboCourseIn14getRandomOneUpEi
0000007100096F10=_ZN14AmiiboCourseIn4killEv
0000007100096F40=_ZNK14AmiiboCourseIn5isEndEv
0000007100096FA0=_ZN14AmiiboCourseIn8movementEv
0000007100096FB0=_ZN14AmiiboCourseIn9spotlightEv
0000007100096FC0=_ZN14AmiiboCourseIn18exeWalkToSpotlightEv
0000007100097110=_ZN14AmiiboCourseIn18tryMoveToSpotlightEf
00000071000971A0=_ZN14AmiiboCourseIn9exeAppearEv
0000007100097240=_ZN14AmiiboCourseIn7exeWaitEv
00000071000972F0=_ZN14AmiiboCourseIn24trySetNerveAndNextActionEv
0000007100097350=_ZN14AmiiboCourseIn7exeFallEv
0000007100097490=_ZN14AmiiboCourseIn7tryMoveEf
0000007100097510=_ZN14AmiiboCourseIn13exeWalkAssistEv
00000071000975D0=_ZN14AmiiboCourseIn7exeWalkEv
0000007100097700=_ZN14AmiiboCourseIn6exeRunEv
0000007100097830=_ZN14AmiiboCourseIn20exeRunForHopStepJumpEv
0000007100097AA0=_ZN14AmiiboCourseIn7exeTurnEv
0000007100097B50=_ZN14AmiiboCourseIn7exeJumpEv
0000007100097D30=_ZN14AmiiboCourseIn11exeRunToEndEv
0000007100097DF0=_ZN14AmiiboCourseIn6exeEndEv
0000007100097F2C=def_7100097E28
00000071000980F0=_ZN14AmiiboCourseIn11exeOneUpEndEv
0000007100098400=_ZN23AmiiboCourseInfoDotDemoC2ERKN2al14LayoutInitInfoE
00000071000984C0=_ZN23AmiiboCourseInfoDotDemoC1ERKN2al14LayoutInitInfoE
0000007100098580=_ZN23AmiiboCourseInfoDotDemo8startAddERKN4sead7Vector3IfEE
00000071000985D0=_ZN23AmiiboCourseInfoDotDemo11startGiveUpERKN4sead7Vector3IfEE
0000007100098620=_ZN23AmiiboCourseInfoDotDemo6exeAddEv
0000007100098670=_ZN23AmiiboCourseInfoDotDemo9exeGiveUpEv
0000007100098760=_ZN24AmiiboCourseInfoDotPartsC2ERKN2al14LayoutInitInfoEPKcS5_PNS0_11LayoutActorE
0000007100098860=_ZN24AmiiboCourseInfoDotPartsC1ERKN2al14LayoutInitInfoEPKcS5_PNS0_11LayoutActorE
0000007100098960=_ZNK24AmiiboCourseInfoDotParts6isWaitEv
0000007100098970=_ZN24AmiiboCourseInfoDotParts4waitEv
0000007100098980=_ZN24AmiiboCourseInfoDotParts7tryShowEib
0000007100098A40=_ZN24AmiiboCourseInfoDotParts2onEv
0000007100098A60=_ZN24AmiiboCourseInfoDotParts3offEv
0000007100098A80=_ZN24AmiiboCourseInfoDotParts4hideEv
0000007100098A90=_ZN24AmiiboCourseInfoDotParts3addEv
0000007100098AA0=_ZN24AmiiboCourseInfoDotParts6changeEi
0000007100098AC0=_ZN24AmiiboCourseInfoDotParts6giveUpEv
0000007100098AD0=_ZN24AmiiboCourseInfoDotParts7exeWaitEv
0000007100098B10=_ZN24AmiiboCourseInfoDotParts7exeHideEv
0000007100098B70=_ZN24AmiiboCourseInfoDotParts6exeAddEv
0000007100098C20=_ZN24AmiiboCourseInfoDotParts10exeFadeOutEv
0000007100098CF0=_ZN24AmiiboCourseInfoDotParts9exeFadeInEv
0000007100098D60=_ZN24AmiiboCourseInfoDotParts9exeGiveUpEv
0000007100098F80=_ZN15AmiiboGuideBootC2ERKN2al14LayoutInitInfoEPKcS5_
0000007100099070=_ZN15AmiiboGuideBootC1ERKN2al14LayoutInitInfoEPKcS5_
0000007100099170=_ZN15AmiiboGuideBootD2Ev
00000071000991D0=_ZN15AmiiboGuideBootD1Ev
0000007100099220=_ZN15AmiiboGuideBoot6appearEv
0000007100099300=_ZN15AmiiboGuideBoot10updateModeEb
00000071000993D0=_ZNK15AmiiboGuideBoot16isEnableEndGuideEv
0000007100099420=_ZN15AmiiboGuideBoot8forceEndEv
0000007100099480=_ZN15AmiiboGuideBoot3endEv
00000071000994D0=_ZN15AmiiboGuideBoot9tryDecideEv
0000007100099560=_ZN15AmiiboGuideBoot13setButtonIconEPKc
0000007100099580=_ZN15AmiiboGuideBoot11isDecideEndEv
0000007100099590=_ZNK15AmiiboGuideBoot10isDecidingEv
00000071000995A0=_ZNK15AmiiboGuideBoot8isEndingEv
00000071000995B0=_ZN15AmiiboGuideBoot9exeAppearEv
0000007100099670=_ZN15AmiiboGuideBoot7exeWaitEv
00000071000996C0=_ZN15AmiiboGuideBoot6exeEndEv
00000071000997C0=_ZNK15AmiiboGuideBoot14getConsoleModeEv
00000071000998D0=_ZN18AmiiboGuideMessageC2ERKN2al14LayoutInitInfoEP14GameDataHolderP19SequenceMsgDirectorPKc
0000007100099A90=_ZN18AmiiboGuideMessageC1ERKN2al14LayoutInitInfoEP14GameDataHolderP19SequenceMsgDirectorPKc
0000007100099C40=_ZN18AmiiboGuideMessage18receiveSequenceMsgEPK11SequenceMsg
0000007100099E30=_ZThn304_N18AmiiboGuideMessage18receiveSequenceMsgEPK11SequenceMsg
0000007100099E40=_ZN18AmiiboGuideMessage9startDemoEv
0000007100099E60=_ZN18AmiiboGuideMessage7endDemoEv
0000007100099E80=_ZN18AmiiboGuideMessage7exeWaitEv
0000007100099F90=_ZN18AmiiboGuideMessage10exeGuideInEv
000000710009A020=_ZN18AmiiboGuideMessage11exeGuideOutEv
000000710009A090=_ZN18AmiiboGuideMessage14exeCourseClearEv
000000710009A0D0=_ZNK18AmiiboGuideMessage22getSequenceMsgDirectorEv
000000710009A0E0=_ZThn304_NK18AmiiboGuideMessage22getSequenceMsgDirectorEv
000000710009A2E0=_ZN19AmiiboWindowMessageC2ERKN2al14LayoutInitInfoEPKcS5_
000000710009A3B0=_ZN19AmiiboWindowMessageC1ERKN2al14LayoutInitInfoEPKcS5_
000000710009A480=_ZN19AmiiboWindowMessage6appearEv
000000710009A550=_ZN19AmiiboWindowMessage15registerMessageEPKDs
000000710009A560=_ZN19AmiiboWindowMessage15registerMessageEPKcS1_
000000710009A590=_ZN19AmiiboWindowMessage13setWindowTypeE16AmiiboWindowType
000000710009A630=_ZN19AmiiboWindowMessage9exeAppearEv
000000710009A760=_ZN19AmiiboWindowMessage7exeWaitEv
000000710009A810=_ZN19AmiiboWindowMessage10exePageEndEv
000000710009A880=_ZN19AmiiboWindowMessage12exePageStartEv
000000710009A910=_ZN19AmiiboWindowMessage6exeEndEv
000000710009ABA0=_ZN16ButtonArrowPartsC2ERKN2al14LayoutInitInfoEPKcS5_PNS0_11LayoutActorE
000000710009ACC0=_ZN16ButtonArrowPartsC1ERKN2al14LayoutInitInfoEPKcS5_PNS0_11LayoutActorE
000000710009ADE0=_ZN16ButtonArrowParts7exeWaitEv
000000710009AE30=_ZN16ButtonArrowParts9exeDecideEv
000000710009AEA0=_ZN16ButtonArrowParts7exeHideEv
000000710009AEF0=_ZNK16ButtonArrowParts14isTrigerDecideEv
000000710009AF00=_ZN16ButtonArrowParts11startDecideEv
000000710009AF10=_ZNK16ButtonArrowParts6isHideEv
000000710009AF20=_ZN16ButtonArrowParts7setHideEv
000000710009AF30=_ZN16ButtonArrowParts7setShowEv
000000710009B090=_ZN10ButtonBackC2ERKN2al14LayoutInitInfoE
000000710009B1B0=_ZN10ButtonBack16set2PJourneyModeEv
000000710009B1C0=_ZN10ButtonBack14set2PShareModeEv
000000710009B1D0=_ZN10ButtonBack9set1PModeEv
000000710009B1E0=_ZN10ButtonBackC1ERKN2al14LayoutInitInfoE
000000710009B300=_ZN10ButtonBack6appearEv
000000710009B3B0=_ZN10ButtonBack8movementEv
000000710009B3C0=_ZN10ButtonBack8calcAnimEb
000000710009B3D0=_ZN10ButtonBack2inEv
000000710009B3F0=_ZN10ButtonBack3endEv
000000710009B400=_ZN10ButtonBack8validateEv
000000710009B410=_ZN10ButtonBack10invalidateEv
000000710009B420=_ZN10ButtonBack13tryDecideBackEv
000000710009B460=_ZNK10ButtonBack11isValidBackEv
000000710009B470=_ZNK10ButtonBack15isAppearEndBackEv
000000710009B4F0=_ZNK10ButtonBack15isDecideEndBackEv
000000710009B500=_ZNK10ButtonBack12isDecideBackEv
000000710009B510=_ZNK10ButtonBack11isTouchBackEv
000000710009B520=_ZNK10ButtonBack14checkTouchBackEv
000000710009B530=_ZN10ButtonBack9exeAppearEv
000000710009B580=_ZN10ButtonBack7exeWaitEv
000000710009B630=_ZN10ButtonBack6exeEndEv
000000710009B7C0=_ZN15ButtonBackPartsC2ERKN2al14LayoutInitInfoEPKcS5_PNS0_11LayoutActorE
000000710009B8B0=_ZN15ButtonBackPartsC1ERKN2al14LayoutInitInfoEPKcS5_PNS0_11LayoutActorE
000000710009B9A0=_ZN15ButtonBackParts6appearEv
000000710009BA00=_ZN15ButtonBackParts8movementEv
000000710009BA10=_ZN15ButtonBackParts8calcAnimEb
000000710009BA20=_ZN15ButtonBackParts9set1PModeEv
000000710009BA40=_ZN15ButtonBackParts16set2PJourneyModeEv
000000710009BA60=_ZN15ButtonBackParts14set2PShareModeEv
000000710009BA80=_ZN15ButtonBackParts9tryDecideEv
000000710009BAD0=_ZNK15ButtonBackParts10checkTouchEv
000000710009BB10=_ZNK15ButtonBackParts7isTouchEv
000000710009BB20=_ZNK15ButtonBackParts8isDecideEv
000000710009BB70=_ZNK15ButtonBackParts11isDecideEndEv
000000710009BB80=_ZNK15ButtonBackParts7isValidEv
000000710009BBD0=_ZN15ButtonBackParts8validateEv
000000710009BBE0=_ZN15ButtonBackParts10invalidateEv
000000710009BBF0=_ZN15ButtonBackParts7exeHideEv
000000710009BC30=_ZN15ButtonBackParts9exeAppearEv
000000710009BCA0=_ZN15ButtonBackParts7exeWaitEv
000000710009BD10=_ZN15ButtonBackParts8exeTouchEv
000000710009BE60=_ZN15ButtonBackParts9exeDecideEv
000000710009BF10=_ZN15ButtonBackParts12exeDecideEndEv
000000710009BF20=_ZN15ButtonBackParts6exeEndEv
000000710009BF90=_ZN15ButtonBackParts10exeDisableEv
000000710009C160=nullsub_49
000000710009C230=_ZN17ButtonConfigPartsC2ERKN2al14LayoutInitInfoEPKcS5_PNS0_11LayoutActorE
000000710009C2C0=_ZN17ButtonConfigPartsC1ERKN2al14LayoutInitInfoEPKcS5_PNS0_11LayoutActorE
000000710009C360=_ZN17ButtonConfigParts7exeWaitEv
000000710009C3E0=_ZN17ButtonConfigParts9exeSelectEv
000000710009C460=_ZN17ButtonConfigParts8exeTouchEv
000000710009C520=_ZN17ButtonConfigParts14exeOutsideHoldEv
000000710009C5E0=_ZN17ButtonConfigParts6selectEv
000000710009C630=_ZN17ButtonConfigParts6decideEv
000000710009C640=_ZN17ButtonConfigParts4waitEv
000000710009C650=_ZN17ButtonConfigParts6enableEv
000000710009C6A0=_ZN17ButtonConfigParts7disableEv
000000710009C6F0=_ZNK17ButtonConfigParts9isDisableEv
000000710009C700=_ZN17ButtonConfigParts9exeDecideEv
000000710009C750=_ZN17ButtonConfigParts10exeDisableEv
000000710009C7A0=_ZN17ButtonConfigParts7exeHideEv
000000710009C7F0=_ZNK17ButtonConfigParts8isDecideEv
000000710009C800=_ZNK17ButtonConfigParts11isDecideEndEv
000000710009C860=_ZNK17ButtonConfigParts7isTouchEv
000000710009C8B0=_ZNK17ButtonConfigParts7isValidEv
000000710009C8C0=_ZN17ButtonConfigParts10invalidateEv
000000710009C8D0=_ZN17ButtonConfigParts8validateEv
000000710009C8E0=_ZN17ButtonConfigParts2upEv
000000710009C8F0=_ZN17ButtonConfigParts4downEv
000000710009C900=_ZN17ButtonConfigParts4leftEv
000000710009C910=_ZN17ButtonConfigParts5rightEv
000000710009CAE0=_ZN23ButtonCourseSelectPartsC2ERKN2al14LayoutInitInfoEPKcS5_PNS0_11LayoutActorEb
000000710009CCC0=_ZN23ButtonCourseSelectPartsC1ERKN2al14LayoutInitInfoEPKcS5_PNS0_11LayoutActorEb
000000710009CEC0=_ZN23ButtonCourseSelectParts7exeWaitEv
000000710009CF10=_ZN23ButtonCourseSelectParts9exeDecideEv
000000710009D060=_ZNK23ButtonCourseSelectParts7isBonusEv
000000710009D080=_ZNK23ButtonCourseSelectParts8isManeckEv
000000710009D0A0=_ZN23ButtonCourseSelectParts12exeDecideEndEv
000000710009D0B0=_ZN23ButtonCourseSelectParts10exeDisableEv
000000710009D100=_ZN23ButtonCourseSelectParts7exeHideEv
000000710009D170=_ZN23ButtonCourseSelectParts7exeShowEv
000000710009D1C0=_ZN23ButtonCourseSelectParts7exeLockEv
000000710009D230=_ZN23ButtonCourseSelectParts9exeChangeEv
000000710009D350=_ZNK23ButtonCourseSelectParts6isLockEv
000000710009D370=_ZN23ButtonCourseSelectParts6setNewEv
000000710009D390=_ZN23ButtonCourseSelectParts9setNormalEv
000000710009D3B0=_ZN23ButtonCourseSelectParts6decideEv
000000710009D3C0=_ZN23ButtonCourseSelectParts6selectEv
000000710009D3D0=_ZN23ButtonCourseSelectParts4waitEv
000000710009D3E0=_ZN23ButtonCourseSelectParts6enableEv
000000710009D440=_ZN23ButtonCourseSelectParts7disableEv
000000710009D490=_ZN23ButtonCourseSelectParts4hideEv
000000710009D4A0=_ZN23ButtonCourseSelectParts4showEv
000000710009D4B0=_ZN23ButtonCourseSelectParts4lockEv
000000710009D4C0=_ZN23ButtonCourseSelectParts6changeEv
000000710009D4D0=_ZN23ButtonCourseSelectParts8setClearEv
000000710009D4F0=_ZN23ButtonCourseSelectParts9setAssistEv
000000710009D500=_ZN23ButtonCourseSelectParts7setLockEv
000000710009D520=_ZN23ButtonCourseSelectParts8setBonusEv
000000710009D540=_ZN23ButtonCourseSelectParts9setManeckEv
000000710009D560=_ZNK23ButtonCourseSelectParts8isNormalEv
000000710009D580=_ZNK23ButtonCourseSelectParts9isDisableEv
000000710009D5D0=_ZN23ButtonCourseSelectParts10invalidateEv
000000710009D6E0=_ZN23ButtonCourseSelectParts8validateEv
000000710009D800=_ZNK23ButtonCourseSelectParts6isWaitEv
000000710009D810=_ZNK23ButtonCourseSelectParts8isDecideEv
000000710009D820=_ZNK23ButtonCourseSelectParts11isDecideEndEv
000000710009D830=_ZNK23ButtonCourseSelectParts7isTouchEv
000000710009D840=_ZNK23ButtonCourseSelectParts7isValidEv
000000710009D850=_ZN23ButtonCourseSelectParts2upEv
000000710009D860=_ZN23ButtonCourseSelectParts4downEv
000000710009D870=_ZN23ButtonCourseSelectParts4leftEv
000000710009D880=_ZN23ButtonCourseSelectParts5rightEv
000000710009D8E0=nullsub_50
000000710009DAA0=_ZN17ButtonCursorPartsC2ERKN2al14LayoutInitInfoEPKcS5_PNS0_11LayoutActorE
000000710009DB80=_ZN17ButtonCursorPartsC1ERKN2al14LayoutInitInfoEPKcS5_PNS0_11LayoutActorE
000000710009DC60=_ZN17ButtonCursorParts9exeAppearEv
000000710009DCE0=_ZN17ButtonCursorParts6updateEv
000000710009DE30=_ZN17ButtonCursorParts7exeWaitEv
000000710009DE70=_ZN17ButtonCursorParts4hideEv
000000710009DEB0=_ZN17ButtonCursorParts4showEv
000000710009DEC0=_ZN17ButtonCursorParts7exeHideEv
000000710009DED0=_ZN17ButtonCursorParts3setEPKN2al10IUseLayoutE
000000710009DF50=_ZN17ButtonCursorParts9setAppearEPKN2al10IUseLayoutE
000000710009DFB0=_ZN17ButtonCursorParts5resetEv
000000710009DFC0=_ZN17ButtonCursorParts6isWaitEv
000000710009DFD0=_ZNK17ButtonCursorParts12isWaitAppearEv
000000710009DFE0=nullsub_51
000000710009E0C0=_ZN11ButtonGroupC2ERKN2al14LayoutInitInfoEPNS0_11LayoutActorEPKcS7_S7_
000000710009E3C0=_ZN11ButtonGroup19registerButtonLocalEP12CursorTarget
000000710009E3F0=_ZN11ButtonGroup20setCursorDestinationEPN2al9ByamlIterEb
000000710009E640=_ZN11ButtonGroup6updateEv
000000710009EA50=_ZNK11ButtonGroup31findButtonSelectableFromCurrentEv
000000710009EB20=_ZNK11ButtonGroup16getButtonTouchedEv
000000710009EBA0=_ZN11ButtonGroup6selectEP12CursorTarget
000000710009EC00=_ZN11ButtonGroup13updateNoTouchEv
000000710009ED40=_ZN11ButtonGroup22updateAndCursorDefaultEib
000000710009EED0=_ZNK11ButtonGroup11isDecideAnyEv
000000710009EF50=_ZN11ButtonGroup14registerButtonEPN2al11LayoutActorEP12CursorTarget
000000710009EF80=_ZN11ButtonGroup16resetDestinationEPKcS1_S1_S1_S1_
000000710009F320=_ZN11ButtonGroup14setDestinationEPKcS1_S1_S1_S1_
000000710009F5B0=_ZNK11ButtonGroup9getButtonEPKc
000000710009F650=_ZN11ButtonGroup14setDestinationEP12CursorTargetS1_S1_S1_S1_
000000710009F6D0=_ZN11ButtonGroup5resetEv
000000710009F730=_ZN11ButtonGroup6selectEPKc
000000710009F7D0=_ZN11ButtonGroup10showCursorEv
000000710009F7F0=_ZN11ButtonGroup16showCursorAppearEv
000000710009F830=_ZN11ButtonGroup10hideCursorEv
000000710009F840=_ZN11ButtonGroup10invalidateEv
000000710009F890=_ZN11ButtonGroup8validateEv
000000710009F8E0=_ZN11ButtonGroup4waitEv
000000710009F930=_ZN11ButtonGroup23reloadCursorDestinationEPKcS1_
000000710009FA10=_ZN11ButtonGroup6decideEPKc
000000710009FAC0=_ZNK11ButtonGroup7isTouchEPKc
000000710009FB60=_ZNK11ButtonGroup8isSelectEPKc
000000710009FBA0=_ZNK11ButtonGroup8isSelectEP12CursorTarget
000000710009FBB0=_ZNK11ButtonGroup8isDecideEPKc
000000710009FCB0=_ZNK11ButtonGroup11isDecideEndEPKc
000000710009FDB0=_ZNK11ButtonGroup14isDecideEndAnyEv
000000710009FE30=_ZNK11ButtonGroup18isWaitCursorAppearEv
000000710009FE40=_ZNK11ButtonGroup15getButtonDecideEv
000000710009FEC0=_ZNK11ButtonGroup13isExistButtonEPKc
000000710009FF70=_ZNK11ButtonGroup21getSelectedButtonNameEv
000000710009FF80=_ZN11ButtonGroup8setColorEPKc
00000071000A0040=_ZN11ButtonGroup7tryMoveEi
00000071000A00A0=def_71000A0078
00000071000A02D0=_ZN11ButtonGroup20findMoveTargetButtonEP12CursorTargeti
00000071000A0400=_ZNK11ButtonGroup19findDestinationInfoEP12CursorTarget
00000071000A0450=_ZN15ButtonPixelToadC2ERKN2al14LayoutInitInfoE
00000071000A0540=_ZN15ButtonPixelToadC1ERKN2al14LayoutInitInfoE
00000071000A0630=_ZN15ButtonPixelToad6appearEv
00000071000A0660=_ZN15ButtonPixelToad8movementEv
00000071000A0670=_ZN15ButtonPixelToad8calcAnimEb
00000071000A0680=_ZNK15ButtonPixelToad8isActiveEv
00000071000A0690=_ZN15ButtonPixelToad2inEv
00000071000A06C0=_ZN15ButtonPixelToad3endEv
00000071000A06D0=_ZN15ButtonPixelToad8validateEv
00000071000A06E0=_ZN15ButtonPixelToad10invalidateEv
00000071000A06F0=_ZN15ButtonPixelToad13tryDecideBackEv
00000071000A0730=_ZNK15ButtonPixelToad11isValidBackEv
00000071000A0740=_ZNK15ButtonPixelToad15isAppearEndBackEv
00000071000A07C0=_ZNK15ButtonPixelToad15isDecideEndBackEv
00000071000A07D0=_ZNK15ButtonPixelToad12isDecideBackEv
00000071000A07E0=_ZNK15ButtonPixelToad11isTouchBackEv
00000071000A07F0=_ZNK15ButtonPixelToad14checkTouchBackEv
00000071000A0800=_ZN15ButtonPixelToad8stopAnimEv
00000071000A0810=_ZN15ButtonPixelToad9startAnimEv
00000071000A0820=_ZN15ButtonPixelToad7setIconEPKc
00000071000A0840=_ZN15ButtonPixelToad4hideEv
00000071000A0850=_ZN15ButtonPixelToad9setActiveEb
00000071000A0860=_ZNK15ButtonPixelToad7isTouchEv
00000071000A0870=_ZNK15ButtonPixelToad8isDecideEv
00000071000A0880=_ZN15ButtonPixelToad9tryDecideEv
00000071000A08E0=_ZNK15ButtonPixelToad8isAppearEv
00000071000A08F0=_ZN15ButtonPixelToad5exeInEv
00000071000A0900=_ZN15ButtonPixelToad9exeAppearEv
00000071000A0910=_ZN15ButtonPixelToad7exeWaitEv
00000071000A09C0=_ZN15ButtonPixelToad6exeEndEv
00000071000A0A00=_ZN15ButtonPixelToad9exeDecideEv
00000071000A0AD0=_ZN15ButtonPixelToad12exeDecideEndEv
00000071000A0AE0=nullsub_52
00000071000A0C20=nullsub_53
00000071000A0C30=_ZN27ButtonShortCutAndTouchPartsC2ERKN2al14LayoutInitInfoEPKcS5_PNS0_11LayoutActorEiNS_12ShortCutTypeE
00000071000A0D10=_ZN27ButtonShortCutAndTouchPartsC1ERKN2al14LayoutInitInfoEPKcS5_PNS0_11LayoutActorEiNS_12ShortCutTypeE
00000071000A0DF0=_ZN27ButtonShortCutAndTouchParts6appearEv
00000071000A0E20=_ZN27ButtonShortCutAndTouchParts4hideEv
00000071000A0E30=_ZN27ButtonShortCutAndTouchParts3endEv
00000071000A0E40=_ZN27ButtonShortCutAndTouchParts4waitEv
00000071000A0E50=_ZN27ButtonShortCutAndTouchParts9tryDecideEv
00000071000A0EA0=_ZNK27ButtonShortCutAndTouchParts7isTouchEv
00000071000A0EB0=_ZNK27ButtonShortCutAndTouchParts8isDecideEv
00000071000A0F00=_ZNK27ButtonShortCutAndTouchParts11isDecideEndEv
00000071000A0F10=_ZNK27ButtonShortCutAndTouchParts6isWaitEv
00000071000A0F20=_ZNK27ButtonShortCutAndTouchParts6isHideEv
00000071000A0F30=_ZNK27ButtonShortCutAndTouchParts8isActiveEv
00000071000A0FB0=_ZN27ButtonShortCutAndTouchParts11exeDeactiveEv
00000071000A0FC0=_ZN27ButtonShortCutAndTouchParts9exeAppearEv
00000071000A1030=_ZN27ButtonShortCutAndTouchParts7exeWaitEv
00000071000A1130=_ZN27ButtonShortCutAndTouchParts8exeTouchEv
00000071000A12A0=_ZN27ButtonShortCutAndTouchParts9exeDecideEv
00000071000A1350=_ZN27ButtonShortCutAndTouchParts7exeHideEv
00000071000A1390=_ZN27ButtonShortCutAndTouchParts6exeEndEv
00000071000A1400=nullsub_54
00000071000A1610=nullsub_55
00000071000A1630=_ZN19ButtonShortCutPartsC2ERKN2al14LayoutInitInfoEPKcS5_PNS0_11LayoutActorEiNS_12ShortCutTypeE
00000071000A1710=_ZN19ButtonShortCutPartsC1ERKN2al14LayoutInitInfoEPKcS5_PNS0_11LayoutActorEiNS_12ShortCutTypeE
00000071000A17E0=_ZN19ButtonShortCutParts6appearEv
00000071000A1810=_ZN19ButtonShortCutParts3endEv
00000071000A1860=_ZN19ButtonShortCutParts7setHideEv
00000071000A1870=_ZNK19ButtonShortCutParts8isDecideEv
00000071000A1880=_ZNK19ButtonShortCutParts6isWaitEv
00000071000A1890=_ZNK19ButtonShortCutParts17isEndAndActionEndEv
00000071000A18E0=_ZNK19ButtonShortCutParts6isHideEv
00000071000A18F0=_ZN19ButtonShortCutParts9exeAppearEv
00000071000A1960=_ZN19ButtonShortCutParts7exeWaitEv
00000071000A19D0=_ZN19ButtonShortCutParts9exeDecideEv
00000071000A19E0=_ZN19ButtonShortCutParts7exeHideEv
00000071000A1A20=_ZN19ButtonShortCutParts6exeEndEv
00000071000A1BE0=nullsub_56
00000071000A1BF0=_ZN21ButtonSquareIconPartsC2ERKN2al14LayoutInitInfoEPKcS5_PNS0_11LayoutActorEb
00000071000A1C90=_ZN21ButtonSquareIconPartsC1ERKN2al14LayoutInitInfoEPKcS5_PNS0_11LayoutActorEb
00000071000A1D40=_ZN21ButtonSquareIconParts7exeWaitEv
00000071000A1DF0=_ZN21ButtonSquareIconParts9exeSelectEv
00000071000A1ED0=_ZN21ButtonSquareIconParts8exeTouchEv
00000071000A1FE0=_ZN21ButtonSquareIconParts14exeOutsideHoldEv
00000071000A20F0=_ZN21ButtonSquareIconParts6selectEv
00000071000A2140=_ZN21ButtonSquareIconParts6decideEv
00000071000A2150=_ZN21ButtonSquareIconParts4waitEv
00000071000A2160=_ZN21ButtonSquareIconParts6enableEv
00000071000A21C0=_ZN21ButtonSquareIconParts7disableEv
00000071000A2210=_ZN21ButtonSquareIconParts4hideEv
00000071000A2220=_ZNK21ButtonSquareIconParts9isDisableEv
00000071000A2270=_ZN21ButtonSquareIconParts9exeDecideEv
00000071000A22E0=_ZN21ButtonSquareIconParts10exeDisableEv
00000071000A2330=_ZN21ButtonSquareIconParts7exeHideEv
00000071000A23A0=_ZNK21ButtonSquareIconParts8isDecideEv
00000071000A23B0=_ZNK21ButtonSquareIconParts11isDecideEndEv
00000071000A2410=_ZNK21ButtonSquareIconParts7isTouchEv
00000071000A2460=_ZNK21ButtonSquareIconParts7isValidEv
00000071000A2470=_ZN21ButtonSquareIconParts10invalidateEv
00000071000A2480=_ZN21ButtonSquareIconParts8validateEv
00000071000A2490=_ZN21ButtonSquareIconParts2upEv
00000071000A24A0=_ZN21ButtonSquareIconParts4downEv
00000071000A24B0=_ZN21ButtonSquareIconParts4leftEv
00000071000A24C0=_ZN21ButtonSquareIconParts5rightEv
00000071000A2660=_ZN21ButtonTextScrollPartsC2ERKN2al14LayoutInitInfoEPKcS5_PNS0_11LayoutActorES5_PS5_i
00000071000A27A0=_ZN21ButtonTextScrollPartsC1ERKN2al14LayoutInitInfoEPKcS5_PNS0_11LayoutActorES5_PS5_i
00000071000A2900=_ZN21ButtonTextScrollParts7controlEv
00000071000A2910=_ZN21ButtonTextScrollParts7exeWaitEv
00000071000A2AA0=_ZN21ButtonTextScrollParts9exeSelectEv
00000071000A2C00=_ZN21ButtonTextScrollParts14exeTouchCenterEv
00000071000A2DA0=_ZN21ButtonTextScrollParts13exeTouchRightEv
00000071000A2F40=_ZN21ButtonTextScrollParts12exeTouchLeftEv
00000071000A30E0=_ZN21ButtonTextScrollParts14exeOutsideHoldEv
00000071000A3240=_ZN21ButtonTextScrollParts16exeTextScrollOutEv
00000071000A33A0=_ZN21ButtonTextScrollParts15exeTextScrollInEv
00000071000A3490=_ZN21ButtonTextScrollParts6selectEv
00000071000A3500=_ZNK21ButtonTextScrollParts15isEnableControlEv
00000071000A3580=_ZN21ButtonTextScrollParts6decideEv
00000071000A3590=_ZN21ButtonTextScrollParts4waitEv
00000071000A35A0=_ZN21ButtonTextScrollParts6enableEv
00000071000A35F0=_ZN21ButtonTextScrollParts7disableEv
00000071000A3640=_ZN21ButtonTextScrollParts9setHeaderEPKcS1_
00000071000A3680=_ZN21ButtonTextScrollParts12setLabelListEPPKci
00000071000A3690=_ZNK21ButtonTextScrollParts9isDisableEv
00000071000A36A0=_ZN21ButtonTextScrollParts9exeDecideEv
00000071000A36F0=_ZN21ButtonTextScrollParts10exeDisableEv
00000071000A3770=_ZN21ButtonTextScrollParts7exeHideEv
00000071000A37C0=_ZNK21ButtonTextScrollParts8isDecideEv
00000071000A37D0=_ZNK21ButtonTextScrollParts11isDecideEndEv
00000071000A3830=_ZNK21ButtonTextScrollParts7isTouchEv
00000071000A38A0=_ZN21ButtonTextScrollParts4leftEv
00000071000A3980=_ZN21ButtonTextScrollParts5rightEv
00000071000A3A30=_ZN21ButtonTextScrollParts11setLabelIdxEi
00000071000A3A90=_ZNK21ButtonTextScrollParts7isValidEv
00000071000A3AA0=_ZN21ButtonTextScrollParts10invalidateEv
00000071000A3AB0=_ZN21ButtonTextScrollParts8validateEv
00000071000A3AC0=_ZN21ButtonTextScrollParts2upEv
00000071000A3AD0=_ZN21ButtonTextScrollParts4downEv
00000071000A3C30=_ZN16ButtonTouchParamC2Ev
00000071000A3C50=_ZN16ButtonTouchParamC2EPKcS1_
00000071000A3C60=_ZN11ButtonTouchC1EPKcPN2al11LayoutActorEPK16ButtonTouchParam
00000071000A3CF0=_ZN11ButtonTouch6updateEv
00000071000A3D00=_ZN11ButtonTouch8hidePaneEv
00000071000A3D30=_ZN11ButtonTouch8showPaneEv
00000071000A3D70=_ZN11ButtonTouch11startAppearEv
00000071000A3D80=_ZN11ButtonTouch8startEndEv
00000071000A3D90=_ZN11ButtonTouch14setTouchEnableEv
00000071000A3DA0=_ZN11ButtonTouch15setTouchDisableEv
00000071000A3DB0=_ZNK11ButtonTouch13isTrigerTouchEv
00000071000A3E00=_ZNK11ButtonTouch14isTrigerDecideEv
00000071000A3E50=_ZNK11ButtonTouch8isDecideEv
00000071000A3E60=_ZNK11ButtonTouch11isDecideEndEv
00000071000A3E70=_ZNK11ButtonTouch11isTouchPaneEv
00000071000A3EB0=_ZNK11ButtonTouch11isTouchHoldEv
00000071000A3F00=_ZNK11ButtonTouch6isWaitEv
00000071000A3F10=_ZN11ButtonTouch5resetEv
00000071000A3F20=_ZN11ButtonTouch11startDecideEv
00000071000A3F30=_ZN11ButtonTouch9exeAppearEv
00000071000A3FD0=_ZN11ButtonTouch7exeWaitEv
00000071000A4050=_ZN11ButtonTouch6exeEndEv
00000071000A40C0=_ZN11ButtonTouch7exeHideEv
00000071000A4110=_ZN11ButtonTouch8exeTouchEv
00000071000A4200=_ZN11ButtonTouch14exeOutsideHoldEv
00000071000A4310=_ZN11ButtonTouch9exeDecideEv
00000071000A43B0=_ZN11ButtonTouch12exeDecideEndEv
00000071000A43C0=_ZN11ButtonTouchD0Ev
00000071000A4580=nullsub_57
00000071000A45A0=_ZN10CameraIconC2ERKN2al14LayoutInitInfoE
00000071000A4670=_ZN10CameraIconC1ERKN2al14LayoutInitInfoE
00000071000A4730=_ZN10CameraIcon11startAppearEb
00000071000A47A0=_ZN10CameraIcon8startEndEv
00000071000A47F0=_ZN10CameraIcon5resetEv
00000071000A4880=_ZN10CameraIcon15setCameraNoIconEv
00000071000A4920=_ZN10CameraIcon9exeAppearEv
00000071000A49E0=_ZN10CameraIcon7exeWaitEv
00000071000A4A50=_ZN10CameraIcon11exeNoCameraEv
00000071000A4AD0=_ZN10CameraIcon6exeEndEv
00000071000A4D30=_ZN13EdgeGlowPartsC2ERKN2al14LayoutInitInfoEPKcS5_PNS0_11LayoutActorE
00000071000A4E30=_ZN13EdgeGlowPartsC1ERKN2al14LayoutInitInfoEPKcS5_PNS0_11LayoutActorE
00000071000A4F30=_ZN13EdgeGlowParts4showEv
00000071000A4F50=_ZN13EdgeGlowParts4hideEv
00000071000A4F60=_ZN13EdgeGlowParts8setColorEPKc
00000071000A4F70=_ZN13EdgeGlowParts9exeAppearEv
00000071000A4FE0=_ZN13EdgeGlowParts7exeWaitEv
00000071000A5020=_ZN13EdgeGlowParts6exeEndEv
00000071000A5070=_ZN13EdgeGlowParts7exeHideEv
00000071000A5220=_ZN13CollectNumberC2ERKN2al14LayoutInitInfoEPKcS5_
00000071000A5300=_ZN13CollectNumberC1ERKN2al14LayoutInitInfoEPKcS5_
00000071000A53F0=_ZN13CollectNumber6appearEv
00000071000A5420=_ZN13CollectNumber12appearNormalEPKN4sead7Vector3IfEEi
00000071000A54E0=_ZN13CollectNumber12appearNormalERKN4sead7Vector3IfEEi
00000071000A55B0=_ZN13CollectNumber14appearCompleteEPKN4sead7Vector3IfEEi
00000071000A5680=_ZN13CollectNumber14appearCompleteERKN4sead7Vector3IfEEi
00000071000A5760=_ZN13CollectNumber9exeAppearEv
00000071000A5860=_ZN12CounterBonusC2ERKN2al14LayoutInitInfoE
00000071000A5940=_ZN12CounterBonus8setCountEi
00000071000A5960=_ZN12CounterBonusC1ERKN2al14LayoutInitInfoE
00000071000A5A50=_ZN12CounterBonus6appearEb
00000071000A5AB0=_ZNK12CounterBonus11isAppearEndEv
00000071000A5AE0=_ZN12CounterBonus8startEndEv
00000071000A5B30=_ZN12CounterBonus9exeAppearEv
00000071000A5B80=_ZN12CounterBonus7exeWaitEv
00000071000A5BE0=_ZN12CounterBonus6exeEndEv
00000071000A5D80=_ZN16CounterCoinPartsC2ERKN2al14LayoutInitInfoEPKcS5_PNS0_11LayoutActorEPK14GameDataHolder
00000071000A5EE0=_ZN4sead22WFormatFixedSafeStringILi7EEC2EPKDsz
00000071000A5FB0=_ZN4sead14SafeStringBaseIDsED2Ev
00000071000A5FC0=_ZN16CounterCoinPartsC1ERKN2al14LayoutInitInfoEPKcS5_PNS0_11LayoutActorEPK14GameDataHolder
00000071000A6120=_ZN16CounterCoinParts7controlEv
00000071000A6130=_ZN16CounterCoinParts11startResultEv
00000071000A6140=_ZN16CounterCoinParts13startWipeWaitEv
00000071000A61E0=_ZNK16CounterCoinParts10isWipeWaitEv
00000071000A61F0=_ZN16CounterCoinParts8validateEv
00000071000A6290=_ZN16CounterCoinParts10invalidateEv
00000071000A62A0=_ZN16CounterCoinParts7exeWaitEv
00000071000A6390=_ZN16CounterCoinParts11exeWipeWaitEv
00000071000A63D0=_ZN16CounterCoinParts9exeResultEv
00000071000A6520=_ZN4sead22WFormatFixedSafeStringILi7EED0Ev
00000071000A6530=_ZN4sead16WFixedSafeStringILi7EEaSERKNS_14SafeStringBaseIDsEE
00000071000A6620=_ZN4sead22BufferedSafeStringBaseIDsED0Ev
00000071000A6630=_ZN23CounterCollectItemPartsC2ERKN2al14LayoutInitInfoEPKcS5_PNS0_11LayoutActorEPK21CollectItemInfoKeeper
00000071000A6730=_ZN23CounterCollectItemPartsC1ERKN2al14LayoutInitInfoEPKcS5_PNS0_11LayoutActorEPK21CollectItemInfoKeeper
00000071000A6830=_ZN23CounterCollectItemPartsC2ERKN2al14LayoutInitInfoEPKcS5_PNS0_11LayoutActorEPK24CheckPointGameInfoKeeper
00000071000A6930=_ZN23CounterCollectItemPartsC1ERKN2al14LayoutInitInfoEPKcS5_PNS0_11LayoutActorEPK24CheckPointGameInfoKeeper
00000071000A6A30=_ZN23CounterCollectItemPartsC2ERKN2al14LayoutInitInfoEPKcS5_PNS0_11LayoutActorEPK21CollectItemInfoKeeperPK24CheckPointGameInfoKeeper
00000071000A6B80=_ZN23CounterCollectItemPartsC1ERKN2al14LayoutInitInfoEPKcS5_PNS0_11LayoutActorEPK21CollectItemInfoKeeperPK24CheckPointGameInfoKeeper
00000071000A6CC0=_ZN23CounterCollectItemParts7controlEv
00000071000A6CD0=_ZN23CounterCollectItemParts7exeWaitEv
00000071000A7020=_ZN23CounterCollectItemParts26setPaneAcquiredCollectItemEv
00000071000A7290=_ZN23CounterCollectItemParts17exeWaitCheckpointEv
00000071000A7770=_ZN23CounterCollectItemParts22exeCheckpointDecrementEv
00000071000A7A40=_ZNK23CounterCollectItemParts12getDemoTransEi
00000071000A7AA0=_ZN4sead16WFixedSafeStringILi64EED0Ev
00000071000A7AB0=_ZN4sead16WFixedSafeStringILi64EEaSERKNS_14SafeStringBaseIDsEE
00000071000A7BA0=_ZN4sead14SafeStringBaseIDsED0Ev
00000071000A7BB0=_ZNK4sead14SafeStringBaseIDsE22assureTerminationImpl_Ev
00000071000A7BC0=_ZN17CounterFloorPartsC2ERKN2al14LayoutInitInfoEPKcS5_PNS0_11LayoutActorE
00000071000A7C80=_ZN17CounterFloorPartsC1ERKN2al14LayoutInitInfoEPKcS5_PNS0_11LayoutActorE
00000071000A7D30=_ZN17CounterFloorParts13setFloorCountEi
00000071000A7DA0=_ZN17CounterFloorParts11setDLCColorEv
00000071000A7DC0=_ZN17CounterFloorParts4waitEv
00000071000A7DD0=_ZN17CounterFloorParts4hideEv
00000071000A7DE0=_ZN17CounterFloorParts5countEv
00000071000A7DF0=_ZN17CounterFloorParts7exeWaitEv
00000071000A7E30=_ZN17CounterFloorParts7exeHideEv
00000071000A7E70=_ZN17CounterFloorParts8exeCountEv
00000071000A7FF0=_ZN22CounterItemSeasonPartsC2ERKN2al14LayoutInitInfoEPKcS5_PNS0_11LayoutActorEPK14GameDataHolder
00000071000A8110=_ZN22CounterItemSeasonParts11setSeasonIdEi
00000071000A8180=_ZN22CounterItemSeasonPartsC1ERKN2al14LayoutInitInfoEPKcS5_PNS0_11LayoutActorEPK14GameDataHolder
00000071000A82B0=_ZN22CounterItemSeasonParts9startFadeEi
00000071000A82D0=_ZN22CounterItemSeasonParts7setWaitEv
00000071000A82E0=_ZN22CounterItemSeasonParts7exeWaitEv
00000071000A8320=_ZN22CounterItemSeasonParts9exeFadeInEv
00000071000A8390=_ZN22CounterItemSeasonParts10exeFadeOutEv
00000071000A8520=_ZN11CounterLockC2ERKN2al14LayoutInitInfoEP19SequenceMsgDirector
00000071000A8620=_ZN11CounterLockC1ERKN2al14LayoutInitInfoEP19SequenceMsgDirector
00000071000A8710=_ZN11CounterLock18receiveSequenceMsgEPK11SequenceMsg
00000071000A8820=_ZThn304_N11CounterLock18receiveSequenceMsgEPK11SequenceMsg
00000071000A8830=_ZN11CounterLock11setGemColorEPKc
00000071000A8840=_ZN11CounterLock9exeAppearEv
00000071000A88B0=_ZN11CounterLock7exeWaitEv
00000071000A88F0=_ZN11CounterLock7exeLockEv
00000071000A8960=_ZN11CounterLock6exeEndEv
00000071000A89D0=_ZNK11CounterLock22getSequenceMsgDirectorEv
00000071000A89E0=_ZThn304_NK11CounterLock22getSequenceMsgDirectorEv
00000071000A8B90=_ZN17CounterPlayerInfoC2ERKN2al14LayoutInitInfoEPK14GameDataHolder
00000071000A8C90=_ZN17CounterPlayerInfoC1ERKN2al14LayoutInitInfoEPK14GameDataHolder
00000071000A8D90=_ZN17CounterPlayerInfo6appearEv
00000071000A8E00=_ZN17CounterPlayerInfo13exeAppearWaitEv
00000071000A8E70=_ZN17CounterPlayerInfo9exeAppearEv
00000071000A8EE0=_ZN17CounterPlayerInfo7exeWaitEv
00000071000A8F40=_ZN17CounterPlayerInfo11exeShowMissEv
00000071000A8FE0=_ZN17CounterPlayerInfo6exeEndEv
00000071000A92C0=_ZN18CounterPlayerPartsC2ERKN2al14LayoutInitInfoEPKcS5_PNS0_11LayoutActorEPK18PlayerAliveWatcherb
00000071000A93A0=_ZN18CounterPlayerPartsC1ERKN2al14LayoutInitInfoEPKcS5_PNS0_11LayoutActorEPK18PlayerAliveWatcherb
00000071000A9480=_ZN18CounterPlayerParts16initShowMissDataEPK22GameDataHolderAccessor
00000071000A94C0=_ZN18CounterPlayerParts17setPlayerAndCountE22GameDataHolderAccessorb
00000071000AA1F0=_ZN18CounterPlayerParts8showMissEPK22GameDataHolderAccessor
00000071000AA240=_ZN18CounterPlayerParts9startDemoEv
00000071000AA250=_ZN18CounterPlayerParts7endDemoEv
00000071000AA260=_ZN18CounterPlayerParts24exeShowActiveWaitAndStopEv
00000071000AA2E0=_ZN18CounterPlayerParts7exeWaitEv
00000071000AA400=_ZN18CounterPlayerParts11exeShowMissEv
00000071000AA410=_ZN4sead22WFormatFixedSafeStringILi16EEC2EPKDsz
00000071000AA4E0=nullsub_58
00000071000AA580=_ZN4sead16WFixedSafeStringILi8EED0Ev
00000071000AA590=_ZN4sead16WFixedSafeStringILi8EEaSERKNS_14SafeStringBaseIDsEE
00000071000AA680=_ZN4sead22WFormatFixedSafeStringILi16EED0Ev
00000071000AA690=_ZN4sead16WFixedSafeStringILi16EEaSERKNS_14SafeStringBaseIDsEE
00000071000AA780=_ZN16CounterTimePartsC2ERKN2al14LayoutInitInfoEPKcS5_PNS0_11LayoutActorE
00000071000AA840=_ZN16CounterTimePartsC1ERKN2al14LayoutInitInfoEPKcS5_PNS0_11LayoutActorE
00000071000AA8F0=_ZNK16CounterTimeParts6isShowEv
00000071000AA940=_ZN16CounterTimeParts12setTimeCountEi
00000071000AA9B0=_ZN4sead22WFormatFixedSafeStringILi4EEC2EPKDsz
00000071000AAA80=_ZN16CounterTimeParts4waitEv
00000071000AAA90=_ZN16CounterTimeParts4hideEv
00000071000AAAA0=_ZN16CounterTimeParts4showEv
00000071000AAAB0=_ZN16CounterTimeParts7exeWaitEv
00000071000AAAF0=_ZN16CounterTimeParts7exeHideEv
00000071000AAB30=_ZN16CounterTimeParts7exeShowEv
00000071000AACB0=_ZN4sead22WFormatFixedSafeStringILi4EED0Ev
00000071000AACC0=_ZN4sead16WFixedSafeStringILi4EEaSERKNS_14SafeStringBaseIDsEE
00000071000AADB0=_ZN15CounterWarpCubeC2ERKN2al14LayoutInitInfoEP8WarpCubei
00000071000AB060=_ZN15CounterWarpCubeC1ERKN2al14LayoutInitInfoEP8WarpCubei
00000071000AB320=_ZN15CounterWarpCube6appearEv
00000071000AB350=_ZN15CounterWarpCube8addCountEPKN2al9LiveActorEPNS0_9HitSensorE
00000071000AB5C0=_ZN15CounterWarpCube9exeAppearEv
00000071000AB690=_ZN15CounterWarpCube7exeWaitEv
00000071000AB6D0=_ZN15CounterWarpCube6exeAddEv
00000071000AB790=_ZN15CounterWarpCube11exeCompleteEv
00000071000AB840=_ZN15CounterWarpCube6exeEndEv
00000071000AB900=_ZN4sead22WFormatFixedSafeStringILi10EEC2EPKDsz
00000071000AB9D0=_ZN4sead22WFormatFixedSafeStringILi10EED0Ev
00000071000AB9E0=_ZN4sead16WFixedSafeStringILi10EEaSERKNS_14SafeStringBaseIDsEE
00000071000ABCD0=_ZN10CourseBookC2EP19SequenceMsgDirectorRKN2al14LayoutInitInfoEii
00000071000AC150=_ZN10CourseBookC1EP19SequenceMsgDirectorRKN2al14LayoutInitInfoEii
00000071000AC5C0=_ZN10CourseBook17registerRightPageEP18CourseBookPageBaseii
00000071000AC640=_ZN10CourseBook16registerLeftPageEP18CourseBookPageBaseii
00000071000AC6C0=_ZN10CourseBook16registerPageInfoEii
00000071000AC730=_ZN10CourseBook17registerBonusInfoEii
00000071000AC750=_ZN10CourseBook7endInitERKN2al14LayoutInitInfoE
00000071000AC8D0=_ZN10CourseBook10invalidateEv
00000071000AC930=_ZN10CourseBook6appearEv
00000071000ACAB0=_ZNK10CourseBook24getLastPlayCoursePageIdxEv
00000071000ACBB0=_ZNK10CourseBook26getPageCourseIdFromPageIdxEi
00000071000ACBD0=_ZN10CourseBook21appearWithAlreadyOpenEv
00000071000ACE60=_ZN10CourseBook8movementEv
00000071000ACEC0=_ZN10CourseBook8calcAnimEb
00000071000ACF30=_ZN10CourseBook18receiveSequenceMsgEPK11SequenceMsg
00000071000AD980=_ZN10CourseBook18hideCourseLockInfoEv
00000071000AD9F0=_ZN10CourseBook12tryHideAIconEv
00000071000ADAB0=_ZN10CourseBook18showCourseLockInfoEv
00000071000ADCA0=_ZN10CourseBook8validateEv
00000071000ADD10=_ZN10CourseBook12tryShowAIconEv
00000071000ADDB0=_ZNK10CourseBook26getPagePageIdxFromCourseIdEi
00000071000ADE40=_ZN10CourseBook16tryStartLoopAnimEv
00000071000ADEA0=_ZN10CourseBook14tryStartUnlockEb
00000071000ADF70=_ZThn304_N10CourseBook18receiveSequenceMsgEPK11SequenceMsg
00000071000ADF80=_ZNK10CourseBook22getShowPageCourseIndexEv
00000071000ADFB0=_ZNK10CourseBook25calcPageIndexFromCourseIdEi
00000071000AE040=_ZNK10CourseBook23calcShowPageButtonTransEPN4sead7Vector3IfEE
00000071000AE070=_ZNK10CourseBook22calcShowRightPageTransEPN4sead7Vector3IfEE
00000071000AE0C0=_ZNK10CourseBook6isWaitEv
00000071000AE0D0=_ZN10CourseBook30tryFindSideTouchedRightPageIdxERKN4sead7Vector2IfEE
00000071000AE1B0=_ZN10CourseBook29tryFindTopTouchedRightPageIdxERKN4sead7Vector2IfEE
00000071000AE260=_ZN10CourseBook29tryFindSideTouchedLeftPageIdxERKN4sead7Vector2IfEE
00000071000AE360=_ZN10CourseBook28tryFindTopTouchedLeftPageIdxERKN4sead7Vector2IfEE
00000071000AE410=_ZN10CourseBook23tryTurnOverShowLeftPageEv
00000071000AE420=_ZN10CourseBook19tryTurnOverLeftPageEi
00000071000AE5E0=_ZN10CourseBook24tryTurnOverShowRightPageEv
00000071000AE5F0=_ZN10CourseBook20tryTurnOverRightPageEi
00000071000AE7C0=_ZN10CourseBook9exeAppearEv
00000071000AE830=_ZN10CourseBook7exeOpenEv
00000071000AEB40=_ZNK10CourseBook16isAllPageWaitingEv
00000071000AEBD0=_ZN10CourseBook7exeWaitEv
00000071000AEC70=_ZN10CourseBook11exeTurnLeftEv
00000071000AED40=_ZN10CourseBook15exeTurnLeftWaitEv
00000071000AEE40=_ZN10CourseBook12exeTurnRightEv
00000071000AEF10=_ZN10CourseBook16exeTurnRightWaitEv
00000071000AF010=_ZN10CourseBook9exeDecideEv
00000071000AF0B0=_ZN10CourseBook8exeCloseEv
00000071000AF350=_ZN10CourseBook6exeEndEv
00000071000AF400=_ZN10CourseBook18exeGoalItemGetDemoEv
00000071000AF620=_ZN10CourseBook21exeCollectItemGetDemoEv
00000071000AF6D0=_ZN10CourseBook19exeChallengeGetDemoEv
00000071000AF780=_ZN10CourseBook18exeCompleteGetDemoEv
00000071000AF8A0=_ZN10CourseBook18exeOpenNewPageDemoEv
00000071000AF9F0=_ZN10CourseBook13exeUnlockDemoEv
00000071000AFB00=_ZN10CourseBook17exeUnlockFailDemoEv
00000071000AFBA0=_ZN10CourseBook16exeBonusOpenDemoEv
00000071000B0130=_ZN10CourseBook17exeBonusCloseDemoEv
00000071000B01E0=_ZN10CourseBook18exeHideAndSeekDemoEv
00000071000B0330=_ZN10CourseBook14getui2dTextureEbPKc
00000071000B0350=_ZN10CourseBook15TextureInfoList15FindTextureInfoEPKc
00000071000B04B0=_ZN10CourseBook15TextureInfoList7ResInfo4InitEPN2al8ResourceE
00000071000B0620=_ZN10CourseBook15TextureInfoList7ResInfo4FreeEv
00000071000B0740=_ZN10CourseBook11TextureInfo4InitEPN2nn3gfx10ResTextureE
00000071000B07D0=_ZN10CourseBook11TextureInfo4FreeEv
00000071000B0810=_ZN10CourseBook15TextureInfoListC1EPNS0_5NamesEPKc
00000071000B0A80=_ZN10CourseBook15TextureInfoListD2Ev
00000071000B0B70=_ZN10CourseBook15TextureInfoListD0Ev
00000071000B0BA0=_ZN10CourseBook15TextureInfoList15FindTextureInfoEPN2nn3gfx10ResTextureE
00000071000B0C90=_ZNK10CourseBook22getSequenceMsgDirectorEv
00000071000B0CA0=_ZThn304_NK10CourseBook22getSequenceMsgDirectorEv
00000071000B1160=_ZN19CourseBookBonusDemoC2ERKN2al14LayoutInitInfoE
00000071000B1280=_ZN19CourseBookBonusDemoC1ERKN2al14LayoutInitInfoE
00000071000B13A0=_ZN19CourseBookBonusDemo16startBonusAppearERKN4sead7Vector3IfEE
00000071000B1420=_ZN19CourseBookBonusDemo17startManeckAppearERKN4sead7Vector3IfEE
00000071000B14A0=_ZN19CourseBookBonusDemo9exeAppearEv
00000071000B1700=_ZN15CourseBookCoverC2ERKN2al14LayoutInitInfoE
00000071000B1840=_ZN15CourseBookCoverC1ERKN2al14LayoutInitInfoE
00000071000B1980=_ZN15CourseBookCover6appearEv
00000071000B1A60=_ZN15CourseBookCover11setShowGoldEb
00000071000B1AD0=_ZN15CourseBookCover10appearWaitEv
00000071000B1BB0=_ZN15CourseBookCover9startOpenEv
00000071000B1BC0=_ZN15CourseBookCover10startCloseEv
00000071000B1BD0=_ZN15CourseBookCover6isWaitEv
00000071000B1BE0=_ZN15CourseBookCover9exeAppearEv
00000071000B1C90=_ZN15CourseBookCover7exeOpenEv
00000071000B1D00=_ZN15CourseBookCover7exeWaitEv
00000071000B1D40=_ZN15CourseBookCover8exeCloseEv
00000071000B1DB0=_ZN15CourseBookCover6exeEndEv
00000071000B1FD0=_ZN14CourseBookPageC1Ev
00000071000B2010=_ZN14CourseBookPage4initEiPKcP10CourseBook
00000071000B21F0=_ZN14CourseBookPage6appearEv
00000071000B224C=def_71000B2220
00000071000B2260=_ZN14CourseBookPage8movementEv
00000071000B22BC=def_71000B2290
00000071000B22D0=_ZN14CourseBookPage8calcAnimEv
00000071000B2310=_ZN14CourseBookPage17registerRightPageEiP18CourseBookPageBase
00000071000B2320=_ZN14CourseBookPage16registerLeftPageEiP18CourseBookPageBase
00000071000B2330=_ZN14CourseBookPage8validateEv
00000071000B2370=_ZN14CourseBookPage10invalidateEv
00000071000B23B0=_ZN14CourseBookPage7endPageEv
00000071000B23F0=_ZNK14CourseBookPage10isPageMoveEv
00000071000B2440=_ZNK14CourseBookPage15isPageNotMovingEv
00000071000B2490=_ZNK14CourseBookPage13isDemoPlayingEv
00000071000B24E0=_ZNK14CourseBookPage11isDecideEndEv
00000071000B2514=def_71000B2500
00000071000B2550=_ZNK14CourseBookPage11getCourseIdEv
00000071000B2570=_ZNK14CourseBookPage11isBonusPageEv
00000071000B25D0=_ZN14CourseBookPage12tryShowAIconEv
00000071000B25FC=def_71000B25F0
00000071000B2620=_ZN14CourseBookPage9hideAIconEv
00000071000B264C=def_71000B2640
00000071000B2670=_ZN14CourseBookPage11hidePictureEv
00000071000B26D0=_ZN14CourseBookPage11showPictureEv
00000071000B2730=_ZNK14CourseBookPage15calcButtonTransEPN4sead7Vector3IfEE
00000071000B2770=_ZNK14CourseBookPage17calcGoalItemTransEPN4sead7Vector3IfEE
00000071000B27A0=_ZNK14CourseBookPage17calcCompleteTransEPN4sead7Vector3IfEE
00000071000B27D0=_ZNK14CourseBookPage12calcDotTransEPN4sead7Vector3IfEE
00000071000B27F0=_ZN14CourseBookPage16tryStartLoopAnimEv
00000071000B2830=_ZN14CourseBookPage7setLockEv
00000071000B2880=_ZN14CourseBookPage8setBonusEv
00000071000B28C0=_ZN14CourseBookPage13setResultDemoEv
00000071000B2910=_ZN14CourseBookPage11setOpenDemoEv
00000071000B2930=_ZN14CourseBookPage11startDecideEb
00000071000B2960=def_71000B2950
00000071000B2980=_ZN14CourseBookPage20startGoalItemGetDemoEv
00000071000B29D0=_ZN14CourseBookPage23startCollectItemGetDemoEv
00000071000B2A00=_ZN14CourseBookPage21startChallengeGetDemoEv
00000071000B2A50=_ZN14CourseBookPage20startCompleteGetDemoEv
00000071000B2AA0=_ZN14CourseBookPage28startHideAndSeekClearGetDemoEv
00000071000B2AC0=_ZN14CourseBookPage26startHideAndSeekRetireDemoEv
00000071000B2AE0=_ZN14CourseBookPage20startOpenNewPageDemoEv
00000071000B2B70=_ZN14CourseBookPage15startUnlockDemoEv
00000071000B2BC0=_ZN14CourseBookPage19startUnlockFailDemoEv
00000071000B2C10=_ZN14CourseBookPage18startBonusOpenDemoEv
00000071000B2C50=_ZN14CourseBookPage19startBonusCloseDemoEv
00000071000B2C90=_ZN18CourseBookPageBaseC2EPKc
00000071000B2D30=_ZN18CourseBookPageBase8validateEv
00000071000B2D40=_ZN18CourseBookPageBase10invalidateEv
00000071000B2D50=_ZN18CourseBookPageBase16invalidateButtonEv
00000071000B2D60=_ZN18CourseBookPageBase16tryStartLoopAnimEv
00000071000B2D70=_ZN18CourseBookPageLeftC2ERKN2al14LayoutInitInfoE
00000071000B2F00=_ZN18CourseBookPageLeftC1ERKN2al14LayoutInitInfoE
00000071000B3090=_ZN18CourseBookPageLeft6appearEv
00000071000B3190=_ZN18CourseBookPageLeft16updateCourseInfoEi
00000071000B32C0=_ZN18CourseBookPageLeft8setBonusEv
00000071000B3330=_ZN18CourseBookPageLeft11setPageInfoEv
00000071000B3530=_ZN18CourseBookPageLeft8movementEv
00000071000B3560=_ZN18CourseBookPageLeft7endPageEv
00000071000B3570=_ZN18CourseBookPageLeft8openPageEv
00000071000B3580=_ZN18CourseBookPageLeft9closePageEv
00000071000B35C0=_ZN18CourseBookPageLeft8showPageEv
00000071000B35D0=_ZN18CourseBookPageLeft14showPageDirectEv
00000071000B35E0=_ZN18CourseBookPageLeft12hideWaitPageEv
00000071000B35F0=_ZN18CourseBookPageLeft8hidePageEv
00000071000B3600=_ZNK18CourseBookPageLeft10isPageMoveEv
00000071000B3650=_ZNK18CourseBookPageLeft15isPageNotMovingEv
00000071000B36B0=_ZNK18CourseBookPageLeft13isDemoPlayingEv
00000071000B3750=_ZNK18CourseBookPageLeft6isHideEv
00000071000B3760=_ZN18CourseBookPageLeft16tryStartLoopAnimEv
00000071000B3780=_ZNK18CourseBookPageLeft23isTurnOverRegionTouchedERKN4sead7Vector2IfEEb
00000071000B37B0=_ZN18CourseBookPageLeft15setAllPartsHideEv
00000071000B37F0=_ZN18CourseBookPageLeft15setAllPartsWaitEv
00000071000B3830=_ZN18CourseBookPageLeft21setPageInfoResultDemoEv
00000071000B3910=_ZN18CourseBookPageLeft19setPageInfoOpenDemoEv
00000071000B3950=_ZNK18CourseBookPageLeft17calcGoalItemTransEPN4sead7Vector3IfEE
00000071000B3970=_ZN18CourseBookPageLeft16startGoalItemGetEv
00000071000B3980=_ZN18CourseBookPageLeft19startCollectItemGetEv
00000071000B3990=_ZN18CourseBookPageLeft17startChallengeGetEv
00000071000B39A0=_ZN18CourseBookPageLeft16startOpenNewPageEv
00000071000B39E0=_ZN18CourseBookPageLeft14startBonusOpenEv
00000071000B3A20=_ZN18CourseBookPageLeft15startBonusCloseEv
00000071000B3A30=_ZN18CourseBookPageLeft9exeAppearEv
00000071000B3A70=_ZN18CourseBookPageLeft7exeWaitEv
00000071000B3AB0=_ZN18CourseBookPageLeft11exeHideWaitEv
00000071000B3B20=_ZN18CourseBookPageLeft7exeOpenEv
00000071000B3BA0=_ZN18CourseBookPageLeft8exeCloseEv
00000071000B3C20=_ZN18CourseBookPageLeft7exeHideEv
00000071000B3C60=_ZN18CourseBookPageLeft6exeEndEv
00000071000B3CA0=_ZN18CourseBookPageLeft14exeGoalItemGetEv
00000071000B3DB0=_ZN18CourseBookPageLeft17exeCollectItemGetEv
00000071000B3F40=_ZN18CourseBookPageLeft25exeCollectItemGetDemoPlayEv
00000071000B4040=_ZN18CourseBookPageLeft15exeChallengeGetEv
00000071000B40E0=_ZN18CourseBookPageLeft14exeOpenNewPageEv
00000071000B4170=_ZN18CourseBookPageLeft12exeBonusOpenEv
00000071000B4230=_ZN18CourseBookPageLeft13exeBonusCloseEv
00000071000B42E0=_ZN18CourseBookPageLeft11hidePictureEv
00000071000B42F0=_ZN18CourseBookPageLeft11showPictureEv
00000071000B46C0=_ZN23CourseBookPageLeftBonusC2ERKN2al14LayoutInitInfoE
00000071000B47D0=_ZN23CourseBookPageLeftBonusC1ERKN2al14LayoutInitInfoE
00000071000B48E0=_ZN23CourseBookPageLeftBonus6appearEv
00000071000B4970=_ZN23CourseBookPageLeftBonus11setPageInfoEv
00000071000B4AE0=_ZN23CourseBookPageLeftBonus8movementEv
00000071000B4B10=_ZN23CourseBookPageLeftBonus7endPageEv
00000071000B4B20=_ZN23CourseBookPageLeftBonus8openPageEv
00000071000B4B30=_ZN23CourseBookPageLeftBonus9closePageEv
00000071000B4B70=_ZN23CourseBookPageLeftBonus8showPageEv
00000071000B4B80=_ZN23CourseBookPageLeftBonus14showPageDirectEv
00000071000B4B90=_ZN23CourseBookPageLeftBonus12hideWaitPageEv
00000071000B4BA0=_ZN23CourseBookPageLeftBonus8hidePageEv
00000071000B4BB0=_ZNK23CourseBookPageLeftBonus10isPageMoveEv
00000071000B4C00=_ZNK23CourseBookPageLeftBonus15isPageNotMovingEv
00000071000B4C60=_ZNK23CourseBookPageLeftBonus13isDemoPlayingEv
00000071000B4C70=_ZNK23CourseBookPageLeftBonus6isHideEv
00000071000B4C80=_ZN23CourseBookPageLeftBonus16tryStartLoopAnimEv
00000071000B4CA0=_ZNK23CourseBookPageLeftBonus23isTurnOverRegionTouchedERKN4sead7Vector2IfEEb
00000071000B4CD0=_ZN23CourseBookPageLeftBonus15setAllPartsHideEv
00000071000B4D00=_ZN23CourseBookPageLeftBonus15setAllPartsWaitEv
00000071000B4D40=_ZN23CourseBookPageLeftBonus9exeAppearEv
00000071000B4D80=_ZN23CourseBookPageLeftBonus7exeWaitEv
00000071000B4DC0=_ZN23CourseBookPageLeftBonus11exeHideWaitEv
00000071000B4E30=_ZN23CourseBookPageLeftBonus7exeOpenEv
00000071000B4EB0=_ZN23CourseBookPageLeftBonus8exeCloseEv
00000071000B4F30=_ZN23CourseBookPageLeftBonus7exeHideEv
00000071000B4F70=_ZN23CourseBookPageLeftBonus6exeEndEv
00000071000B4FB0=_ZN23CourseBookPageLeftBonus11hidePictureEv
00000071000B4FC0=_ZN23CourseBookPageLeftBonus11showPictureEv
00000071000B5280=_ZN26CourseBookPageLeftSeparateC2ERKN2al14LayoutInitInfoE
00000071000B53E0=_ZN26CourseBookPageLeftSeparate9hideAIconEv
00000071000B5420=_ZN26CourseBookPageLeftSeparateC1ERKN2al14LayoutInitInfoE
00000071000B5580=_ZN26CourseBookPageLeftSeparate6appearEv
00000071000B5620=_ZN26CourseBookPageLeftSeparate12setPartsInfoEv
00000071000B5710=_ZN26CourseBookPageLeftSeparate8movementEv
00000071000B5740=_ZN26CourseBookPageLeftSeparate7endPageEv
00000071000B5750=_ZN26CourseBookPageLeftSeparate8openPageEv
00000071000B5760=_ZN26CourseBookPageLeftSeparate9closePageEv
00000071000B57B0=_ZN26CourseBookPageLeftSeparate8showPageEv
00000071000B57C0=_ZN26CourseBookPageLeftSeparate14showPageDirectEv
00000071000B57D0=_ZN26CourseBookPageLeftSeparate12hideWaitPageEv
00000071000B57E0=_ZN26CourseBookPageLeftSeparate8hidePageEv
00000071000B57F0=_ZNK26CourseBookPageLeftSeparate10isPageMoveEv
00000071000B5840=_ZNK26CourseBookPageLeftSeparate15isPageNotMovingEv
00000071000B58A0=_ZNK26CourseBookPageLeftSeparate13isDemoPlayingEv
00000071000B58B0=_ZNK26CourseBookPageLeftSeparate6isHideEv
00000071000B58C0=_ZN26CourseBookPageLeftSeparate16tryStartLoopAnimEv
00000071000B5930=_ZNK26CourseBookPageLeftSeparate23isTurnOverRegionTouchedERKN4sead7Vector2IfEEb
00000071000B5960=_ZN26CourseBookPageLeftSeparate16invalidateButtonEv
00000071000B59A0=_ZN26CourseBookPageLeftSeparate12tryShowAIconEv
00000071000B5A70=_ZN26CourseBookPageLeftSeparate11startDecideEv
00000071000B5A80=_ZNK26CourseBookPageLeftSeparate11isDecideEndEv
00000071000B5A90=_ZN26CourseBookPageLeftSeparate16startOpenNewPageEv
00000071000B5B10=_ZN26CourseBookPageLeftSeparate9exeAppearEv
00000071000B5B50=_ZN26CourseBookPageLeftSeparate7exeWaitEv
00000071000B5B90=_ZN26CourseBookPageLeftSeparate11exeHideWaitEv
00000071000B5C00=_ZN26CourseBookPageLeftSeparate7exeOpenEv
00000071000B5C80=_ZN26CourseBookPageLeftSeparate8exeCloseEv
00000071000B5D00=_ZN26CourseBookPageLeftSeparate7exeHideEv
00000071000B5D40=_ZN26CourseBookPageLeftSeparate6exeEndEv
00000071000B5D80=_ZN26CourseBookPageLeftSeparate14exeOpenNewPageEv
00000071000B5DF0=_ZN26CourseBookPageLeftSeparate11hidePictureEv
00000071000B5E00=_ZN26CourseBookPageLeftSeparate11showPictureEv
00000071000B60F0=_ZN25CourseBookPageLeftSpecialC2ERKN2al14LayoutInitInfoE
00000071000B62A0=_ZN25CourseBookPageLeftSpecialC1ERKN2al14LayoutInitInfoE
00000071000B6460=_ZN25CourseBookPageLeftSpecial6appearEv
00000071000B6500=_ZN25CourseBookPageLeftSpecial16updateCourseInfoEi
00000071000B66A0=_ZN25CourseBookPageLeftSpecial11setPageInfoEv
00000071000B6900=_ZN25CourseBookPageLeftSpecial8movementEv
00000071000B6930=_ZN25CourseBookPageLeftSpecial7endPageEv
00000071000B6940=_ZN25CourseBookPageLeftSpecial8openPageEv
00000071000B6950=_ZN25CourseBookPageLeftSpecial9closePageEv
00000071000B6990=_ZN25CourseBookPageLeftSpecial8showPageEv
00000071000B69A0=_ZN25CourseBookPageLeftSpecial14showPageDirectEv
00000071000B69B0=_ZN25CourseBookPageLeftSpecial12hideWaitPageEv
00000071000B69C0=_ZN25CourseBookPageLeftSpecial8hidePageEv
00000071000B69D0=_ZNK25CourseBookPageLeftSpecial10isPageMoveEv
00000071000B6A20=_ZNK25CourseBookPageLeftSpecial15isPageNotMovingEv
00000071000B6A80=_ZNK25CourseBookPageLeftSpecial13isDemoPlayingEv
00000071000B6AF0=_ZNK25CourseBookPageLeftSpecial6isHideEv
00000071000B6B00=_ZN25CourseBookPageLeftSpecial16tryStartLoopAnimEv
00000071000B6B20=_ZNK25CourseBookPageLeftSpecial23isTurnOverRegionTouchedERKN4sead7Vector2IfEEb
00000071000B6B50=_ZN25CourseBookPageLeftSpecial15setAllPartsHideEv
00000071000B6B90=_ZN25CourseBookPageLeftSpecial15setAllPartsWaitEv
00000071000B6C30=_ZN25CourseBookPageLeftSpecial21setPageInfoResultDemoEv
00000071000B6D20=_ZNK25CourseBookPageLeftSpecial17calcGoalItemTransEPN4sead7Vector3IfEE
00000071000B6D40=_ZN25CourseBookPageLeftSpecial16startGoalItemGetEv
00000071000B6D50=_ZN25CourseBookPageLeftSpecial19startCollectItemGetEv
00000071000B6D60=_ZN25CourseBookPageLeftSpecial17startChallengeGetEv
00000071000B6D70=_ZN25CourseBookPageLeftSpecial16startOpenNewPageEv
00000071000B6DB0=_ZN25CourseBookPageLeftSpecial9exeAppearEv
00000071000B6DF0=_ZN25CourseBookPageLeftSpecial7exeWaitEv
00000071000B6E30=_ZN25CourseBookPageLeftSpecial11exeHideWaitEv
00000071000B6EA0=_ZN25CourseBookPageLeftSpecial7exeOpenEv
00000071000B6F20=_ZN25CourseBookPageLeftSpecial8exeCloseEv
00000071000B6FA0=_ZN25CourseBookPageLeftSpecial7exeHideEv
00000071000B6FE0=_ZN25CourseBookPageLeftSpecial6exeEndEv
00000071000B7020=_ZN25CourseBookPageLeftSpecial14exeGoalItemGetEv
00000071000B7130=_ZN25CourseBookPageLeftSpecial17exeCollectItemGetEv
00000071000B7300=_ZN25CourseBookPageLeftSpecial25exeCollectItemGetDemoPlayEv
00000071000B7400=_ZN25CourseBookPageLeftSpecial15exeChallengeGetEv
00000071000B74A0=_ZN25CourseBookPageLeftSpecial14exeOpenNewPageEv
00000071000B7530=_ZN25CourseBookPageLeftSpecial11hidePictureEv
00000071000B7540=_ZN25CourseBookPageLeftSpecial11showPictureEv
00000071000B78E0=_ZN19CourseBookPageRightC2ERKN2al14LayoutInitInfoE
00000071000B7AC0=_ZN19CourseBookPageRightC1ERKN2al14LayoutInitInfoE
00000071000B7CA0=_ZN19CourseBookPageRight6appearEv
00000071000B7D70=_ZN19CourseBookPageRight8setBonusEv
00000071000B7E80=_ZN19CourseBookPageRight12setPartsInfoEv
00000071000B83F0=_ZN19CourseBookPageRight8movementEv
00000071000B8420=_ZN19CourseBookPageRight7endPageEv
00000071000B8430=_ZN19CourseBookPageRight8openPageEv
00000071000B8440=_ZN19CourseBookPageRight9closePageEv
00000071000B8490=_ZN19CourseBookPageRight8showPageEv
00000071000B84A0=_ZN19CourseBookPageRight14showPageDirectEv
00000071000B84B0=_ZN19CourseBookPageRight12hideWaitPageEv
00000071000B8530=_ZN19CourseBookPageRight9hideAIconEv
00000071000B85A0=_ZN19CourseBookPageRight8hidePageEv
00000071000B8620=_ZNK19CourseBookPageRight10isPageMoveEv
00000071000B8670=_ZNK19CourseBookPageRight15isPageNotMovingEv
00000071000B86D0=_ZNK19CourseBookPageRight13isDemoPlayingEv
00000071000B8790=_ZNK19CourseBookPageRight6isHideEv
00000071000B87A0=_ZN19CourseBookPageRight8validateEv
00000071000B87B0=_ZN19CourseBookPageRight10invalidateEv
00000071000B87C0=_ZN19CourseBookPageRight16invalidateButtonEv
00000071000B8830=_ZN19CourseBookPageRight16tryStartLoopAnimEv
00000071000B8850=_ZNK19CourseBookPageRight23isTurnOverRegionTouchedERKN4sead7Vector2IfEEb
00000071000B8880=_ZN19CourseBookPageRight11hidePictureEv
00000071000B88A0=_ZN19CourseBookPageRight11showPictureEv
00000071000B88B0=_ZN19CourseBookPageRight7setLockEv
00000071000B88D0=_ZN19CourseBookPageRight12tryShowAIconEv
00000071000B8990=_ZNK19CourseBookPageRight15calcButtonTransEPN4sead7Vector3IfEE
00000071000B8A00=_ZNK19CourseBookPageRight17calcCompleteTransEPN4sead7Vector3IfEE
00000071000B8A20=_ZNK19CourseBookPageRight12calcDotTransEPN4sead7Vector3IfEE
00000071000B8A40=_ZN19CourseBookPageRight11startDecideEb
00000071000B8A80=_ZN19CourseBookPageRight16startCompleteGetEv
00000071000B8A90=_ZN19CourseBookPageRight24startHideAndSeekClearGetEv
00000071000B8AA0=_ZN19CourseBookPageRight22startHideAndSeekRetireEv
00000071000B8AB0=_ZN19CourseBookPageRight16startOpenNewPageEv
00000071000B8AF0=_ZN19CourseBookPageRight11startUnlockEv
00000071000B8B50=_ZN19CourseBookPageRight15startUnlockFailEv
00000071000B8BB0=_ZN19CourseBookPageRight14startBonusOpenEv
00000071000B8BF0=_ZN19CourseBookPageRight15startBonusCloseEv
00000071000B8C00=_ZNK19CourseBookPageRight9getButtonEPKc
00000071000B8C10=_ZNK19CourseBookPageRight11isDecideEndEPKc
00000071000B8C20=_ZN19CourseBookPageRight9exeAppearEv
00000071000B8C60=_ZN19CourseBookPageRight12exeWaitDelayEv
00000071000B8CE0=_ZN19CourseBookPageRight15exeWaitForAIconEv
00000071000B8D40=_ZN19CourseBookPageRight7exeWaitEv
00000071000B8D90=_ZN19CourseBookPageRight11exeHideWaitEv
00000071000B8E00=_ZN19CourseBookPageRight7exeOpenEv
00000071000B8EC0=_ZN19CourseBookPageRight8exeCloseEv
00000071000B8FA0=_ZN19CourseBookPageRight7exeHideEv
00000071000B8FE0=_ZN19CourseBookPageRight6exeEndEv
00000071000B9020=_ZN19CourseBookPageRight14exeCompleteGetEv
00000071000B9150=_ZN19CourseBookPageRight18exeHideAndSeekDemoEv
00000071000B9250=_ZN19CourseBookPageRight14exeOpenNewPageEv
00000071000B92C0=_ZN19CourseBookPageRight9exeUnlockEv
00000071000B9330=_ZN19CourseBookPageRight13exeUnlockFailEv
00000071000B93A0=_ZN19CourseBookPageRight12exeBonusOpenEv
00000071000B9410=_ZN19CourseBookPageRight13exeBonusCloseEv
00000071000B94E0=_ZN19CourseBookPageRight15setAllPartsHideEv
00000071000B9530=_ZN19CourseBookPageRight15setAllPartsWaitEv
00000071000B9A30=_ZN24CourseBookPageRightBonusC2ERKN2al14LayoutInitInfoE
00000071000B9BE0=_ZN24CourseBookPageRightBonusC1ERKN2al14LayoutInitInfoE
00000071000B9D90=_ZN24CourseBookPageRightBonus6appearEv
00000071000B9E30=_ZN24CourseBookPageRightBonus12setPartsInfoEv
00000071000BA0D0=_ZN24CourseBookPageRightBonus8movementEv
00000071000BA100=_ZN24CourseBookPageRightBonus7endPageEv
00000071000BA110=_ZN24CourseBookPageRightBonus8openPageEv
00000071000BA120=_ZN24CourseBookPageRightBonus9closePageEv
00000071000BA170=_ZN24CourseBookPageRightBonus8showPageEv
00000071000BA180=_ZN24CourseBookPageRightBonus14showPageDirectEv
00000071000BA190=_ZN24CourseBookPageRightBonus12hideWaitPageEv
00000071000BA210=_ZN24CourseBookPageRightBonus9hideAIconEv
00000071000BA280=_ZN24CourseBookPageRightBonus8hidePageEv
00000071000BA300=_ZNK24CourseBookPageRightBonus10isPageMoveEv
00000071000BA350=_ZNK24CourseBookPageRightBonus15isPageNotMovingEv
00000071000BA3B0=_ZNK24CourseBookPageRightBonus13isDemoPlayingEv
00000071000BA3C0=_ZNK24CourseBookPageRightBonus6isHideEv
00000071000BA3D0=_ZN24CourseBookPageRightBonus8validateEv
00000071000BA3E0=_ZN24CourseBookPageRightBonus10invalidateEv
00000071000BA3F0=_ZN24CourseBookPageRightBonus16invalidateButtonEv
00000071000BA460=_ZN24CourseBookPageRightBonus16tryStartLoopAnimEv
00000071000BA480=_ZNK24CourseBookPageRightBonus23isTurnOverRegionTouchedERKN4sead7Vector2IfEEb
00000071000BA4B0=_ZN24CourseBookPageRightBonus12tryShowAIconEv
00000071000BA530=_ZNK24CourseBookPageRightBonus15calcButtonTransEPN4sead7Vector3IfEE
00000071000BA5A0=_ZN24CourseBookPageRightBonus11startDecideEv
00000071000BA5E0=_ZNK24CourseBookPageRightBonus9getButtonEPKc
00000071000BA5F0=_ZNK24CourseBookPageRightBonus11isDecideEndEPKc
00000071000BA600=_ZN24CourseBookPageRightBonus9exeAppearEv
00000071000BA640=_ZN24CourseBookPageRightBonus15exeWaitForAIconEv
00000071000BA6A0=_ZN24CourseBookPageRightBonus7exeWaitEv
00000071000BA6F0=_ZN24CourseBookPageRightBonus11exeHideWaitEv
00000071000BA760=_ZN24CourseBookPageRightBonus7exeOpenEv
00000071000BA7E0=_ZN24CourseBookPageRightBonus8exeCloseEv
00000071000BA860=_ZN24CourseBookPageRightBonus7exeHideEv
00000071000BA8A0=_ZN24CourseBookPageRightBonus6exeEndEv
00000071000BA8E0=_ZN24CourseBookPageRightBonus15setAllPartsHideEv
00000071000BA920=_ZN24CourseBookPageRightBonus15setAllPartsWaitEv
00000071000BA960=_ZN24CourseBookPageRightBonus11hidePictureEv
00000071000BA970=_ZN24CourseBookPageRightBonus11showPictureEv
00000071000BAC60=_ZN27CourseBookPageRightSeparateC2ERKN2al14LayoutInitInfoE
00000071000BAD90=_ZN27CourseBookPageRightSeparateC1ERKN2al14LayoutInitInfoE
00000071000BAEC0=_ZN27CourseBookPageRightSeparate6appearEv
00000071000BAFD0=_ZN27CourseBookPageRightSeparate12setPartsInfoEv
00000071000BB140=_ZN27CourseBookPageRightSeparate8movementEv
00000071000BB170=_ZN27CourseBookPageRightSeparate7endPageEv
00000071000BB180=_ZN27CourseBookPageRightSeparate8openPageEv
00000071000BB190=_ZN27CourseBookPageRightSeparate9closePageEv
00000071000BB1E0=_ZN27CourseBookPageRightSeparate8showPageEv
00000071000BB1F0=_ZN27CourseBookPageRightSeparate14showPageDirectEv
00000071000BB200=_ZN27CourseBookPageRightSeparate12hideWaitPageEv
00000071000BB210=_ZN27CourseBookPageRightSeparate8hidePageEv
00000071000BB220=_ZNK27CourseBookPageRightSeparate10isPageMoveEv
00000071000BB270=_ZNK27CourseBookPageRightSeparate15isPageNotMovingEv
00000071000BB2D0=_ZNK27CourseBookPageRightSeparate13isDemoPlayingEv
00000071000BB2E0=_ZNK27CourseBookPageRightSeparate6isHideEv
00000071000BB2F0=_ZN27CourseBookPageRightSeparate16tryStartLoopAnimEv
00000071000BB360=_ZNK27CourseBookPageRightSeparate23isTurnOverRegionTouchedERKN4sead7Vector2IfEEb
00000071000BB390=_ZN27CourseBookPageRightSeparate16startOpenNewPageEv
00000071000BB410=_ZN27CourseBookPageRightSeparate9exeAppearEv
00000071000BB450=_ZN27CourseBookPageRightSeparate7exeWaitEv
00000071000BB490=_ZN27CourseBookPageRightSeparate11exeHideWaitEv
00000071000BB550=_ZN27CourseBookPageRightSeparate7exeOpenEv
00000071000BB5D0=_ZN27CourseBookPageRightSeparate8exeCloseEv
00000071000BB650=_ZN27CourseBookPageRightSeparate7exeHideEv
00000071000BB690=_ZN27CourseBookPageRightSeparate6exeEndEv
00000071000BB6D0=_ZN27CourseBookPageRightSeparate14exeOpenNewPageEv
00000071000BB740=_ZN27CourseBookPageRightSeparate11hidePictureEv
00000071000BB750=_ZN27CourseBookPageRightSeparate11showPictureEv
00000071000BB9E0=_ZN26CourseBookPageRightSpecialC2ERKN2al14LayoutInitInfoE
00000071000BBBC0=_ZN26CourseBookPageRightSpecialC1ERKN2al14LayoutInitInfoE
00000071000BBDA0=_ZN26CourseBookPageRightSpecial6appearEv
00000071000BBE40=_ZN26CourseBookPageRightSpecial12setPartsInfoEv
00000071000BC450=_ZN26CourseBookPageRightSpecial8movementEv
00000071000BC480=_ZN26CourseBookPageRightSpecial7endPageEv
00000071000BC490=_ZN26CourseBookPageRightSpecial8openPageEv
00000071000BC4A0=_ZN26CourseBookPageRightSpecial9closePageEv
00000071000BC4F0=_ZN26CourseBookPageRightSpecial8showPageEv
00000071000BC500=_ZN26CourseBookPageRightSpecial14showPageDirectEv
00000071000BC510=_ZN26CourseBookPageRightSpecial12hideWaitPageEv
00000071000BC590=_ZN26CourseBookPageRightSpecial9hideAIconEv
00000071000BC600=_ZN26CourseBookPageRightSpecial8hidePageEv
00000071000BC680=_ZNK26CourseBookPageRightSpecial10isPageMoveEv
00000071000BC6D0=_ZNK26CourseBookPageRightSpecial15isPageNotMovingEv
00000071000BC730=_ZNK26CourseBookPageRightSpecial13isDemoPlayingEv
00000071000BC790=_ZNK26CourseBookPageRightSpecial6isHideEv
00000071000BC7A0=_ZN26CourseBookPageRightSpecial8validateEv
00000071000BC7B0=_ZN26CourseBookPageRightSpecial10invalidateEv
00000071000BC7C0=_ZN26CourseBookPageRightSpecial16invalidateButtonEv
00000071000BC830=_ZN26CourseBookPageRightSpecial16tryStartLoopAnimEv
00000071000BC850=_ZNK26CourseBookPageRightSpecial23isTurnOverRegionTouchedERKN4sead7Vector2IfEEb
00000071000BC880=_ZN26CourseBookPageRightSpecial11hidePictureEv
00000071000BC8A0=_ZN26CourseBookPageRightSpecial11showPictureEv
00000071000BC8B0=_ZN26CourseBookPageRightSpecial7setLockEv
00000071000BC8D0=_ZN26CourseBookPageRightSpecial12tryShowAIconEv
00000071000BC990=_ZNK26CourseBookPageRightSpecial15calcButtonTransEPN4sead7Vector3IfEE
00000071000BCA00=_ZNK26CourseBookPageRightSpecial17calcCompleteTransEPN4sead7Vector3IfEE
00000071000BCA20=_ZN26CourseBookPageRightSpecial11startDecideEv
00000071000BCA60=_ZN26CourseBookPageRightSpecial11startUnlockEv
00000071000BCAC0=_ZN26CourseBookPageRightSpecial15startUnlockFailEv
00000071000BCB20=_ZN26CourseBookPageRightSpecial16startCompleteGetEv
00000071000BCB30=_ZN26CourseBookPageRightSpecial16startOpenNewPageEv
00000071000BCB70=_ZNK26CourseBookPageRightSpecial9getButtonEPKc
00000071000BCB80=_ZNK26CourseBookPageRightSpecial11isDecideEndEPKc
00000071000BCB90=_ZN26CourseBookPageRightSpecial9exeAppearEv
00000071000BCBD0=_ZN26CourseBookPageRightSpecial12exeWaitDelayEv
00000071000BCC50=_ZN26CourseBookPageRightSpecial15exeWaitForAIconEv
00000071000BCCB0=_ZN26CourseBookPageRightSpecial7exeWaitEv
00000071000BCD00=_ZN26CourseBookPageRightSpecial11exeHideWaitEv
00000071000BCD70=_ZN26CourseBookPageRightSpecial7exeOpenEv
00000071000BCE30=_ZN26CourseBookPageRightSpecial8exeCloseEv
00000071000BCEB0=_ZN26CourseBookPageRightSpecial7exeHideEv
00000071000BCEF0=_ZN26CourseBookPageRightSpecial6exeEndEv
00000071000BCF30=_ZN26CourseBookPageRightSpecial9exeUnlockEv
00000071000BCFA0=_ZN26CourseBookPageRightSpecial13exeUnlockFailEv
00000071000BD010=_ZN26CourseBookPageRightSpecial14exeCompleteGetEv
00000071000BD160=_ZN26CourseBookPageRightSpecial14exeOpenNewPageEv
00000071000BD1D0=_ZN26CourseBookPageRightSpecial15setAllPartsHideEv
00000071000BD210=_ZN26CourseBookPageRightSpecial15setAllPartsWaitEv
00000071000BD6D0=_ZN15CourseBookPartsC2ERKN2al14LayoutInitInfoEPKcS5_PNS0_11LayoutActorEPK14GameDataHolder
00000071000BD7B0=_ZN15CourseBookParts11setSeasonIdEi
00000071000BD978=def_71000BDA3C
00000071000BDBA0=_ZN15CourseBookPartsC1ERKN2al14LayoutInitInfoEPKcS5_PNS0_11LayoutActorEPK14GameDataHolder
00000071000BDC80=_ZN15CourseBookParts11setShowGoldEb
00000071000BDD30=_ZN15CourseBookParts9startFadeEi
00000071000BDE00=_ZN15CourseBookParts11startRotateEv
00000071000BDE10=_ZN15CourseBookParts15startDemoRotateEv
00000071000BDE20=_ZN15CourseBookParts7setWaitEv
00000071000BDE30=_ZN15CourseBookParts11setDemoWaitEv
00000071000BDE40=_ZN15CourseBookParts12setCoverWaitEv
00000071000BDE50=_ZN15CourseBookParts17setCoverEffectPosEPN4sead7Vector3IfEEi
00000071000BDF00=_ZN15CourseBookParts13tryStartSheenEv
00000071000BDF70=_ZN15CourseBookParts13exeSeasonWaitEv
00000071000BDFB0=_ZN15CourseBookParts11exeDemoWaitEv
00000071000BDFF0=_ZN15CourseBookParts12exeCoverWaitEv
00000071000BE030=_ZN15CourseBookParts7exeWaitEv
00000071000BE070=_ZN15CourseBookParts9exeFadeInEv
00000071000BE0E0=_ZN15CourseBookParts10exeFadeOutEv
00000071000BE1A0=_ZN15CourseBookParts9exeRotateEv
00000071000BE250=_ZN15CourseBookParts13exeDemoRotateEv
00000071000BE510=_ZN24CourseInfoChallengePartsC2ERKN2al14LayoutInitInfoEPKcS5_PNS0_11LayoutActorE
00000071000BE5D0=_ZN24CourseInfoChallengePartsC1ERKN2al14LayoutInitInfoEPKcS5_PNS0_11LayoutActorE
00000071000BE690=_ZN24CourseInfoChallengeParts11setCourseIdEii
00000071000BE810=_ZNK24CourseInfoChallengeParts6isWaitEv
00000071000BE820=_ZN24CourseInfoChallengeParts4waitEv
00000071000BE830=_ZN24CourseInfoChallengeParts4showEv
00000071000BE840=_ZN24CourseInfoChallengeParts4hideEv
00000071000BE850=_ZN24CourseInfoChallengeParts3addEv
00000071000BE860=_ZN24CourseInfoChallengeParts6changeEv
00000071000BE870=_ZN24CourseInfoChallengeParts2onEv
00000071000BE890=_ZN24CourseInfoChallengeParts3offEv
00000071000BE8B0=_ZN24CourseInfoChallengeParts5bonusEv
00000071000BE8D0=_ZN24CourseInfoChallengeParts6normalEv
00000071000BE8F0=_ZN24CourseInfoChallengeParts8setClearEv
00000071000BE910=_ZN24CourseInfoChallengeParts6setNewEv
00000071000BE930=_ZN24CourseInfoChallengeParts7exeWaitEv
00000071000BE970=_ZN24CourseInfoChallengeParts7exeHideEv
00000071000BE9B0=_ZN24CourseInfoChallengeParts7exeShowEv
00000071000BEA20=_ZN24CourseInfoChallengeParts6exeAddEv
00000071000BEAA0=_ZN24CourseInfoChallengeParts10exeFadeOutEv
00000071000BEB10=_ZN24CourseInfoChallengeParts9exeFadeInEv
00000071000BEE10=_ZN22CourseInfoChapterPartsC2ERKN2al14LayoutInitInfoEPKcS5_PNS0_11LayoutActorE
00000071000BEED0=_ZN22CourseInfoChapterPartsC1ERKN2al14LayoutInitInfoEPKcS5_PNS0_11LayoutActorE
00000071000BEF80=_ZNK22CourseInfoChapterParts6isWaitEv
00000071000BEF90=_ZN22CourseInfoChapterParts10setChapterEPN2al11LayoutActorEi
00000071000BEFB0=_ZN22CourseInfoChapterParts8setPageLEv
00000071000BEFD0=_ZN22CourseInfoChapterParts8setPageREv
00000071000BEFF0=_ZN22CourseInfoChapterParts11setPageShowEv
00000071000BF010=_ZN22CourseInfoChapterParts4waitEv
00000071000BF020=_ZN22CourseInfoChapterParts4showEv
00000071000BF030=_ZN22CourseInfoChapterParts4hideEv
00000071000BF040=_ZN22CourseInfoChapterParts6changeEv
00000071000BF050=_ZN22CourseInfoChapterParts7exeWaitEv
00000071000BF090=_ZN22CourseInfoChapterParts7exeShowEv
00000071000BF100=_ZN22CourseInfoChapterParts7exeHideEv
00000071000BF140=_ZN22CourseInfoChapterParts10exeFadeOutEv
00000071000BF1B0=_ZN22CourseInfoChapterParts9exeFadeInEv
00000071000BF410=_ZN22CourseInfoCompleteDemoC2ERKN2al14LayoutInitInfoE
00000071000BF4D0=_ZN22CourseInfoCompleteDemoC1ERKN2al14LayoutInitInfoE
00000071000BF590=_ZN22CourseInfoCompleteDemo11startAppearERKN4sead7Vector3IfEEb
00000071000BF620=_ZN22CourseInfoCompleteDemo6exeAddEv
00000071000BF6C0=_ZN23CourseInfoCompletePartsC2ERKN2al14LayoutInitInfoEPKcS5_PNS0_11LayoutActorE
00000071000BF7C0=_ZN23CourseInfoCompletePartsC1ERKN2al14LayoutInitInfoEPKcS5_PNS0_11LayoutActorE
00000071000BF8C0=_ZNK23CourseInfoCompleteParts6isWaitEv
00000071000BF8D0=_ZN23CourseInfoCompleteParts4waitEv
00000071000BF8E0=_ZN23CourseInfoCompleteParts4showEv
00000071000BF8F0=_ZN23CourseInfoCompleteParts4hideEv
00000071000BF900=_ZN23CourseInfoCompleteParts3addEv
00000071000BF910=_ZN23CourseInfoCompleteParts6changeEv
00000071000BF920=_ZN23CourseInfoCompleteParts2onEv
00000071000BF940=_ZN23CourseInfoCompleteParts3offEv
00000071000BF960=_ZN23CourseInfoCompleteParts5bonusEv
00000071000BF980=_ZN23CourseInfoCompleteParts6normalEv
00000071000BF9A0=_ZN23CourseInfoCompleteParts7setIconEPKc
00000071000BF9B0=_ZN23CourseInfoCompleteParts7exeWaitEv
00000071000BF9F0=_ZN23CourseInfoCompleteParts7exeHideEv
00000071000BFA30=_ZN23CourseInfoCompleteParts7exeShowEv
00000071000BFAA0=_ZN23CourseInfoCompleteParts6exeAddEv
00000071000BFB50=_ZN23CourseInfoCompleteParts10exeFadeOutEv
00000071000BFBC0=_ZN23CourseInfoCompleteParts9exeFadeInEv
00000071000BFE50=_ZN20CourseInfoCrownPartsC2ERKN2al14LayoutInitInfoEPKcS5_PNS0_11LayoutActorE
00000071000BFF10=_ZN20CourseInfoCrownPartsC1ERKN2al14LayoutInitInfoEPKcS5_PNS0_11LayoutActorE
00000071000BFFC0=_ZN20CourseInfoCrownParts4waitEv
00000071000C0000=_ZN20CourseInfoCrownParts4hideEv
00000071000C0040=_ZN20CourseInfoCrownParts7exeWaitEv
00000071000C0080=_ZN20CourseInfoCrownParts7exeHideEv
00000071000C0160=_ZN18CourseInfoGoalDemoC2ERKN2al14LayoutInitInfoE
00000071000C0220=_ZN18CourseInfoGoalDemoC1ERKN2al14LayoutInitInfoE
00000071000C02E0=_ZN18CourseInfoGoalDemo11startAppearERKN4sead7Vector3IfEE
00000071000C0330=_ZN18CourseInfoGoalDemo6normalEv
00000071000C0350=_ZN18CourseInfoGoalDemo5greenEv
00000071000C0370=_ZN18CourseInfoGoalDemo5crownEv
00000071000C0390=_ZN18CourseInfoGoalDemo3DLCEv
00000071000C03B0=_ZN18CourseInfoGoalDemo5moon1Ev
00000071000C03D0=_ZN18CourseInfoGoalDemo5moon2Ev
00000071000C03F0=_ZN18CourseInfoGoalDemo5moon3Ev
00000071000C0410=_ZN18CourseInfoGoalDemo5moon4Ev
00000071000C0430=_ZN18CourseInfoGoalDemo4moonEi
00000071000C0468=def_71000C044C
00000071000C04C0=_ZN18CourseInfoGoalDemo6exeAddEv
00000071000C0560=_ZN19CourseInfoGoalPartsC2ERKN2al14LayoutInitInfoEPKcS5_PNS0_11LayoutActorE
00000071000C0718=def_71000C06D0
00000071000C0730=_ZN19CourseInfoGoalPartsC1ERKN2al14LayoutInitInfoEPKcS5_PNS0_11LayoutActorE
00000071000C08F4=def_71000C08A8
00000071000C0910=_ZNK19CourseInfoGoalParts6isWaitEv
00000071000C0920=_ZNK19CourseInfoGoalParts11isGreenStarEv
00000071000C0980=_ZN19CourseInfoGoalParts4waitEv
00000071000C0990=_ZN19CourseInfoGoalParts4hideEv
00000071000C09A0=_ZN19CourseInfoGoalParts3addEv
00000071000C09B0=_ZN19CourseInfoGoalParts6changeEv
00000071000C09C0=_ZN19CourseInfoGoalParts2onEv
00000071000C09E0=_ZN19CourseInfoGoalParts3offEv
00000071000C0A00=_ZN19CourseInfoGoalParts5bonusEv
00000071000C0A20=_ZN19CourseInfoGoalParts6normalEv
00000071000C0A40=_ZN19CourseInfoGoalParts5greenEv
00000071000C0A60=_ZN19CourseInfoGoalParts5crownEv
00000071000C0A80=_ZN19CourseInfoGoalParts3DLCEv
00000071000C0AA0=_ZN19CourseInfoGoalParts5moon1Ev
00000071000C0AC0=_ZN19CourseInfoGoalParts5moon2Ev
00000071000C0AE0=_ZN19CourseInfoGoalParts5moon3Ev
00000071000C0B00=_ZN19CourseInfoGoalParts5moon4Ev
00000071000C0B20=_ZN19CourseInfoGoalParts4moonEi
00000071000C0B58=def_71000C0B3C
00000071000C0BB0=_ZN19CourseInfoGoalParts7exeWaitEv
00000071000C0BF0=_ZN19CourseInfoGoalParts7exeHideEv
00000071000C0C30=_ZN19CourseInfoGoalParts6exeAddEv
00000071000C0D30=_ZN19CourseInfoGoalParts10exeFadeOutEv
00000071000C0DA0=_ZN19CourseInfoGoalParts9exeFadeInEv
00000071000C0F70=_ZN21CourseInfoIllustPartsC2ERKN2al14LayoutInitInfoEPKcS5_PNS0_11LayoutActorE
00000071000C1030=_ZN21CourseInfoIllustPartsC1ERKN2al14LayoutInitInfoEPKcS5_PNS0_11LayoutActorE
00000071000C10E0=_ZNK21CourseInfoIllustParts6isWaitEv
00000071000C10F0=_ZN21CourseInfoIllustParts4waitEv
00000071000C1100=_ZN21CourseInfoIllustParts4showEv
00000071000C1110=_ZN21CourseInfoIllustParts4hideEv
00000071000C1120=_ZN21CourseInfoIllustParts6changeEv
00000071000C1130=_ZN21CourseInfoIllustParts7exeWaitEv
00000071000C1170=_ZN21CourseInfoIllustParts7exeShowEv
00000071000C11E0=_ZN21CourseInfoIllustParts7exeHideEv
00000071000C1220=_ZN21CourseInfoIllustParts10exeFadeOutEv
00000071000C1290=_ZN21CourseInfoIllustParts9exeFadeInEv
00000071000C14F0=_ZN18CourseInfoItemDemoC2ERKN2al14LayoutInitInfoE
00000071000C15F0=_ZN18CourseInfoItemDemoC1ERKN2al14LayoutInitInfoE
00000071000C16F0=_ZN18CourseInfoItemDemo11startAppearERKN4sead7Vector3IfEE
00000071000C1770=_ZN18CourseInfoItemDemo16setColorBySeasonEi
00000071000C17B0=_ZN18CourseInfoItemDemo6exeAddEv
00000071000C1850=_ZN19CourseInfoItemPartsC2ERKN2al14LayoutInitInfoEPKcS5_PNS0_11LayoutActorE
00000071000C1920=_ZN19CourseInfoItemPartsC1ERKN2al14LayoutInitInfoEPKcS5_PNS0_11LayoutActorE
00000071000C19E0=_ZN19CourseInfoItemParts18setCollectItemInfoERK21CourseCollectItemInfoii
00000071000C1CC0=_ZN19CourseInfoItemParts21updateCollectItemInfoERK21CourseCollectItemInfo
00000071000C1D20=_ZN19CourseInfoItemParts16updatePaneStringEv
00000071000C1F70=_ZN19CourseInfoItemParts4waitEv
00000071000C1F80=_ZN19CourseInfoItemParts4showEv
00000071000C1F90=_ZN19CourseInfoItemParts4hideEv
00000071000C1FA0=_ZN19CourseInfoItemParts6changeEv
00000071000C1FB0=_ZN19CourseInfoItemParts5bonusEv
00000071000C1FD0=_ZN19CourseInfoItemParts6normalEv
00000071000C1FF0=_ZN19CourseInfoItemParts13calcDemoTransEPN4sead7Vector3IfEEi
00000071000C2050=_ZN19CourseInfoItemParts7addItemEi
00000071000C2070=_ZN19CourseInfoItemParts7exeWaitEv
00000071000C20D0=_ZN19CourseInfoItemParts7exeShowEv
00000071000C2140=_ZN19CourseInfoItemParts7exeHideEv
00000071000C2180=_ZN19CourseInfoItemParts10exeFadeOutEv
00000071000C21F0=_ZN19CourseInfoItemParts9exeFadeInEv
00000071000C2480=_ZN4sead16WFixedSafeStringILi32EED0Ev
00000071000C2490=_ZN4sead16WFixedSafeStringILi32EEaSERKNS_14SafeStringBaseIDsEE
00000071000C2580=_ZN15CourseInfoPartsC2ERKN2al14LayoutInitInfoEPKcS5_PNS0_11LayoutActorE
00000071000C26B4=def_71000C266C
00000071000C26D0=_ZN15CourseInfoPartsC1ERKN2al14LayoutInitInfoEPKcS5_PNS0_11LayoutActorE
00000071000C280C=def_71000C27C0
00000071000C2820=_ZN15CourseInfoParts13setCourseInfoEiPKDs
00000071000C29B0=_ZNK15CourseInfoParts6isWaitEv
00000071000C29C0=_ZN15CourseInfoParts4waitEv
00000071000C29D0=_ZN15CourseInfoParts4showEv
00000071000C29E0=_ZN15CourseInfoParts4hideEv
00000071000C29F0=_ZN15CourseInfoParts6changeEv
00000071000C2A00=_ZN15CourseInfoParts5bonusEv
00000071000C2A20=_ZN15CourseInfoParts6normalEv
00000071000C2A40=_ZN15CourseInfoParts7exeWaitEv
00000071000C2A80=_ZN15CourseInfoParts7exeHideEv
00000071000C2AC0=_ZN15CourseInfoParts7exeShowEv
00000071000C2B30=_ZN15CourseInfoParts10exeFadeOutEv
00000071000C2BA0=_ZN15CourseInfoParts9exeFadeInEv
00000071000C2E10=_ZN20CourseInfoStampPartsC2ERKN2al14LayoutInitInfoEPKcS5_PNS0_11LayoutActorE
00000071000C2ED0=_ZN20CourseInfoStampPartsC1ERKN2al14LayoutInitInfoEPKcS5_PNS0_11LayoutActorE
00000071000C2F80=_ZNK20CourseInfoStampParts6isWaitEv
00000071000C2F90=_ZN20CourseInfoStampParts4waitEv
00000071000C2FA0=_ZN20CourseInfoStampParts4showEv
00000071000C2FB0=_ZN20CourseInfoStampParts4hideEv
00000071000C2FC0=_ZN20CourseInfoStampParts3addEv
00000071000C2FD0=_ZN20CourseInfoStampParts6changeEv
00000071000C2FE0=_ZN20CourseInfoStampParts2onEv
00000071000C3000=_ZN20CourseInfoStampParts3offEv
00000071000C3020=_ZN20CourseInfoStampParts8stamp100Ev
00000071000C3040=_ZN20CourseInfoStampParts8stamp200Ev
00000071000C3060=_ZN20CourseInfoStampParts5bonusEv
00000071000C3080=_ZN20CourseInfoStampParts6normalEv
00000071000C30A0=_ZN20CourseInfoStampParts7exeWaitEv
00000071000C30E0=_ZN20CourseInfoStampParts7exeShowEv
00000071000C3150=_ZN20CourseInfoStampParts7exeHideEv
00000071000C3190=_ZN20CourseInfoStampParts6exeAddEv
00000071000C3210=_ZN20CourseInfoStampParts10exeFadeOutEv
00000071000C3280=_ZN20CourseInfoStampParts9exeFadeInEv
00000071000C3580=_ZN19CourseInfoTimePartsC2ERKN2al14LayoutInitInfoEPKcS5_PNS0_11LayoutActorE
00000071000C3640=_ZN19CourseInfoTimePartsC1ERKN2al14LayoutInitInfoEPKcS5_PNS0_11LayoutActorE
00000071000C3700=_ZN19CourseInfoTimeParts4waitEv
00000071000C3710=_ZN19CourseInfoTimeParts4showEv
00000071000C3720=_ZN19CourseInfoTimeParts4hideEv
00000071000C3730=_ZN19CourseInfoTimeParts6changeEv
00000071000C3740=_ZN19CourseInfoTimeParts11setBestTimeEv
00000071000C3760=_ZN19CourseInfoTimeParts12setBestFloorEv
00000071000C3780=_ZN19CourseInfoTimeParts7clearOnEv
00000071000C37A0=_ZN19CourseInfoTimeParts8clearOffEv
00000071000C37C0=_ZN19CourseInfoTimeParts5line1Ev
00000071000C37E0=_ZN19CourseInfoTimeParts5line2Ev
00000071000C3800=_ZN19CourseInfoTimeParts5line3Ev
00000071000C3820=_ZN19CourseInfoTimeParts9achieveOnEv
00000071000C3840=_ZN19CourseInfoTimeParts10achieveOffEv
00000071000C3860=_ZN19CourseInfoTimeParts7exeWaitEv
00000071000C38A0=_ZN19CourseInfoTimeParts7exeShowEv
00000071000C3910=_ZN19CourseInfoTimeParts7exeHideEv
00000071000C3950=_ZN19CourseInfoTimeParts10exeFadeOutEv
00000071000C3A00=_ZN19CourseInfoTimeParts9exeFadeInEv
00000071000C3C50=_ZN20CourseSelectItemDemoC2ERKN2al14LayoutInitInfoEP19SequenceMsgDirector
00000071000C3D30=_ZN20CourseSelectItemDemoC1ERKN2al14LayoutInitInfoEP19SequenceMsgDirector
00000071000C3E00=_ZN20CourseSelectItemDemo18receiveSequenceMsgEPK11SequenceMsg
00000071000C3ED0=_ZThn304_N20CourseSelectItemDemo18receiveSequenceMsgEPK11SequenceMsg
00000071000C3EE0=_ZN20CourseSelectItemDemo11setGemColorEPKc
00000071000C3EF0=_ZN20CourseSelectItemDemo9exeAppearEv
00000071000C3F60=_ZN20CourseSelectItemDemo7exeWaitEv
00000071000C3FA0=_ZN20CourseSelectItemDemo6exeEndEv
00000071000C4010=_ZNK20CourseSelectItemDemo22getSequenceMsgDirectorEv
00000071000C4020=_ZThn304_NK20CourseSelectItemDemo22getSequenceMsgDirectorEv
00000071000C4160=_ZN18CourseSelectLayoutC2EP19SequenceMsgDirectorRKN2al14LayoutInitInfoEPK14GameDataHolderPNS2_13GamePadSystemE
00000071000C43A0=_ZN18CourseSelectLayoutC1EP19SequenceMsgDirectorRKN2al14LayoutInitInfoEPK14GameDataHolderPNS2_13GamePadSystemE
00000071000C45D0=_ZN18CourseSelectLayoutD2Ev
00000071000C46A0=_ZN18CourseSelectLayoutD1Ev
00000071000C46B0=_ZN18CourseSelectLayout6appearEv
00000071000C4A30=_ZN4sead22WFormatFixedSafeStringILi8EEC2EPKDsz
00000071000C4B00=_ZNK18CourseSelectLayout26isEnableAmiiboButtonAppearEv
00000071000C4B60=_ZN18CourseSelectLayout18appearAmiiboButtonEb
00000071000C4BC0=_ZN18CourseSelectLayout16hideAmiiboButtonEv
00000071000C4BD0=_ZNK18CourseSelectLayout29isEnablePixelToadButtonAppearEv
00000071000C4C40=_ZN18CourseSelectLayout17inPixelToadButtonEv
00000071000C4C50=_ZN18CourseSelectLayout19hidePixelToadButtonEv
00000071000C4C60=_ZN18CourseSelectLayout18receiveSequenceMsgEPK11SequenceMsg
00000071000C4E50=_ZThn304_N18CourseSelectLayout18receiveSequenceMsgEPK11SequenceMsg
00000071000C4E60=_ZN18CourseSelectLayout8movementEv
00000071000C4E70=_ZN18CourseSelectLayout8calcAnimEb
00000071000C4E80=_ZN18CourseSelectLayout19killPixelToadButtonEv
00000071000C4E90=_ZNK18CourseSelectLayout15isModeSelectionEv
00000071000C4EF0=_ZN18CourseSelectLayout13tryDecideBackEv
00000071000C4F00=_ZNK18CourseSelectLayout15isAppearEndBackEv
00000071000C4F10=_ZNK18CourseSelectLayout15isDecideEndBackEv
00000071000C4F20=_ZNK18CourseSelectLayout12isDecideBackEv
00000071000C4F30=_ZNK18CourseSelectLayout11isTouchBackEv
00000071000C4F40=_ZNK18CourseSelectLayout14checkTouchBackEv
00000071000C4F50=_ZNK18CourseSelectLayout11isValidBackEv
00000071000C4F60=_ZN18CourseSelectLayout12validateBackEv
00000071000C4F70=_ZN18CourseSelectLayout14invalidateBackEv
00000071000C4F80=_ZN18CourseSelectLayout23enableModeChangeControlEb
00000071000C4F90=_ZN18CourseSelectLayout20invalidateModeChangeEv
00000071000C4FA0=_ZN18CourseSelectLayout18validateModeChangeEv
00000071000C4FC0=_ZN18CourseSelectLayout8tryOneUpEib
00000071000C5040=_ZNK18CourseSelectLayout6isWaitEv
00000071000C5050=_ZNK18CourseSelectLayout10isEndGuideEv
00000071000C50A0=_ZNK18CourseSelectLayout27isAmiiboButtonAlreadyAppearEv
00000071000C50B0=_ZNK18CourseSelectLayout19isTouchAmiiboButtonEv
00000071000C50C0=_ZNK18CourseSelectLayout25isAmiiboButtonActivateEndEv
00000071000C50D0=_ZNK18CourseSelectLayout30isPixelToadButtonAlreadyAppearEv
00000071000C50E0=_ZNK18CourseSelectLayout22isTouchPixelToadButtonEv
00000071000C50F0=_ZN18CourseSelectLayout21appearPixelToadButtonEb
00000071000C5170=_ZNK18CourseSelectLayout28isPixelToadButtonActivateEndEv
00000071000C5180=_ZN18CourseSelectLayout23setPixelToadButtonStateEb
00000071000C5210=_ZNK18CourseSelectLayout23isPixelToadButtonDecideEv
00000071000C5220=_ZN18CourseSelectLayout17tryStartPixelToadEv
00000071000C52A0=_ZN18CourseSelectLayout13forceEndGuideEv
00000071000C52D0=_ZN18CourseSelectLayout13tryStartGuideEv
00000071000C53B0=_ZNK18CourseSelectLayout16isEnableEndGuideEv
00000071000C53F0=_ZN18CourseSelectLayout11tryEndGuideEv
00000071000C5440=_ZN18CourseSelectLayout9exeAppearEv
00000071000C5490=_ZN18CourseSelectLayout7exeWaitEv
00000071000C5670=_ZN18CourseSelectLayout17handle2PModeReadyEv
00000071000C57F0=_ZN18CourseSelectLayout17handle1PModeReadyEv
00000071000C58A0=_ZN18CourseSelectLayout16exePreModeChangeEv
00000071000C5960=_ZN18CourseSelectLayout20exeConfirmModeChangeEv
00000071000C5A80=_ZN18CourseSelectLayout17declineModeSwitchEPKc
00000071000C5AA0=_ZN18CourseSelectLayout9exe1PModeEv
00000071000C5C80=_ZN18CourseSelectLayout9exe2PModeEv
00000071000C5E50=_ZN18CourseSelectLayout7exeHelpEv
00000071000C5FC0=_ZN18CourseSelectLayout10exeHelpEndEv
00000071000C6130=_ZN18CourseSelectLayout6exeEndEv
00000071000C6170=_ZN18CourseSelectLayout8exeOneUpEv
00000071000C6300=_ZN18CourseSelectLayout8exeGuideEv
00000071000C6490=_ZN18CourseSelectLayout24exeAppearPixelToadButtonEv
00000071000C6600=_ZN18CourseSelectLayout34exeAppearPixelToadButtonFocusIntroEv
00000071000C6640=_ZN18CourseSelectLayout33exeAppearPixelToadButtonFocusWaitEv
00000071000C6740=_ZN18CourseSelectLayout34exeAppearPixelToadButtonFocusOutroEv
00000071000C6790=_ZN18CourseSelectLayout23disableBackGroundButtonEP11ButtonGroup
00000071000C67A0=_ZN18CourseSelectLayout22enableBackGroundButtonEP11ButtonGroupb
00000071000C67B0=_ZNK18CourseSelectLayout22getSequenceMsgDirectorEv
00000071000C67C0=_ZThn304_NK18CourseSelectLayout22getSequenceMsgDirectorEv
00000071000C69B0=_ZN4sead22WFormatFixedSafeStringILi8EED0Ev
00000071000C69C0=_ZN12CursorTargetC2ERKN2al14LayoutInitInfoEPKcS5_PNS0_11LayoutActorE
00000071000C6A70=_ZN17DokanGuideBalloonC2EPKN4sead7Vector3IfEE
00000071000C6B00=_ZN17DokanGuideBalloonC1EPKN4sead7Vector3IfEE
00000071000C6B90=_ZN17DokanGuideBalloon4initERKN2al13ActorInitInfoE
00000071000C6C20=_ZN17DokanGuideBalloon7controlEv
00000071000C6C90=_ZN17DokanGuideBalloon4killEv
00000071000C6CD0=_ZN17DokanGuideBalloon15setPlayerSensorEPKN2al9HitSensorE
00000071000C6D40=_ZN17DokanGuideBalloon9startShowEi
00000071000C6D90=_ZN17DokanGuideBalloon13playerTouchedEv
00000071000C6DA0=_ZN17DokanGuideBalloon12exeShowReadyEv
00000071000C6DE0=_ZN17DokanGuideBalloon7exeShowEv
00000071000C6EA0=_ZN17DokanGuideBalloonD1Ev
00000071000C6EB0=_ZN17DokanGuideBalloonD0Ev
00000071000C6FF0=_ZN22DotKinopioAppearLayoutC2ERKN2al14LayoutInitInfoEP19SequenceMsgDirectorP15IUseSequenceMsg
00000071000C70D0=_ZN22DotKinopioAppearLayoutC1ERKN2al14LayoutInitInfoEP19SequenceMsgDirectorP15IUseSequenceMsg
00000071000C71A0=_ZN22DotKinopioAppearLayout8activateEv
00000071000C71F0=_ZN22DotKinopioAppearLayout18startAppearSuccessEv
00000071000C7240=_ZNK22DotKinopioAppearLayout5isEndEv
00000071000C7290=_ZN22DotKinopioAppearLayout18receiveSequenceMsgEPK11SequenceMsg
00000071000C72A0=_ZThn304_N22DotKinopioAppearLayout18receiveSequenceMsgEPK11SequenceMsg
00000071000C72B0=_ZN22DotKinopioAppearLayout10exeStandByEv
00000071000C72C0=_ZN22DotKinopioAppearLayout9exeAppearEv
00000071000C7320=_ZN22DotKinopioAppearLayout7exeWaitEv
00000071000C7370=_ZN22DotKinopioAppearLayout6exeEndEv
00000071000C73F0=_ZNK22DotKinopioAppearLayout22getSequenceMsgDirectorEv
00000071000C7400=_ZThn304_NK22DotKinopioAppearLayout22getSequenceMsgDirectorEv
00000071000C7410=nullsub_59
00000071000C7550=_ZN12GameOverMenuC2EPK14GameDataHolder
00000071000C75E0=_ZN12GameOverMenuC1EPK14GameDataHolder
00000071000C7670=_ZN12GameOverMenu4initERKN2al14LayoutInitInfoE
00000071000C7710=_ZN12GameOverMenu6appearEv
00000071000C77B0=_ZN12GameOverMenu16handleDisconnectEv
00000071000C77D0=_ZNK12GameOverMenu16isDecideContinueEv
00000071000C77E0=_ZNK12GameOverMenu12isDecideQuitEv
00000071000C77F0=_ZN12GameOverMenu9exeAppearEv
00000071000C7850=_ZN12GameOverMenu7exeWaitEv
00000071000C78D0=_ZN12GameOverMenu6exeEndEv
00000071000C7A40=_ZN30GuideAppearPointConnectedSpeedC2Ev
00000071000C7A60=_ZN30GuideAppearPointConnectedSpeed9updatePosERKN4sead7Vector3IfEE
00000071000C7A90=_ZNK30GuideAppearPointConnectedSpeed6isMoveEv
00000071000C7B00=_ZN16GuideAppearPointC2EPKc
00000071000C7BB0=_ZN16GuideAppearPointC1EPKc
00000071000C7C70=_ZN16GuideAppearPoint4initERKN2al13ActorInitInfoE
00000071000C7EF0=_ZN16GuideAppearPoint16setupForIconTypeEi
00000071000C7FD0=_ZN16GuideAppearPoint9disappearEv
00000071000C7FE0=_ZN16GuideAppearPoint18disappearImmediateEv
00000071000C8030=_ZN16GuideAppearPoint6appearEv
00000071000C8070=_ZN16GuideAppearPoint4killEv
00000071000C8080=_ZN16GuideAppearPoint18initAfterPlacementEv
00000071000C8180=_ZN16GuideAppearPoint7controlEv
00000071000C8200=_ZN16GuideAppearPoint9exeAppearEv
00000071000C82D0=_ZN16GuideAppearPoint11startActionEPKcS1_
00000071000C82F0=_ZN16GuideAppearPoint10updateIconEb
00000071000C85C0=_ZN16GuideAppearPoint25updateLayoutPosAtWorldPosEPKN2al10IUseCameraERKN4sead7Vector3IfEEf
00000071000C8600=_ZN16GuideAppearPoint7exeWaitEv
00000071000C8CC0=_ZN16GuideAppearPoint6exeEndEv
00000071000C8D80=_ZN16GuideAppearPoint14exeNoneDisplayEv
00000071000C8E60=_ZN16GuideAppearPoint10exeKillEndEv
00000071000C8F30=_ZN16GuideAppearPoint16createSphereAreaEfRKN4sead7Vector3IfEERKN2al13ActorInitInfoE
00000071000C8FB0=_ZN16GuideAppearPoint23startActionIfNotPlayingEPKcS1_
00000071000C9020=_ZN16GuideAppearPoint14getConsoleModeEv
00000071000C9060=_ZN16GuideAppearPointD1Ev
00000071000C9070=_ZN16GuideAppearPointD0Ev
00000071000C90F0=_ZNK2al10FunctorV0MIP16GuideAppearPointMS1_FvvEEclEv
00000071000C9110=_ZNK2al10FunctorV0MIP16GuideAppearPointMS1_FvvEE5cloneEv
00000071000C9160=_ZN22GuideAppearPointHolderC2Ev
00000071000C91C0=_ZN22GuideAppearPointHolder18registerGuidePointEP16GuideAppearPoint
00000071000C91D0=_ZN22GuideAppearPointHolder14killGuidePointEv
00000071000C9220=_ZN2kp18registerGuidePointEPKN2al18IUseSceneObjHolderEP16GuideAppearPoint
00000071000C9260=_ZN2kp14killGuidePointEPKN2al18IUseSceneObjHolderE
00000071000C92C0=_ZNK22GuideAppearPointHolder15getSceneObjNameEv
00000071000C92D0=_ZN12GuideBalloonC2EPKcRKN2al14LayoutInitInfoEPKN4sead7Vector3IfEERS9_
00000071000C93D0=_ZN12GuideBalloonC1EPKcRKN2al14LayoutInitInfoEPKN4sead7Vector3IfEERS9_
00000071000C94D0=_ZN12GuideBalloon13startShowMikeEv
00000071000C9530=_ZN12GuideBalloon17startShowDrcTouchEi
00000071000C95B0=_ZN12GuideBalloon10updateIconEb
00000071000C95EC=def_71000C9634
00000071000C9740=_ZN12GuideBalloon9startShowEPKDs
00000071000C9840=_ZN12GuideBalloon7endShowEv
00000071000C9890=_ZN12GuideBalloon9exeAppearEv
00000071000C9950=_ZN12GuideBalloon7exeWaitEv
00000071000C9A00=_ZN12GuideBalloon6exeEndEv
00000071000C9AC0=_ZN12GuideBalloon14getConsoleModeEv
00000071000C9C90=_ZN13GuideFrameOutC2ERKN2al14LayoutInitInfoEPKNS0_9LiveActorE
00000071000C9D70=_ZN13GuideFrameOut8initIconEv
00000071000C9E30=_ZN13GuideFrameOutC1ERKN2al14LayoutInitInfoEPKNS0_9LiveActorE
00000071000C9F10=_ZN13GuideFrameOut6appearEv
00000071000C9F50=_ZN13GuideFrameOut9startDemoEv
00000071000C9F80=_ZN13GuideFrameOut16updateVisibilityEv
00000071000C9FD0=_ZN13GuideFrameOut7endDemoEv
00000071000CA020=_ZN13GuideFrameOut9setEnableEv
00000071000CA070=_ZN13GuideFrameOut10setDisableEv
00000071000CA090=_ZN13GuideFrameOut15setEnableBubbleEb
00000071000CA0F0=_ZNK13GuideFrameOut8isEnableEv
00000071000CA120=_ZNK13GuideFrameOut11isScreenOutEv
00000071000CA130=_ZNK13GuideFrameOut17getScreenOutFrameEv
00000071000CA140=_ZN13GuideFrameOut7controlEv
00000071000CA520=_ZN13GuideFrameOut14exeStartAppearEv
00000071000CA5D0=_ZN13GuideFrameOut9exeAppearEv
00000071000CA610=_ZN13GuideFrameOut17exeStartDisappearEv
00000071000CA6A0=_ZN13GuideFrameOut12exeDisappearEv
00000071000CA6E0=_ZN4sead22WFormatFixedSafeStringILi6EEC2EPKDsz
00000071000CA8E0=_ZN4sead22WFormatFixedSafeStringILi6EED0Ev
00000071000CA8F0=_ZN4sead16WFixedSafeStringILi6EEaSERKNS_14SafeStringBaseIDsEE
00000071000CA9E0=_ZN15GuideGameWindowC1ERKN2al14LayoutInitInfoEb
00000071000CAAC0=_ZNK15GuideGameWindow8isActiveEv
00000071000CAB20=_ZNK15GuideGameWindow5isEndEv
00000071000CAB40=_ZNK15GuideGameWindow8isActiveEN2kp25EGuideGameWindowDisplayIdE
00000071000CAB60=_ZN15GuideGameWindow11startAppearEN2kp25EGuideGameWindowDisplayIdENS0_24EGuideGameWindowIconTypeEPKDsif
00000071000CABA0=_ZN15GuideGameWindow12startRestoreEN2kp24EGuideGameWindowIconTypeE
00000071000CABC0=_ZN15GuideGameWindow14startAppearDrcEi
00000071000CABD0=_ZN15GuideGameWindow14startDisappearEN2kp25EGuideGameWindowDisplayIdEb
00000071000CAC20=_ZN15GuideGameWindow11getIconTypeEv
00000071000CAC50=_ZNK15GuideGameWindow21isShowingTruckRideDRCEv
00000071000CAC60=_ZN15GuideGameWindow24resetShowingTruckRideDRCEv
00000071000CAC70=_ZN2kp21appearGuideGameWindowEPKN2al18IUseSceneObjHolderEPKcS5_if
00000071000CAC90=_ZN2kp34appearGuideGameWindowWithDisplayIdEPKN2al18IUseSceneObjHolderENS_25EGuideGameWindowDisplayIdEPKcS6_if
00000071000CB0B0=_ZN2kp24appearGuideGameWindowDrcEPKN2al18IUseSceneObjHolderEi
00000071000CB0D0=_ZN2kp24disappearGuideGameWindowEPKN2al18IUseSceneObjHolderEb
00000071000CB130=_ZN2kp37disappearGuideGameWindowWithDisplayIdEPKN2al18IUseSceneObjHolderENS_25EGuideGameWindowDisplayIdEb
00000071000CB1A0=_ZN2kp23isActiveGuideGameWindowEPKN2al18IUseSceneObjHolderE
00000071000CB210=_ZN2kp20isEndGuideGameWindowEPKN2al18IUseSceneObjHolderE
00000071000CB240=_ZN2kp23isActiveGuideGameWindowEPKN2al18IUseSceneObjHolderENS_25EGuideGameWindowDisplayIdE
00000071000CB280=_ZN2kp32getActiveGuideGameWindowIconTypeEPKN2al18IUseSceneObjHolderE
00000071000CB2D0=_ZN2kp21isShowingTruckRideDRCEPKN2al18IUseSceneObjHolderE
00000071000CB2F0=_ZN2kp24resetShowingTruckRideDRCEPKN2al18IUseSceneObjHolderE
00000071000CB310=_ZN2kp22restoreGuideGameWindowEPKN2al18IUseSceneObjHolderENS_24EGuideGameWindowIconTypeE
00000071000CB350=_ZNK15GuideGameWindow15getSceneObjNameEv
00000071000CB360=_ZN20GuideGameWindowPointC2EPKc
00000071000CB3F0=_ZN20GuideGameWindowPointC1EPKc
00000071000CB480=_ZN20GuideGameWindowPoint4initERKN2al13ActorInitInfoE
00000071000CB590=_ZN20GuideGameWindowPoint7controlEv
00000071000CB5A0=_ZN20GuideGameWindowPoint4killEv
00000071000CB5B0=_ZN20GuideGameWindowPoint9exeAppearEv
00000071000CB640=_ZN20GuideGameWindowPoint16setupGuideAppearENS_13GamePadStatesE
00000071000CB910=_ZN20GuideGameWindowPoint7exeWaitEv
00000071000CB9E0=_ZN20GuideGameWindowPoint15getGamepadStateEv
00000071000CBA50=_ZN20GuideGameWindowPoint6exeEndEv
00000071000CBAB0=_ZN20GuideGameWindowPoint14exeNoneDisplayEv
00000071000CBB60=_ZN20GuideGameWindowPoint10exeKillEndEv
00000071000CBB70=_ZN20GuideGameWindowPointD1Ev
00000071000CBB80=_ZN20GuideGameWindowPointD0Ev
00000071000CBC50=_ZN12GuideMessageC2ERKN2al14LayoutInitInfoEPKc
00000071000CBD70=_ZN12GuideMessageC1ERKN2al14LayoutInitInfoEPKc
00000071000CBEA0=_ZN12GuideMessage12startRestoreEi
00000071000CBF40=_ZN12GuideMessage10appearImplEiPKDs
00000071000CBFB0=_ZN12GuideMessage11startAppearEiPKDsif
00000071000CC090=_ZN12GuideMessage17setupGuideMessageEiPKDs
00000071000CC158=def_71000CC144
00000071000CC6C0=_ZN12GuideMessage8startEndEb
00000071000CC760=_ZNK12GuideMessage5isEndEv
00000071000CC770=_ZN12GuideMessage9exeAppearEv
00000071000CC7E0=_ZN12GuideMessage7exeWaitEv
00000071000CC980=_ZN12GuideMessage8setAlphaEh
00000071000CCA1C=def_71000CC9A0
00000071000CCAB0=_ZN12GuideMessage7setTextEPKDs
00000071000CCB4C=def_71000CCAE0
00000071000CCC20=_ZN12GuideMessage6exeEndEv
00000071000CCDA0=_ZN15GuideMessageCamC2ERKN2al14LayoutInitInfoEPKc
00000071000CCED0=_ZN15GuideMessageCamC1ERKN2al14LayoutInitInfoEPKc
00000071000CD000=_ZN15GuideMessageCam11startAppearEiPKDsifj
00000071000CD1A0=_ZN15GuideMessageCam8startEndEj
00000071000CD270=_ZN15GuideMessageCam8setColorEPKc
00000071000CD280=_ZN15GuideMessageCam4hideEv
00000071000CD2D0=_ZN15GuideMessageCam9exeAppearEv
00000071000CD380=_ZN15GuideMessageCam7exeWaitEv
00000071000CD460=_ZN15GuideMessageCam6exeEndEv
00000071000CD540=_ZN15GuideMessageCam29exeAppearWhileHideGuideWindowEv
00000071000CD700=_ZN15GuideMessageDrcC2ERKN2al14LayoutInitInfoE
00000071000CD7D0=_ZN15GuideMessageDrcC1ERKN2al14LayoutInitInfoE
00000071000CD890=_ZN15GuideMessageDrc11startAppearEPKDsi
00000071000CD910=_ZN15GuideMessageDrc9exeAppearEv
00000071000CD960=_ZN15GuideMessageDrc7exeWaitEv
00000071000CD9D0=_ZN15GuideMessageDrc6exeEndEv
00000071000CDB70=_ZN8GuideObjC2EPKc
00000071000CDBF0=_ZN8GuideObjC1EPKc
00000071000CDC70=_ZN8GuideObj4initERKN2al13ActorInitInfoE
00000071000CDD60=_ZN8GuideObj6appearEv
00000071000CDD90=_ZN8GuideObj4killEv
00000071000CDDC0=_ZN8GuideObj9exeAppearEv
00000071000CDE60=_ZN8GuideObj7exeWaitEv
00000071000CDEC0=_ZN8GuideObjD1Ev
00000071000CDED0=_ZN8GuideObjD0Ev
00000071000CE010=_ZN15GuidePausePartsC2ERKN2al14LayoutInitInfoEPKcS5_PNS0_11LayoutActorE
00000071000CE0D0=_ZN15GuidePausePartsC1ERKN2al14LayoutInitInfoEPKcS5_PNS0_11LayoutActorE
00000071000CE180=_ZN15GuidePauseParts6appearEv
00000071000CE190=_ZN15GuidePauseParts7appear2Ev
00000071000CE240=_ZN15GuidePauseParts3endEv
00000071000CE290=_ZN15GuidePauseParts9exeAppearEv
00000071000CE300=_ZN15GuidePauseParts7exeWaitEv
00000071000CE340=_ZN15GuidePauseParts6exeEndEv
00000071000CE490=_ZN16GuideWindowPartsC2ERKN2al14LayoutInitInfoEPKcS5_PNS0_11LayoutActorE
00000071000CE550=_ZN16GuideWindowPartsC1ERKN2al14LayoutInitInfoEPKcS5_PNS0_11LayoutActorE
00000071000CE600=_ZN16GuideWindowParts6appearEPKc
00000071000CE640=_ZN16GuideWindowParts7setTextEPKDs
00000071000CE660=_ZN16GuideWindowParts3endEv
00000071000CE670=_ZNK16GuideWindowParts6isWaitEv
00000071000CE680=_ZN16GuideWindowParts9exeAppearEv
00000071000CE700=_ZN16GuideWindowParts7exeWaitEv
00000071000CE710=_ZN16GuideWindowParts6exeEndEv
00000071000CE780=nullsub_60
00000071000CE880=_ZN10IconAPartsC2ERKN2al14LayoutInitInfoEPKcS5_PNS0_11LayoutActorE
00000071000CE940=_ZN10IconAPartsC1ERKN2al14LayoutInitInfoEPKcS5_PNS0_11LayoutActorE
00000071000CE9F0=_ZNK10IconAParts8isActiveEv
00000071000CEA40=_ZNK10IconAParts11isDecideEndEv
00000071000CEA50=_ZN10IconAParts6appearEv
00000071000CEAF0=_ZN10IconAParts3endEv
00000071000CEB00=_ZN10IconAParts6decideEv
00000071000CEB10=_ZN10IconAParts9exeAppearEv
00000071000CEB80=_ZN10IconAParts7exeWaitEv
00000071000CEC30=_ZN10IconAParts6exeEndEv
00000071000CECA0=_ZN10IconAParts7exeHideEv
00000071000CECE0=_ZN10IconAParts9exeDecideEv
00000071000CED50=_ZN10IconAParts12exeDecideEndEv
00000071000CEE30=nullsub_61
00000071000CEF20=_ZN14LayoutFontUtil21getMessageFontButtonAEv
00000071000CEF30=_ZN14LayoutFontUtil21getMessageFontButtonBEv
00000071000CEF40=_ZN14LayoutFontUtil21getMessageFontButtonXEv
00000071000CEF50=_ZN14LayoutFontUtil21getMessageFontButtonYEv
00000071000CEF60=_ZN14LayoutFontUtil27getMessageFontButtonUpArrowEv
00000071000CEF70=_ZN14LayoutFontUtil29getMessageFontButtonDownArrowEv
00000071000CEF80=_ZN14LayoutFontUtil30getMessageFontButtonRightArrowEv
00000071000CEF90=_ZN14LayoutFontUtil29getMessageFontButtonLeftArrowEv
00000071000CEFA0=_ZN14LayoutFontUtil21getMessageFontButtonLEv
00000071000CEFB0=_ZN14LayoutFontUtil21getMessageFontButtonREv
00000071000CEFC0=_ZN14LayoutFontUtil22getMessageFontButtonZLEv
00000071000CEFD0=_ZN14LayoutFontUtil22getMessageFontButtonZREv
00000071000CEFE0=_ZN14LayoutFontUtil26getMessageFontButtonDecideEi
00000071000CF010=_ZN14LayoutFontUtil26getMessageFontButtonCancelEi
00000071000CF040=_ZN14LayoutFontUtil30getMessageFontButtonDokanEnterEi
00000071000CF070=_ZN14LayoutFontUtil26getMessageFontButtonPullupEv
00000071000CF0A0=_ZN14LayoutFontUtil15getIconFontCoinEv
00000071000CF0B0=_ZN14LayoutFontUtil16getIconFontClockEv
00000071000CF0C0=_ZN14LayoutFontUtil16getIconFontCrownEv
00000071000CF0D0=_ZN14LayoutFontUtil16getIconFontTimesEv
00000071000CF0E0=_ZN14LayoutFontUtil20getIconFontGreenStarEv
00000071000CF0F0=_ZN14LayoutFontUtil24getIconFontGreenStarBaseEv
00000071000CF100=_ZN14LayoutFontUtil25getIconFontGreenStarEmptyEv
00000071000CF110=_ZN14LayoutFontUtil22getIconFontCollectItemEv
00000071000CF120=_ZN14LayoutFontUtil26getIconFontCollectItemBaseEv
00000071000CF130=_ZN14LayoutFontUtil27getIconFontCollectItemEmptyEv
00000071000CF140=_ZN14LayoutFontUtil25getIconFontCheckpointItemEv
00000071000CF150=_ZN14LayoutFontUtil29getIconFontCheckpointItemBaseEv
00000071000CF160=_ZN14LayoutFontUtil30getIconFontWarpCubeLockedPieceEv
00000071000CF170=_ZN14LayoutFontUtil35getIconFontWarpCubeLockedPieceEmptyEv
00000071000CF180=_ZN14LayoutFontUtil21getIconFontIllustItemEv
00000071000CF190=_ZN14LayoutFontUtil19getIconFontGoalItemEv
00000071000CF1A0=_ZN14LayoutFontUtil20getPictureFontPlayerEi
00000071000CF1D0=_ZN14LayoutFontUtil28getPictureFontKinopioBrigadeEv
00000071000CF1E0=_ZN14LayoutFontUtil22getPictureFontKinopicoEv
00000071000CF1F0=_ZN14LayoutFontUtil24getPictureFontKinopioKunEv
00000071000CF200=_ZN14LayoutFontUtil22getPictureFontRcPlayerEi
00000071000CF220=_ZN14LayoutFontUtil19getPictureFontMarioEv
00000071000CF230=_ZN14LayoutFontUtil26getPictureFontRcPlayerFlagEi
00000071000CF250=_ZN14LayoutFontUtil23getPictureFontFlagMarioEv
00000071000CF260=_ZN14LayoutFontUtil19getPictureFontLuigiEv
00000071000CF270=_ZN14LayoutFontUtil19getPictureFontPeachEv
00000071000CF280=_ZN14LayoutFontUtil21getPictureFontKinopioEv
00000071000CF290=_ZN14LayoutFontUtil21getPictureFontRosettaEv
00000071000CF2A0=_ZN14LayoutFontUtil21getPictureFontSpecialEv
00000071000CF2B0=_ZN14LayoutFontUtil23getPictureFontFlagLuigiEv
00000071000CF2C0=_ZN14LayoutFontUtil23getPictureFontFlagPeachEv
00000071000CF2D0=_ZN14LayoutFontUtil25getPictureFontFlagKinopioEv
00000071000CF2E0=_ZN14LayoutFontUtil25getPictureFontFlagRosettaEv
00000071000CF2F0=_ZN14LayoutFontUtil25getPictureFontFlagSpecialEv
00000071000CF300=_ZN14LayoutFontUtil23getPictureFontFlagEmptyEv
00000071000CF310=_ZN14LayoutFontUtil18getPictureFontGoalEv
00000071000CF320=_ZN14LayoutFontUtil23getPictureFontGoalEmptyEv
00000071000CF330=_ZN3fix15TextBoxTextInfo10setTextBoxEPN2nn4ui2d6LayoutEPKci
00000071000CF4C0=_ZN3fix15TextBoxTextInfo8applyFixEv
00000071000CF6D0=_ZN9PaintModeC2ERKN2al14LayoutInitInfoE
00000071000CF790=_ZN9PaintModeC1ERKN2al14LayoutInitInfoE
00000071000CF850=_ZN9PaintMode6appearEv
00000071000CF880=_ZN9PaintMode8movementEv
00000071000CF890=_ZN9PaintMode8calcAnimEb
00000071000CF8A0=_ZN9PaintMode2inEv
00000071000CF8C0=_ZN9PaintMode3endEv
00000071000CF8D0=_ZN9PaintMode9set1PModeEv
00000071000CF8E0=_ZN9PaintMode9set2PModeEv
00000071000CF8F0=_ZN9PaintMode9exeAppearEv
00000071000CF900=_ZN9PaintMode7exeWaitEv
00000071000CF910=_ZN9PaintMode6exeEndEv
00000071000CF940=nullsub_62
00000071000CF950=nullsub_63
00000071000CF960=_ZN9PauseMenuC2ERKN2al14LayoutInitInfoEP14GameDataHolderPK18PlayerAliveWatcherPNS0_12PlayerHolderEPNS0_14CameraDirectorEPNS0_13GamePadSystemEP10StageScene
00000071000CFD50=_ZN9PauseMenuC1ERKN2al14LayoutInitInfoEP14GameDataHolderPK18PlayerAliveWatcherPNS0_12PlayerHolderEPNS0_14CameraDirectorEPNS0_13GamePadSystemEP10StageScene
00000071000D00F0=_ZN9PauseMenu6appearEv
00000071000D0190=_ZN9PauseMenu7controlEv
00000071000D01A0=_ZN9PauseMenu10decideBackEv
00000071000D01B0=_ZN9PauseMenu3endEv
00000071000D01C0=_ZN9PauseMenu9exeAppearEv
00000071000D0810=_ZN9PauseMenu7exeWaitEv
00000071000D0C80=_ZN9PauseMenu17handle2PModeReadyEv
00000071000D0DB0=_ZN9PauseMenu17handle1PModeReadyEv
00000071000D0EE0=_ZN9PauseMenu6exeEndEv
00000071000D0FD0=_ZN9PauseMenu15exeCameraChangeEv
00000071000D10B0=_ZN9PauseMenu7exeHelpEv
00000071000D11A0=_ZN9PauseMenu10exeHelpEndEv
00000071000D1290=_ZN9PauseMenu15exeControlGuideEv
00000071000D1370=_ZN9PauseMenu19exeConfirmReturnMapEv
00000071000D14D0=_ZN9PauseMenu22exeConfirmRestartStageEv
00000071000D1680=_ZN9PauseMenu16exePreModeChangeEv
00000071000D18A0=_ZN9PauseMenu17declineModeSwitchEPKc
00000071000D1910=_ZN9PauseMenu9exe1PModeEv
00000071000D1A60=_ZN9PauseMenu9exe2PModeEv
00000071000D1B30=_ZN9PauseMenu12exeShareModeEv
00000071000D1C70=_ZNK9PauseMenu12isDecideBackEv
00000071000D1C80=_ZNK9PauseMenu11isDecideMapEv
00000071000D1CD0=_ZNK9PauseMenu6isWaitEv
00000071000D1D20=_ZNK9PauseMenu5isEndEv
00000071000D1D80=_ZN9PauseMenu12isSwitched2PEv
00000071000D1D90=_ZN9PauseMenu9setPortNoEi
00000071000D1DA0=_ZNK9PauseMenu14isDecideExitVREv
00000071000D1DB0=_ZNK9PauseMenu11isForceExitEv
00000071000D1E90=_ZN21PauseMenuControlGuideC2ERKN2al14LayoutInitInfoEP14GameDataHolderPK18PlayerAliveWatcherPNS0_12PlayerHolderEPNS0_14CameraDirectorEPNS0_13GamePadSystemE
00000071000D2120=_ZN21PauseMenuControlGuideC1ERKN2al14LayoutInitInfoEP14GameDataHolderPK18PlayerAliveWatcherPNS0_12PlayerHolderEPNS0_14CameraDirectorEPNS0_13GamePadSystemE
00000071000D23C0=_ZN21PauseMenuControlGuide6appearEv
00000071000D2440=_ZN21PauseMenuControlGuide16setupControlInfoEv
00000071000D281C=def_71000D27C0
00000071000D2840=_ZN21PauseMenuControlGuide10decideBackEv
00000071000D2860=_ZN21PauseMenuControlGuide3endEv
00000071000D2870=_ZN21PauseMenuControlGuide9exeAppearEv
00000071000D29F0=_ZN21PauseMenuControlGuide7exeWaitEv
00000071000D2A98=def_71000D2A4C
00000071000D2F90=_ZN21PauseMenuControlGuide12setIndicatorEi
00000071000D2FC8=def_71000D2FAC
00000071000D3030=_ZN21PauseMenuControlGuide14getGamepadTypeEv
00000071000D30A0=_ZN21PauseMenuControlGuide6exeEndEv
00000071000D3100=_ZN21PauseMenuControlGuide15exeCameraChangeEv
00000071000D31E0=_ZN21PauseMenuControlGuide7exeHelpEv
00000071000D32C0=_ZN21PauseMenuControlGuide19exeConfirmReturnMapEv
00000071000D3460=_ZN21PauseMenuControlGuide9exe1PModeEv
00000071000D3470=_ZN21PauseMenuControlGuide9exe2PModeEv
00000071000D3480=_ZN21PauseMenuControlGuide10exeScrollLEv
00000071000D35B0=_ZN21PauseMenuControlGuide9setHeaderEa
00000071000D36D0=_ZN21PauseMenuControlGuide10exeScrollREv
00000071000D37E0=_ZN21PauseMenuControlGuide14exeAfterScrollEv
00000071000D38F0=_ZN21PauseMenuControlGuide11exeGoToPageEv
00000071000D39A0=_ZN21PauseMenuControlGuide7getPageENS_12GamePadTypesE
00000071000D39C0=_ZNK21PauseMenuControlGuide12isDecideBackEv
00000071000D39E0=_ZNK21PauseMenuControlGuide11isDecideMapEv
00000071000D3A00=_ZNK21PauseMenuControlGuide6isWaitEv
00000071000D3A50=_ZNK21PauseMenuControlGuide5isEndEv
00000071000D3AB0=_ZN21PauseMenuControlGuide16handleDisconnectEv
00000071000D3AF0=_ZN21PauseMenuControlGuide13setPlayerIconEv
00000071000D40D0=_ZN20PixelToadButtonPartsC2ERKN2al14LayoutInitInfoEPKcS5_PNS0_11LayoutActorE
00000071000D41A0=_ZN20PixelToadButtonPartsC1ERKN2al14LayoutInitInfoEPKcS5_PNS0_11LayoutActorE
00000071000D4260=_ZN20PixelToadButtonParts6appearEv
00000071000D4290=_ZN20PixelToadButtonParts4hideEv
00000071000D42A0=_ZN20PixelToadButtonParts9setActiveEb
00000071000D4350=_ZNK20PixelToadButtonParts8isActiveEv
00000071000D4360=_ZN20PixelToadButtonParts9tryDecideEv
00000071000D4450=_ZNK20PixelToadButtonParts10checkTouchEv
00000071000D4490=_ZN20PixelToadButtonParts12tryEndButtonEv
00000071000D44E0=_ZNK20PixelToadButtonParts8isAppearEv
00000071000D4510=_ZNK20PixelToadButtonParts6isWaitEv
00000071000D4520=_ZNK20PixelToadButtonParts7isTouchEv
00000071000D4530=_ZN20PixelToadButtonParts10invalidateEv
00000071000D4540=_ZN20PixelToadButtonParts8validateEv
00000071000D4550=_ZNK20PixelToadButtonParts8isDecideEv
00000071000D4560=_ZNK20PixelToadButtonParts11isDecideEndEv
00000071000D4570=_ZNK20PixelToadButtonParts7isValidEv
00000071000D4580=_ZN20PixelToadButtonParts8stopAnimEv
00000071000D45D0=_ZN20PixelToadButtonParts9startAnimEv
00000071000D4610=_ZN20PixelToadButtonParts9exeAppearEv
00000071000D4680=_ZN20PixelToadButtonParts7exeHideEv
00000071000D46C0=_ZN20PixelToadButtonParts7exeWaitEv
00000071000D4700=_ZN20PixelToadButtonParts6exeEndEv
00000071000D4740=_ZN20PixelToadButtonParts8exeTouchEv
00000071000D48C0=_ZN20PixelToadButtonParts13exeDecideWaitEv
00000071000D4900=_ZN20PixelToadButtonParts9exeDecideEv
00000071000D49C0=_ZN20PixelToadButtonParts12exeDecideEndEv
00000071000D49F0=_ZN20PixelToadButtonParts14exeDecideEnd_2Ev
00000071000D4A00=_ZN20PixelToadButtonParts10exeDisableEv
00000071000D4A10=_ZN20PixelToadButtonParts15exeDisableTouchEv
00000071000D4B90=_ZN20PixelToadButtonParts20exeDisableDecideWaitEv
00000071000D4BD0=_ZN20PixelToadButtonParts19exeDisableDecideEndEv
00000071000D4BE0=_ZN20PixelToadButtonParts16exeDisableDecideEv
00000071000D4ED0=nullsub_64
00000071000D4F70=_ZN19PlayerEntryFunction32calcNotUsePlayerCharacterTypeNumEPK14GameDataHolder
00000071000D4FE0=_ZN19PlayerEntryFunction33calcNotUsePlayerCharacterTypeListEPiPK14GameDataHolder
00000071000D50A0=_ZN19PlayerEntryFunction27calcPrevPlayerCharacterTypeEiPK14GameDataHolder
00000071000D5190=_ZN19PlayerEntryFunction27calcNextPlayerCharacterTypeEiPK14GameDataHolder
00000071000D5280=_ZN19PlayerEntryFunction30isEnableUsePlayerCharacterTypeEiPK14GameDataHolder
00000071000D5350=_ZN19PlayerEntryFunction20startCharacterSelectE20GameDataHolderWriter
00000071000D5370=_ZN19PlayerEntryFunction18shufflePlayerModelE20GameDataHolderWriter
00000071000D53A0=_ZN19PlayerEntryFunction11entryPlayerE20GameDataHolderWriterii
00000071000D53B0=_ZN19PlayerEntryFunction12retirePlayerE20GameDataHolderWriteri
00000071000D53E0=_ZN19PlayerEntryFunction14activatePlayerE20GameDataHolderWriteri
00000071000D5410=_ZN19PlayerEntryFunction14resetPlayerAllE20GameDataHolderWriter
00000071000D5430=_ZN12PlayerIDIconC2ERKN2al14LayoutInitInfoEPK11PlayerActor
00000071000D5590=_ZN12PlayerIDIconC1ERKN2al14LayoutInitInfoEPK11PlayerActor
00000071000D56F0=_ZN12PlayerIDIcon6appearEv
00000071000D5790=_ZN12PlayerIDIcon8initTextEb
00000071000D5860=_ZN12PlayerIDIcon7controlEv
00000071000D5A70=_ZN12PlayerIDIcon9disappearEv
00000071000D5AD0=_ZN12PlayerIDIcon9startDemoEv
00000071000D5B10=_ZN12PlayerIDIcon7endDemoEv
00000071000D5B30=_ZN12PlayerIDIcon8setActorEP11PlayerActor
00000071000D5B40=_ZNK12PlayerIDIcon13getCharaIndexEv
00000071000D5B70=_ZN12PlayerIDIcon9exeAppearEv
00000071000D5C00=_ZN12PlayerIDIcon7exeWaitEv
00000071000D5C40=_ZN12PlayerIDIcon17exeStartDisappearEv
00000071000D5CB0=_ZN12PlayerIDIcon12exeDisappearEv
00000071000D5EB0=_ZN11ScoreNumberC2ERKN2al14LayoutInitInfoEPKc
00000071000D5FE0=_ZN11ScoreNumberC1ERKN2al14LayoutInitInfoEPKc
00000071000D6110=_ZN11ScoreNumber10startScoreEijRKN4sead7Vector2IfEEi
00000071000D6180=_ZN11ScoreNumber10startScoreEiji
00000071000D6270=_ZN11ScoreNumber10startScoreEijRKN4sead7Vector3IfEEi
00000071000D6350=_ZN11ScoreNumber21updateByWorldPositionERKN4sead7Vector3IfEE
00000071000D63D0=_ZN11ScoreNumber10startScoreEijPKN4sead7Vector3IfEERS3_i
00000071000D64C0=_ZN11ScoreNumber13startPlayerUpEiRKN4sead7Vector2IfEEi
00000071000D6530=_ZN11ScoreNumber13startPlayerUpEii
00000071000D6690=_ZN11ScoreNumber13startPlayerUpEiRKN4sead7Vector3IfEEi
00000071000D6770=_ZN11ScoreNumber13startPlayerUpEiPKN4sead7Vector3IfEERS3_i
00000071000D6860=_ZN11ScoreNumber11startCoinUpEiRKN4sead7Vector3IfEEi
00000071000D69E0=_ZN11ScoreNumber5startEi
00000071000D6A50=_ZN11ScoreNumber7controlEv
00000071000D6B10=_ZN11ScoreNumber8exeDelayEv
00000071000D6B90=_ZN11ScoreNumber9exeAppearEv
00000071000D6CF0=_ZN12SeasonSelectC2ERKN2al14LayoutInitInfoEP19SequenceMsgDirectorPNS0_13GamePadSystemEP15StageWipeKeeper
00000071000D7680=_ZN12SeasonSelectC1ERKN2al14LayoutInitInfoEP19SequenceMsgDirectorPNS0_13GamePadSystemEP15StageWipeKeeper
00000071000D8010=_ZN12SeasonSelect6appearEv
00000071000D8600=_ZN12SeasonSelect10updateInfoEi
00000071000D87E0=_ZN12SeasonSelect23disableBackGroundButtonEP11ButtonGroup
00000071000D8810=_ZN12SeasonSelect18receiveSequenceMsgEPK11SequenceMsg
00000071000D8890=_ZThn304_N12SeasonSelect18receiveSequenceMsgEPK11SequenceMsg
00000071000D8910=_ZNK12SeasonSelect20getDecideSeasonIndexEv
00000071000D8920=_ZNK12SeasonSelect12isVRselectedEv
00000071000D8930=_ZNK12SeasonSelect6isWaitEv
00000071000D8940=_ZNK12SeasonSelect7isEShopEv
00000071000D8950=_ZN12SeasonSelect24setHideDLCNewIconEffectsEb
00000071000D8970=_ZN12SeasonSelect9exeAppearEv
00000071000D8A10=_ZN12SeasonSelect13exeWaitCursorEv
00000071000D8A70=_ZN12SeasonSelect7exeWaitEv
00000071000D9050=_ZN12SeasonSelect17handle1PModeReadyEv
00000071000D90A0=_ZN12SeasonSelect17handle2PModeReadyEv
00000071000D9150=_ZNK12SeasonSelect21findSelectSeasonIndexEv
00000071000D9500=_ZN12SeasonSelect18killAllBookEffectsEv
00000071000D9620=_ZN12SeasonSelect16trySparkleButtonEi
00000071000D96F0=_ZN12SeasonSelect9exeDecideEv
00000071000D9740=_ZNK12SeasonSelect21findDecideSeasonIndexEv
00000071000D98F0=_ZN12SeasonSelect17exeDecideTrickArtEv
00000071000D9930=_ZN12SeasonSelect12exeDecideEndEv
00000071000D9B40=_ZN12SeasonSelect16exePreModeChangeEv
00000071000D9C00=_ZN12SeasonSelect20exeConfirmModeChangeEv
00000071000D9C58=def_71000D9C48
00000071000D9E30=_ZN12SeasonSelect17declineModeSwitchEPKc
00000071000D9EA0=_ZN12SeasonSelect9exe1PModeEv
00000071000DA010=_ZN12SeasonSelect9exe2PModeEv
00000071000DA1C0=_ZN12SeasonSelect7exeHelpEv
00000071000DA2A0=_ZN12SeasonSelect10exeHelpEndEv
00000071000DA3F0=_ZN12SeasonSelect12exe2PWelcomeEv
00000071000DA4D0=_ZN12SeasonSelect19exe2PWelcomeConfirmEv
00000071000DA540=_ZN12SeasonSelect15exeEShopWelcomeEv
00000071000DA620=_ZN12SeasonSelect22exeEShopWelcomeConfirmEv
00000071000DA7E0=_ZN12SeasonSelect22enableBackGroundButtonEP11ButtonGroupb
00000071000DA810=_ZN12SeasonSelect13exeAOCWelcomeEv
00000071000DA960=_ZN12SeasonSelect20exeAOCWelcomeConfirmEv
00000071000DAB20=_ZN12SeasonSelect7exeSaveEv
00000071000DAB80=_ZN12SeasonSelect8exeEShopEv
00000071000DACA0=_ZN12SeasonSelect11exeAOCErrorEv
00000071000DAD10=_ZN12SeasonSelect12exeVRWelcomeEv
00000071000DAF10=_ZN12SeasonSelect19exeVRWelcomeConfirmEv
00000071000DB130=_ZN12SeasonSelect16exeConfirm2pToVREv
00000071000DB340=_ZN12SeasonSelect11exeVRUndockEv
00000071000DB4F0=_ZN12SeasonSelect20killAllButtonEffectsEv
00000071000DB5B0=_ZN12SeasonSelect16exeVRCalibrationEv
00000071000DB930=_ZN12SeasonSelect23exeVRCalibrationConfirmEv
00000071000DBC40=_ZN12SeasonSelect26exeWaitForParentalControlsEv
00000071000DBD20=_ZN12SeasonSelect23exePostParentalControlsEv
00000071000DBDF0=_ZN12SeasonSelect16exeVRGoggleSetupEv
00000071000DBE00=_ZN12SeasonSelect18exeVRRemoveGogglesEv
00000071000DBF40=_ZN12SeasonSelect25exeVRWaitFadeReturnToMenuEv
00000071000DC030=_ZN12SeasonSelect10invalidateEv
00000071000DC040=_ZN12SeasonSelect8validateEv
00000071000DC050=_ZNK12SeasonSelect22getSequenceMsgDirectorEv
00000071000DC060=_ZThn304_NK12SeasonSelect22getSequenceMsgDirectorEv
00000071000DC280=_ZNK4sead15RuntimeTypeInfo6DeriveINS_15GameFrameworkNxEE9isDerivedEPKNS0_9InterfaceE
00000071000DC310=_ZNK4sead15RuntimeTypeInfo6DeriveINS_13GameFrameworkEE9isDerivedEPKNS0_9InterfaceE
00000071000DC3A0=_ZNK4sead15RuntimeTypeInfo6DeriveINS_9FrameworkEE9isDerivedEPKNS0_9InterfaceE
00000071000DC430=_ZNK4sead15RuntimeTypeInfo4Root9isDerivedEPKNS0_9InterfaceE
00000071000DC610=nullsub_65
00000071000DC630=_ZN9SightMarkC2EPKcRKN2al14LayoutInitInfoES1_
00000071000DC710=_ZN9SightMarkC1EPKcRKN2al14LayoutInitInfoES1_
00000071000DC800=_ZN9SightMark11startAppearEv
00000071000DC840=_ZN9SightMark16startAppearTruckEv
00000071000DCA30=_ZN9SightMark16setupPaneStringsENS_10SightTypesE
00000071000DCD70=_ZN9SightMark18startAppearBazookaEv
00000071000DCE60=_ZN9SightMark17startAppearDragonEv
00000071000DCF30=_ZN9SightMark10appearViewEv
00000071000DCF80=_ZN9SightMark12reappearViewEv
00000071000DCF90=_ZN9SightMark3endEv
00000071000DCFB0=_ZN9SightMark5isEndEv
00000071000DD000=_ZN9SightMark14changeTruckTpsEv
00000071000DD020=_ZN9SightMark21changeTruckSubjectiveEv
00000071000DD040=_ZN9SightMark13tryHideAimingEv
00000071000DD090=_ZN9SightMark9exeAppearEv
00000071000DD100=_ZN9SightMark7exeWaitEv
00000071000DD1A0=_ZN9SightMark6exeEndEv
00000071000DD210=_ZNK9SightMark11isShareModeEv
00000071000DD310=_ZN24SimpleAppearWaitEndPartsC2ERKN2al14LayoutInitInfoEPKcS5_PNS0_11LayoutActorE
00000071000DD3D0=_ZN24SimpleAppearWaitEndPartsC1ERKN2al14LayoutInitInfoEPKcS5_PNS0_11LayoutActorE
00000071000DD480=_ZN24SimpleAppearWaitEndParts6appearEv
00000071000DD4B0=_ZN24SimpleAppearWaitEndParts3endEv
00000071000DD4C0=_ZNK24SimpleAppearWaitEndParts6isWaitEv
00000071000DD4D0=_ZN24SimpleAppearWaitEndParts9exeAppearEv
00000071000DD540=_ZN24SimpleAppearWaitEndParts7exeWaitEv
00000071000DD550=_ZN24SimpleAppearWaitEndParts6exeEndEv
00000071000DD5C0=nullsub_66
00000071000DD6B0=_ZN10SphereAreaC2EPKcfRKN4sead7Vector3IfEE
00000071000DD750=_ZN10SphereAreaC1EPKcfRKN4sead7Vector3IfEE
00000071000DD7F0=_ZN10SphereArea4initERKN2al13ActorInitInfoE
00000071000DD820=_ZNK10SphereArea8isInAreaERKN4sead7Vector3IfEE
00000071000DD890=_ZN10SphereAreaD1Ev
00000071000DD8A0=_ZN10SphereAreaD0Ev
00000071000DD8D0=_ZN12StaffRollFinC2ERKN2al14LayoutInitInfoEPK14GameDataHolder
00000071000DD9D0=_ZN12StaffRollFinC1ERKN2al14LayoutInitInfoEPK14GameDataHolder
00000071000DDAE0=_ZN12StaffRollFin7controlEv
00000071000DDAF0=_ZN12StaffRollFin11startAppearEb
00000071000DDC10=def_71000DDBB4
00000071000DDC70=_ZN12StaffRollFin8startEndEv
00000071000DDC80=_ZN12StaffRollFin9exeAppearEv
00000071000DDD60=_ZN12StaffRollFin7exeWaitEv
00000071000DDDA0=_ZN12StaffRollFin6exeEndEv
00000071000DDE60=_ZN12StaffRollFin10exeEndWaitEv
00000071000DDEA0=_ZN12StaffRollFin7exeHideEv
00000071000DDEE0=_ZNK12StaffRollFin5isEndEv
00000071000DDF40=_ZNK12StaffRollFin13isEndFinishedEv
00000071000DE110=_ZN12StaffRollJobC2ERKN2al14LayoutInitInfoE
00000071000DE1E0=_ZN12StaffRollJobC1ERKN2al14LayoutInitInfoE
00000071000DE2B0=_ZN12StaffRollJob6appearEv
00000071000DE2E0=_ZN12StaffRollJob9exeAppearEv
00000071000DE350=_ZN12StaffRollJob7exeWaitEv
00000071000DE390=_ZN12StaffRollJob6exeEndEv
00000071000DE3D0=_ZN12StaffRollJob7exeHideEv
00000071000DE410=_ZNK12StaffRollJob5isEndEv
00000071000DE460=_ZN12StaffRollJob9setStringEPKc
00000071000DE4D0=_ZN12StaffRollJob10setStringWEPKDs
00000071000DE4F0=_ZN4sead22WFormatFixedSafeStringILi128EEC2EPKDsz
00000071000DE720=_ZN4sead22WFormatFixedSafeStringILi128EED0Ev
00000071000DE730=_ZN4sead16WFixedSafeStringILi128EEaSERKNS_14SafeStringBaseIDsEE
00000071000DE820=_ZN21StaffRollLayoutHolderC1EP19SequenceMsgDirectorRKN2al14LayoutInitInfoEb
00000071000DEF00=_ZN21StaffRollLayoutHolder12getJobStringEPPDsS0_
00000071000DEF20=_ZN21StaffRollLayoutHolder18receiveSequenceMsgEPK11SequenceMsg
00000071000DF050=_ZN21StaffRollLayoutHolder5setupEv
00000071000DF100=_ZThn32_N21StaffRollLayoutHolder18receiveSequenceMsgEPK11SequenceMsg
00000071000DF110=_ZN21StaffRollLayoutHolder12exePreAppearEv
00000071000DF150=_ZN21StaffRollLayoutHolder9exeAppearEv
00000071000DF1F0=_ZN21StaffRollLayoutHolder20tryPushStaffRollLineEi
00000071000DF580=_ZN21StaffRollLayoutHolder20updateStaffRollTransEv
00000071000DF6F0=_ZN21StaffRollLayoutHolder21tryPopStaffRollStringEi
00000071000DF920=_ZN21StaffRollLayoutHolder6exeFinEv
00000071000DF980=_ZN21StaffRollLayoutHolder12exeCopyRightEv
00000071000DFA10=_ZN21StaffRollLayoutHolder6exeEndEv
00000071000DFA50=_ZN21StaffRollLayoutHolder7exeHideEv
00000071000DFA60=_ZN21StaffRollLayoutHolder6updateEv
00000071000DFA70=_ZNK21StaffRollLayoutHolder8isFinEndEv
00000071000DFAD0=_ZN21StaffRollLayoutHolder18disappearStaffRollEv
00000071000DFCD0=_ZN21StaffRollLayoutHolder13calcLayoutPosEi
00000071000DFD90=_ZN21StaffRollLayoutHolder13isOutOfScreenEff
00000071000DFDC0=_ZN21StaffRollLayoutHolder9getHeightERKNS_17StaffRollLineInfoE
00000071000DFDF0=_ZN21StaffRollLayoutHolder9isIncludeEi
00000071000DFE60=_ZN21StaffRollLayoutHolder21getVacantStaffRollJobEv
00000071000DFED0=_ZN21StaffRollLayoutHolder22getVacantStaffRollNameEv
00000071000DFF40=_ZN21StaffRollLayoutHolder18calcLocalLayoutPosEiiii
00000071000DFF90=_ZN21StaffRollLayoutHolderD0Ev
00000071000DFFC0=_ZNK21StaffRollLayoutHolder16getMessageSystemEv
00000071000DFFD0=_ZNK21StaffRollLayoutHolder15getSceneObjNameEv
00000071000DFFE0=_ZNK21StaffRollLayoutHolder22getSequenceMsgDirectorEv
00000071000DFFF0=_ZThn16_NK21StaffRollLayoutHolder16getMessageSystemEv
00000071000E0000=_ZThn24_NK21StaffRollLayoutHolder15getSceneObjNameEv
00000071000E0010=_ZThn32_NK21StaffRollLayoutHolder22getSequenceMsgDirectorEv
00000071000E0020=nullsub_67
00000071000E02D0=_ZN13StaffRollNameC2ERKN2al14LayoutInitInfoE
00000071000E03A0=_ZN13StaffRollNameC1ERKN2al14LayoutInitInfoE
00000071000E0470=_ZN13StaffRollName6appearEv
00000071000E04A0=_ZN13StaffRollName9exeAppearEv
00000071000E0510=_ZN13StaffRollName7exeWaitEv
00000071000E0550=_ZN13StaffRollName6exeEndEv
00000071000E0590=_ZN13StaffRollName7exeHideEv
00000071000E05D0=_ZNK13StaffRollName5isEndEv
00000071000E0620=_ZN13StaffRollName9setStringEPKc
00000071000E0690=_ZN13StaffRollName10setStringWEPKDs
00000071000E0810=_ZN17StaffRollNintendoC2ERKN2al14LayoutInitInfoE
00000071000E08E0=_ZN17StaffRollNintendoC1ERKN2al14LayoutInitInfoE
00000071000E09B0=_ZN17StaffRollNintendo6appearEv
00000071000E09F0=_ZN17StaffRollNintendo9exeAppearEv
00000071000E0A60=_ZN17StaffRollNintendo7exeWaitEv
00000071000E0AA0=_ZN17StaffRollNintendo6exeEndEv
00000071000E0B10=_ZN17StaffRollNintendo7exeHideEv
00000071000E0B50=_ZNK17StaffRollNintendo5isEndEv
00000071000E0BA0=_ZN17StaffRollNintendo8startEndEv
00000071000E0D30=_ZN16StageSceneLayoutC2ERKN2al14LayoutInitInfoEP14GameDataHolderPK21CollectItemInfoKeeperPK24CheckPointGameInfoKeeperPK18PlayerAliveWatcherPNS0_14CameraDirectorEP19SequenceMsgDirectorPKcP21DrcAssistDirectorList
00000071000E12C0=_ZN16StageSceneLayoutC1ERKN2al14LayoutInitInfoEP14GameDataHolderPK21CollectItemInfoKeeperPK24CheckPointGameInfoKeeperPK18PlayerAliveWatcherPNS0_14CameraDirectorEP19SequenceMsgDirectorPKcP21DrcAssistDirectorList
00000071000E1740=_ZN16StageSceneLayout18receiveSequenceMsgEPK11SequenceMsg
00000071000E1900=_ZThn304_N16StageSceneLayout18receiveSequenceMsgEPK11SequenceMsg
00000071000E1910=_ZN16StageSceneLayout8movementEv
00000071000E1B20=_ZN16StageSceneLayout9startDemoEbb
00000071000E1BA0=_ZN16StageSceneLayout7endDemoEb
00000071000E1C30=_ZN16StageSceneLayout11calcHitPaneEPbPPKciRKN4sead15FixedRingBufferINS4_7Vector2IfEELi256EEE
00000071000E1D40=_ZN16StageSceneLayout9isPadIdleEv
00000071000E1DA0=_ZN16StageSceneLayout20isAnyButtonTriggeredEv
00000071000E1F00=_ZN16StageSceneLayout11setHitCheckEb
00000071000E1F10=_ZN16StageSceneLayout7exeWaitEv
00000071000E27A0=_ZN16StageSceneLayout10exeGuideInEv
00000071000E2840=_ZN16StageSceneLayout11exeGuideOutEv
00000071000E28B0=_ZN16StageSceneLayout14exeCourseClearEv
00000071000E28F0=_ZNK16StageSceneLayout17getCameraDirectorEv
00000071000E2900=_ZNK16StageSceneLayout22getSequenceMsgDirectorEv
00000071000E2910=_ZThn32_NK16StageSceneLayout17getCameraDirectorEv
00000071000E2920=_ZThn304_NK16StageSceneLayout22getSequenceMsgDirectorEv
00000071000E2A20=_ZN26StageSceneLayoutControllerC2EP16StageSceneLayoutP18AmiiboGuideMessageP19SequenceMsgDirector
00000071000E2A50=_ZN26StageSceneLayoutController18receiveSequenceMsgEPK11SequenceMsg
00000071000E2A60=_ZThn8_N26StageSceneLayoutController18receiveSequenceMsgEPK11SequenceMsg
00000071000E2A70=_ZN26StageSceneLayoutController15disableHitCheckEN2kp26EStageSceneLayoutDisplayIdE
00000071000E2A90=_ZN26StageSceneLayoutController14enableHitCheckEN2kp26EStageSceneLayoutDisplayIdE
00000071000E2AB0=_ZN26StageSceneLayoutController12appearLayoutEN2kp26EStageSceneLayoutDisplayIdE
00000071000E2B20=_ZN26StageSceneLayoutController10killLayoutEN2kp26EStageSceneLayoutDisplayIdE
00000071000E2B90=_ZN26StageSceneLayoutController10showLayoutEN2kp26EStageSceneLayoutDisplayIdE
00000071000E2C00=_ZN26StageSceneLayoutController10hideLayoutEN2kp26EStageSceneLayoutDisplayIdE
00000071000E2C70=_ZN26StageSceneLayoutController16hideLayoutNoWaitEN2kp26EStageSceneLayoutDisplayIdE
00000071000E2CE0=_ZN26StageSceneLayoutController19showAndAppearLayoutEN2kp26EStageSceneLayoutDisplayIdE
00000071000E2D50=_ZN26StageSceneLayoutController17hideAndKillLayoutEN2kp26EStageSceneLayoutDisplayIdE
00000071000E2DC0=_ZN26StageSceneLayoutController15forceHideLayoutEi
00000071000E2E60=_ZN26StageSceneLayoutController16activePauseGuideEv
00000071000E2E80=_ZN26StageSceneLayoutController11courseClearEv
00000071000E2F10=_ZN2kp34disableHitCheckStageSceneLayoutAllEPKN2al18IUseSceneObjHolderE
00000071000E2F30=_ZN2kp33enableHitCheckStageSceneLayoutAllEPKN2al18IUseSceneObjHolderE
00000071000E2F50=_ZN2kp25appearStageSceneLayoutAllEPKN2al18IUseSceneObjHolderE
00000071000E2FC0=_ZN2kp23killStageSceneLayoutAllEPKN2al18IUseSceneObjHolderE
00000071000E3030=_ZN2kp23showStageSceneLayoutAllEPKN2al18IUseSceneObjHolderE
00000071000E30A0=_ZN2kp23hideStageSceneLayoutAllEPKN2al18IUseSceneObjHolderE
00000071000E3110=_ZN2kp29hideStageSceneLayoutAllNoWaitEPKN2al18IUseSceneObjHolderE
00000071000E3180=_ZN2kp24showStageSceneLayoutMainEPKN2al18IUseSceneObjHolderE
00000071000E31F0=_ZN2kp24hideStageSceneLayoutMainEPKN2al18IUseSceneObjHolderE
00000071000E3260=_ZN2kp33showAndAppearStageSceneLayoutMainEPKN2al18IUseSceneObjHolderE
00000071000E32D0=_ZN2kp31hideAndKillStageSceneLayoutMainEPKN2al18IUseSceneObjHolderE
00000071000E3340=_ZN2kp28forceHideStageSceneLayoutAllEPKN2al18IUseSceneObjHolderEi
00000071000E33F0=_ZN2kp32activePauseGuideStageSceneLayoutEPKN2al18IUseSceneObjHolderE
00000071000E3420=_ZN2kp27courseClearStageSceneLayoutEPKN2al18IUseSceneObjHolderE
00000071000E34B0=_ZNK26StageSceneLayoutController15getSceneObjNameEv
00000071000E34C0=_ZNK26StageSceneLayoutController22getSequenceMsgDirectorEv
00000071000E34D0=_ZThn8_NK26StageSceneLayoutController22getSequenceMsgDirectorEv
00000071000E34E0=_ZN10StageTimerC1EP14GameDataHolderPKN2al13AudioDirectorE
00000071000E3590=_ZNK10StageTimer11isCountDownEv
00000071000E35E0=_ZNK10StageTimer6isStopEv
00000071000E35F0=_ZNK10StageTimer8isTimeUpEv
00000071000E3600=_ZNK10StageTimer10isDeactiveEv
00000071000E3610=_ZNK10StageTimer16calcDisplayCountEv
00000071000E3620=_ZN10StageTimer5startEv
00000071000E3680=_ZN10StageTimer4stopEv
00000071000E36D0=_ZN10StageTimer7setTimeEi
00000071000E3700=_ZN10StageTimer9startDemoEv
00000071000E3710=_ZN10StageTimer7endDemoEv
00000071000E3720=_ZN10StageTimer11requestStopEPKv
00000071000E37F0=_ZN10StageTimer14requestRestartEPKv
00000071000E38C0=_ZN10StageTimer12exeCountDownEv
00000071000E3A00=_ZN10StageTimer14exeTimeUpDelayEv
00000071000E3A40=_ZN10StageTimer9exeTimeUpEv
00000071000E3A50=_ZN10StageTimer7exeStopEv
00000071000E3A60=_ZN10StageTimer11exeDeactiveEv
00000071000E3A80=_ZN2kp16updateStageTimerEPKN2al18IUseSceneObjHolderE
00000071000E3AB0=_ZN2kp19startDemoStageTimerEPKN2al18IUseSceneObjHolderE
00000071000E3AE0=_ZN2kp17endDemoStageTimerEPKN2al18IUseSceneObjHolderE
00000071000E3B10=_ZN2kp15startStageTimerEPKN2al18IUseSceneObjHolderE
00000071000E3B80=_ZN2kp14stopStageTimerEPKN2al18IUseSceneObjHolderE
00000071000E3BE0=_ZN2kp17setStageTimerTimeEPKN2al18IUseSceneObjHolderEi
00000071000E3C30=_ZN2kp18isTimeUpStageTimerEPKN2al18IUseSceneObjHolderE
00000071000E3C60=_ZN2kp20isDeactiveStageTimerEPKN2al18IUseSceneObjHolderE
00000071000E3C90=_ZN2kp16isStopStageTimerEPKN2al18IUseSceneObjHolderE
00000071000E3CC0=_ZN2kp26calcDisplayCountStageTimerEPKN2al18IUseSceneObjHolderE
00000071000E3CF0=_ZN10StageTimerD0Ev
00000071000E3D20=_ZNK10StageTimer15getSceneObjNameEv
00000071000E3D30=_ZNK10StageTimer14getAudioKeeperEv
00000071000E3D40=_ZThn16_NK10StageTimer15getSceneObjNameEv
00000071000E3D50=_ZThn24_NK10StageTimer14getAudioKeeperEv
00000071000E3DE0=nullsub_68
00000071000E3DF0=nullsub_69
00000071000E3E00=_ZN16TimerClockNumberC2ERKN2al14LayoutInitInfoEi
00000071000E3F40=_ZN16TimerClockNumberC1ERKN2al14LayoutInitInfoEi
00000071000E4080=_ZN16TimerClockNumber18appearWithWorldPosERKN4sead7Vector3IfEE
00000071000E40F0=_ZN16TimerClockNumber14updatePositionEv
00000071000E4130=_ZN16TimerClockNumber9exeAppearEv
00000071000E41E0=_ZN9TitleLogoC2ERKN2al14LayoutInitInfoEPK14GameDataHolderP19SequenceMsgDirector
00000071000E4590=_ZN9TitleLogoC1ERKN2al14LayoutInitInfoEPK14GameDataHolderP19SequenceMsgDirector
00000071000E4930=_ZN9TitleLogo6appearEv
00000071000E4990=_ZN9TitleLogo18receiveSequenceMsgEPK11SequenceMsg
00000071000E4A40=_ZThn304_N9TitleLogo18receiveSequenceMsgEPK11SequenceMsg
00000071000E4B00=_ZN9TitleLogo9exeAppearEv
00000071000E4B50=_ZN9TitleLogo7exeWaitEv
00000071000E4B90=_ZN9TitleLogo6exeEndEv
00000071000E4C40=_ZNK9TitleLogo22getSequenceMsgDirectorEv
00000071000E4C50=_ZThn304_NK9TitleLogo22getSequenceMsgDirectorEv
00000071000E4DC0=_ZN2al10WStringTmpILi32EED0Ev
00000071000E4DD0=_ZN13TitleLogoDemoC2ERKN2al14LayoutInitInfoEPK14GameDataHolder
00000071000E4F70=_ZN13TitleLogoDemoC1ERKN2al14LayoutInitInfoEPK14GameDataHolder
00000071000E5120=_ZN13TitleLogoDemo6appearEv
00000071000E5170=_ZNK13TitleLogoDemo10isFinishedEv
00000071000E5180=_ZN13TitleLogoDemo9exeAppearEv
00000071000E51D0=_ZN13TitleLogoDemo7exeWaitEv
00000071000E5260=_ZN13TitleLogoDemo6exeEndEv
00000071000E52E0=_ZN13TitleLogoDemo11exeFinishedEv
00000071000E5340=nullsub_70
00000071000E53F0=_ZN11TouchEffectC2ERKN2al14LayoutInitInfoEPK18DrcTouchAssistInfoPKcS8_
00000071000E55D0=_ZN11TouchEffectC1ERKN2al14LayoutInitInfoEPK18DrcTouchAssistInfoPKcS8_
00000071000E57B0=_ZN11TouchEffect8movementEv
00000071000E5870=_ZN11TouchEffect4killEv
00000071000E58B0=_ZN11TouchEffect13tryShowEffectEPN4sead7Vector2IfEEib
00000071000E5CD0=_ZN11TouchEffect18setIsSubjectiveCamEb
00000071000E5CF0=_ZN16TouchRotateGuideC2EPKcRKN2al14LayoutInitInfoE
00000071000E5E50=_ZN16TouchRotateGuideC1EPKcRKN2al14LayoutInitInfoE
00000071000E5FB0=_ZN16TouchRotateGuide7controlEv
00000071000E6840=_ZN16TouchRotateGuide9resetCtrlEv
00000071000E6860=_ZN16TouchRotateGuide9startShowEb
00000071000E68B0=_ZN16TouchRotateGuide7setPortEi
00000071000E68C0=_ZN16TouchRotateGuide7endShowEv
00000071000E68D0=_ZNK16TouchRotateGuide6isShowEv
00000071000E6900=_ZN16TouchRotateGuide9exeAppearEv
00000071000E69B0=_ZN16TouchRotateGuide7exeWaitEv
00000071000E6A00=_ZN16TouchRotateGuide8exeTouchEv
00000071000E6A60=_ZN16TouchRotateGuide10exeReleaseEv
00000071000E6AA0=_ZN16TouchRotateGuide6exeEndEv
00000071000E6B70=_ZN16TouchRotateGuide19setCurrentRotDegreeEf
00000071000E6BE0=_ZN22TouchRotateGuideHolderC2Ev
00000071000E6C00=_ZN22TouchRotateGuideHolder11attachGuideEP16TouchRotateGuide
00000071000E6C30=_ZN22TouchRotateGuideHolder12releaseGuideEP16TouchRotateGuide
00000071000E6C60=_ZN22TouchRotateGuideHolder26initAfterPlacementSceneObjERKN2al13ActorInitInfoE
00000071000E6C70=_ZN22TouchRotateGuideHolder12initSceneObjEv
00000071000E6C80=_ZNK22TouchRotateGuideHolder15getSceneObjNameEv
00000071000E6DB0=_ZN3Utl13findLineBreakEN4sead14SafeStringBaseIDsE8iteratorES3_PNS0_11IDelegate2RIRKS2_jbEERKNS_15LineBreakConfigE
00000071000E7370=_ZN3Utl16calcWordWrappingEPN4sead22BufferedSafeStringBaseIDsEERKNS0_14SafeStringBaseIDsEEPNS0_11IDelegate2RIS7_jbEERKNS_14WordWrapConfigE
00000071000E7A70=_ZN3Utl28testUtf16ToLineBreakPropertyEv
00000071000E7AA0=_ZN3Utl31convertUtf16ToLineBreakPropertyEDs
00000071000E7B30=_ZN3Utl24determineLineBreakActionENS_17LineBreakPropertyERKS0_
00000071000E7B50=_ZN12VRCourseInfoC2ERKN2al14LayoutInitInfoEii
00000071000E7C20=_ZN12VRCourseInfoC1ERKN2al14LayoutInitInfoEii
00000071000E7CF0=_ZN12VRCourseInfo6appearEv
00000071000E7DC0=_ZN12VRCourseInfo6selectEv
00000071000E7E20=_ZN12VRCourseInfo8unselectEi
00000071000E7E80=_ZN10VRInfoPaneC2ERKN2al14LayoutInitInfoEPKc
00000071000E7EF0=_ZN10VRInfoPaneC1ERKN2al14LayoutInitInfoEPKc
00000071000E7F70=_ZN10VRInfoPane6appearEv
00000071000E7FA0=_ZN11VRPauseMenuC2ERKN2al14LayoutInitInfoEPNS0_13GamePadSystemE
00000071000E8120=_ZN11VRPauseMenuC1ERKN2al14LayoutInitInfoEPNS0_13GamePadSystemE
00000071000E8250=_ZN11VRPauseMenu6appearEv
00000071000E8290=_ZN11VRPauseMenu7controlEv
00000071000E82A0=_ZN11VRPauseMenu9setPortNoEi
00000071000E82B0=_ZN11VRPauseMenu10decideBackEv
00000071000E82C0=_ZNK11VRPauseMenu12isDecideBackEv
00000071000E82D0=_ZNK11VRPauseMenu11isDecideMapEv
00000071000E8320=_ZNK11VRPauseMenu14isDecideExitVREv
00000071000E8370=_ZN11VRPauseMenu3endEv
00000071000E8380=_ZNK11VRPauseMenu6isWaitEv
00000071000E83D0=_ZNK11VRPauseMenu5isEndEv
00000071000E8430=_ZN11VRPauseMenu12isSwitched2PEv
00000071000E8440=_ZN11VRPauseMenu9exeAppearEv
00000071000E84F0=_ZN11VRPauseMenu7exeWaitEv
00000071000E8820=_ZN11VRPauseMenu14exeConfirmExitEv
00000071000E8910=_ZN11VRPauseMenu14exeRestartWaitEv
00000071000E8950=_ZN11VRPauseMenu16exeExitStageWaitEv
00000071000E89D0=_ZN11VRPauseMenu6exeEndEv
00000071000E8A30=_ZNK11VRPauseMenu11isForceExitEv
00000071000E8C60=_ZN21VRWindowConfirmDoubleC2ERKN2al14LayoutInitInfoEPKcb
00000071000E8D90=_ZN21VRWindowConfirmDoubleC1ERKN2al14LayoutInitInfoEPKcb
00000071000E8EC0=_ZN21VRWindowConfirmDouble20setUniqueButtonLabelEPKc
00000071000E8ED0=_ZNK21VRWindowConfirmDouble12isDecideLeftEv
00000071000E8EE0=_ZNK21VRWindowConfirmDouble13isDecideRightEv
00000071000E8EF0=_ZNK21VRWindowConfirmDouble11isDecideOneEv
00000071000E8F00=_ZNK21VRWindowConfirmDouble6isExitEv
00000071000E8F20=_ZN21VRWindowConfirmDouble23appearWithSystemMessageEPKcS1_S1_b
00000071000E91E0=_ZN21VRWindowConfirmDouble9exeAppearEv
00000071000E9270=_ZN21VRWindowConfirmDouble7exeWaitEv
00000071000E93D0=_ZN21VRWindowConfirmDouble6exeEndEv
00000071000E94D0=_ZN18WindowCameraChangeC2ERKN2al14LayoutInitInfoEPNS0_14CameraDirectorE
00000071000E9790=_ZN18WindowCameraChangeC1ERKN2al14LayoutInitInfoEPNS0_14CameraDirectorE
00000071000E9A60=_ZN18WindowCameraChange9exeAppearEv
00000071000E9C00=_ZN18WindowCameraChange7exeWaitEv
00000071000EA030=_ZN18WindowCameraChange6exeEndEv
00000071000EA0B0=_ZN18WindowCameraChange6appearEv
00000071000EA1F0=_ZN18WindowCameraChange3endEv
00000071000EA200=_ZNK18WindowCameraChange5isEndEv
00000071000EA210=_ZNK18WindowCameraChange17getCameraDirectorEv
00000071000EA220=_ZThn32_NK18WindowCameraChange17getCameraDirectorEv
00000071000EA2D0=_ZN22WindowCameraGyroChangeC2EP19SequenceMsgDirectorRKN2al14LayoutInitInfoEPNS2_14CameraDirectorE
00000071000EA480=_ZN22WindowCameraGyroChangeC1EP19SequenceMsgDirectorRKN2al14LayoutInitInfoEPNS2_14CameraDirectorE
00000071000EA620=_ZN22WindowCameraGyroChange18receiveSequenceMsgEPK11SequenceMsg
00000071000EA630=_ZThn304_N22WindowCameraGyroChange18receiveSequenceMsgEPK11SequenceMsg
00000071000EA640=_ZN22WindowCameraGyroChange9exeAppearEv
00000071000EA6F0=_ZN22WindowCameraGyroChange7exeWaitEv
00000071000EAA10=_ZN22WindowCameraGyroChange6exeEndEv
00000071000EAAA0=_ZN22WindowCameraGyroChange6appearEv
00000071000EAB50=_ZNK22WindowCameraGyroChange5isEndEv
00000071000EAB60=_ZNK22WindowCameraGyroChange17getCameraDirectorEv
00000071000EAB70=_ZNK22WindowCameraGyroChange22getSequenceMsgDirectorEv
00000071000EAB80=_ZThn32_NK22WindowCameraGyroChange17getCameraDirectorEv
00000071000EAB90=_ZThn304_NK22WindowCameraGyroChange22getSequenceMsgDirectorEv
00000071000EAC50=_ZN13WindowConfirmC2E17WindowConfirmTypeRKN2al14LayoutInitInfoEPKc
00000071000EADA0=_ZN13WindowConfirmC1E17WindowConfirmTypeRKN2al14LayoutInitInfoEPKc
00000071000EAF00=_ZN13WindowConfirm20setUniqueButtonLabelEPKc
00000071000EAF10=_ZN13WindowConfirm3endEv
00000071000EAF20=_ZN13WindowConfirm23appearWithSystemMessageEPKcS1_iS1_b
00000071000EB1F0=_ZNK13WindowConfirm11isButtonOneEv
00000071000EB210=_ZNK13WindowConfirm11isButtonTwoEv
00000071000EB230=_ZN13WindowConfirm14setButtonColorEPKc
00000071000EB240=_ZN13WindowConfirm16handleDisconnectEv
00000071000EB2B0=_ZNK13WindowConfirm12isDecideLeftEv
00000071000EB2C0=_ZNK13WindowConfirm15isDecideLeftEndEv
00000071000EB2D0=_ZNK13WindowConfirm13isDecideRightEv
00000071000EB2E0=_ZNK13WindowConfirm16isDecideRightEndEv
00000071000EB2F0=_ZNK13WindowConfirm11isDecideOneEv
00000071000EB300=_ZNK13WindowConfirm14isDecideOneEndEv
00000071000EB310=_ZN13WindowConfirm9exeAppearEv
00000071000EB3A0=_ZNK13WindowConfirm13isExistButtonEv
00000071000EB3C0=_ZN13WindowConfirm7exeWaitEv
00000071000EB560=_ZN13WindowConfirm6exeEndEv
00000071000EB6C0=_ZN14WindowControlsC2ERKN2al14LayoutInitInfoEP19SequenceMsgDirector
00000071000EB7B0=_ZN14WindowControls13setPlayerIconEii
00000071000EBA40=_ZN14WindowControlsC1ERKN2al14LayoutInitInfoEP19SequenceMsgDirector
00000071000EBB20=_ZN14WindowControls18receiveSequenceMsgEPK11SequenceMsg
00000071000EBB90=_ZThn304_N14WindowControls18receiveSequenceMsgEPK11SequenceMsg
00000071000EBC00=_ZN14WindowControls7setModeEb
00000071000EBC10=_ZN14WindowControls10updateInfoEv
00000071000EBFC0=_ZN14WindowControls16handleDisconnectEv
00000071000EC060=_ZN14WindowControls11showKinopioEv
00000071000EC0C0=_ZN14WindowControls12showKinopikoEv
00000071000EC120=_ZN14WindowControls14showKinopioKunEv
00000071000EC180=_ZN14WindowControls9exeAppearEv
00000071000EC230=_ZN14WindowControls10exeAppear2Ev
00000071000EC2B0=_ZN14WindowControls7exeWaitEv
00000071000EC300=_ZN14WindowControls8exeWait2Ev
00000071000EC340=_ZN14WindowControls6exeEndEv
00000071000EC3B0=_ZN14WindowControls6appearEv
00000071000EC3F0=_ZN14WindowControls3endEv
00000071000EC440=_ZNK14WindowControls5isEndEv
00000071000EC450=_ZNK14WindowControls17getCameraDirectorEv
00000071000EC460=_ZNK14WindowControls22getSequenceMsgDirectorEv
00000071000EC470=_ZThn32_NK14WindowControls17getCameraDirectorEv
00000071000EC480=_ZThn304_NK14WindowControls22getSequenceMsgDirectorEv
00000071000EC6C0=_ZN13WindowMessageC2ERKN2al14LayoutInitInfoEPKcS5_
00000071000EC790=_ZN13WindowMessageC1ERKN2al14LayoutInitInfoEPKcS5_
00000071000EC860=_ZN13WindowMessage6appearEv
00000071000EC940=_ZN13WindowMessage15registerMessageEPKDs
00000071000EC950=_ZN13WindowMessage15registerMessageEPKcS1_
00000071000EC980=_ZN13WindowMessage9exeAppearEv
00000071000ECA40=_ZN13WindowMessage7exeWaitEv
00000071000ECB50=_ZN13WindowMessage10exePageEndEv
00000071000ECBC0=_ZN13WindowMessage12exePageStartEv
00000071000ECC50=_ZN13WindowMessage6exeEndEv
00000071000ECD00=_ZNK13WindowMessage6isPageEi
00000071000ECEF0=_ZN20WindowPlayModeSelectC2ERKN2al14LayoutInitInfoEb
00000071000ED060=_ZN20WindowPlayModeSelectC1ERKN2al14LayoutInitInfoEb
00000071000ED1D0=_ZN20WindowPlayModeSelect6appearEv
00000071000ED220=_ZN20WindowPlayModeSelect9disappearEv
00000071000ED230=_ZN20WindowPlayModeSelect17start1PTransitionEv
00000071000ED260=_ZN20WindowPlayModeSelect14SetButtonColorEPKc
00000071000ED290=_ZN20WindowPlayModeSelect14updateBackIconEv
00000071000ED2F0=_ZNK20WindowPlayModeSelect6isWaitEv
00000071000ED300=_ZN20WindowPlayModeSelect16handleDisconnectEv
00000071000ED350=_ZN20WindowPlayModeSelect9exeAppearEv
00000071000ED420=_ZN20WindowPlayModeSelect7exeWaitEv
00000071000ED690=_ZN20WindowPlayModeSelect6exeEndEv
00000071000ED700=_ZN20WindowPlayModeSelect12exeDisappearEv
00000071000ED770=_ZN20WindowPlayModeSelect16exePreModeChangeEv
00000071000ED7B0=_ZN20WindowPlayModeSelect20exeModeChangeConfirmEv
00000071000ED910=_ZN20WindowPlayModeSelect9exe1PFadeEv
00000071000ED990=_ZN20WindowPlayModeSelect13exeCancelFadeEv
00000071000EDCB0=_ZN16WindowProcessingC2ERKN2al14LayoutInitInfoEPKc
00000071000EDD80=_ZN16WindowProcessingC1ERKN2al14LayoutInitInfoEPKc
00000071000EDE50=_ZN16WindowProcessing23appearWithSystemMessageEPKcS1_
00000071000EDEB0=_ZNK16WindowProcessing5isEndEv
00000071000EDEC0=_ZN16WindowProcessing9exeAppearEv
00000071000EDF30=_ZN16WindowProcessing7exeWaitEv
00000071000EDFF0=_ZN16WindowProcessing6exeEndEv
00000071000EE150=_ZN10WindowSaveC2ERKN2al14LayoutInitInfoE
00000071000EE210=_ZN10WindowSaveC1ERKN2al14LayoutInitInfoE
00000071000EE2D0=_ZN10WindowSave12appearWindowEv
00000071000EE350=_ZN10WindowSave9exeAppearEv
00000071000EE3C0=_ZN10WindowSave7exeWaitEv
00000071000EE480=_ZN10WindowSave6exeEndEv
00000071000EE5F0=_ZN9WipeClearC2ERKN2al14LayoutInitInfoEPK14GameDataHolder
00000071000EE6C0=_ZN9WipeClearC1ERKN2al14LayoutInitInfoEPK14GameDataHolder
00000071000EE790=_ZN9WipeClear6appearEv
00000071000EE8A0=_ZNK9WipeClear6isWaitEv
00000071000EE8B0=_ZN9WipeClear3endEv
00000071000EE8C0=_ZN9WipeClear9exeAppearEv
00000071000EE910=_ZN9WipeClear7exeWaitEv
00000071000EE950=_ZN9WipeClear6exeEndEv
00000071000EEAD0=_ZN14WipeClearBonusC2ERKN2al14LayoutInitInfoEPK14GameDataHolder
00000071000EEBD0=_ZN14WipeClearBonusC1ERKN2al14LayoutInitInfoEPK14GameDataHolder
00000071000EECD0=_ZN14WipeClearBonus6appearEv
00000071000EED30=_ZN14WipeClearBonus11appearClearEv
00000071000EED80=_ZN14WipeClearBonus10appearMissEv
00000071000EEDD0=_ZNK14WipeClearBonus6isWaitEv
00000071000EEE20=_ZN14WipeClearBonus3endEv
00000071000EEE30=_ZN14WipeClearBonus9exeAppearEv
00000071000EEE80=_ZN14WipeClearBonus7exeWaitEv
00000071000EEED0=_ZN14WipeClearBonus6exeEndEv
00000071000EF050=_ZN13WipeClearDemoC2ERKN2al14LayoutInitInfoEPK14GameDataHolder
00000071000EF120=_ZN13WipeClearDemoC1ERKN2al14LayoutInitInfoEPK14GameDataHolder
00000071000EF1F0=_ZN13WipeClearDemo10startCloseEv
00000071000EF260=_ZNK13WipeClearDemo10isCloseEndEv
00000071000EF270=_ZN13WipeClearDemo9startOpenEv
00000071000EF280=_ZN13WipeClearDemo8exeCloseEv
00000071000EF2D0=_ZN13WipeClearDemo11exeCloseEndEv
00000071000EF310=_ZN13WipeClearDemo7exeOpenEv
00000071000EF4F0=_ZN11WipeMessageC2ERKN2al14LayoutInitInfoEP14GameDataHolder
00000071000EF5E0=_ZN11WipeMessageC1ERKN2al14LayoutInitInfoEP14GameDataHolder
00000071000EF6D0=_ZN11WipeMessage6appearEv
00000071000EF720=_ZNK11WipeMessage10isCloseEndEv
00000071000EF730=_ZN11WipeMessage9startOpenEv
00000071000EF740=_ZN11WipeMessage8exeCloseEv
00000071000EF7C0=_ZN11WipeMessage19exeNewSeasonMessageEv
00000071000EF8C0=_ZN11WipeMessage7exeSaveEv
00000071000EF930=_ZN11WipeMessage11exeCloseEndEv
00000071000EF970=_ZN11WipeMessage7exeOpenEv
00000071000EFBA0=_ZN11WipeOpeningC2ERKN2al14LayoutInitInfoEPK14GameDataHolder
00000071000EFCE0=_ZN11WipeOpeningC1ERKN2al14LayoutInitInfoEPK14GameDataHolder
00000071000EFE20=_ZN11WipeOpening6appearEv
00000071000F00C0=_ZN11WipeOpening11setShowGoldEb
00000071000F0130=_ZNK11WipeOpening6isWaitEv
00000071000F0140=_ZNK11WipeOpening11isEnableEndEv
00000071000F0190=_ZN11WipeOpening3endEv
00000071000F01A0=_ZN11WipeOpening9exeAppearEv
00000071000F01F0=_ZN11WipeOpening7exeWaitEv
00000071000F0230=_ZN11WipeOpening6exeEndEv
00000071000F03B0=_ZN15WipePictureDemoC2ERKN2al14LayoutInitInfoEPK14GameDataHolder
00000071000F0480=_ZN15WipePictureDemoC1ERKN2al14LayoutInitInfoEPK14GameDataHolder
00000071000F0550=_ZN15WipePictureDemo10startCloseEv
00000071000F05C0=_ZN15WipePictureDemo9startOpenEv
00000071000F0670=_ZNK15WipePictureDemo10isCloseEndEv
00000071000F0680=_ZN15WipePictureDemo8exeCloseEv
00000071000F06D0=_ZN15WipePictureDemo11exeCloseEndEv
00000071000F0710=_ZN15WipePictureDemo7exeOpenEv
00000071000F0760=_ZN15WipePictureDemo14exeOpenDragon1Ev
00000071000F07B0=_ZN15WipePictureDemo17exeOpenDragonWaitEv
00000071000F07F0=_ZN15WipePictureDemo14exeOpenDragon2Ev
00000071000F0A60=_ZN9WipeStartC2ERKN2al14LayoutInitInfoEPK14GameDataHolder
00000071000F0B30=_ZN9WipeStartC1ERKN2al14LayoutInitInfoEPK14GameDataHolder
00000071000F0C00=_ZN9WipeStart10startCloseEi
00000071000F10A0=_ZN9WipeStart9startOpenEv
00000071000F11B0=_ZN9WipeStart12startOpen1stEv
00000071000F12C0=_ZN9WipeStart12startOpen2ndEv
00000071000F13D0=_ZNK9WipeStart10isCloseEndEv
00000071000F1430=_ZNK9WipeStart12isOpen1stEndEv
00000071000F14A0=_ZN9WipeStart18setPlayerLayoutPosERKN4sead7Vector2IfEE
00000071000F14C0=_ZN9WipeStart8exeCloseEv
00000071000F1510=_ZN9WipeStart11exeCloseEndEv
00000071000F1590=_ZN9WipeStart12exeOpenQuickEv
00000071000F15E0=_ZN9WipeStart13exeOpenForcusEv
00000071000F1630=_ZN9WipeStart14exeOpen1stZoomEv
00000071000F1640=_ZN9WipeStart14exeOpen2ndZoomEv
00000071000F1690=_ZN9WipeStart18exeOpen1stBossBirdEv
00000071000F16A0=_ZN9WipeStart18exeOpen2ndBossBirdEv
00000071000F17E0=nullsub_71
00000071000F17F0=nullsub_72
00000071000F1930=_ZN26AccelerometerRotateChecker9InputItemC2ERKN4sead8Matrix34IfEERKNS1_7Vector3IfEERKN2nn12TimeSpanTypeENS1_16NinJoyNpadDevice5StyleENS_4AxisE
00000071000F1B80=_ZN26AccelerometerRotateCheckerC2Effi
00000071000F1C20=_ZN26AccelerometerRotateChecker6updateEi
00000071000F1C60=_ZN26AccelerometerRotateChecker15tryAddInputItemEi
00000071000F1EE0=_ZN26AccelerometerRotateChecker12updateRotateEb
00000071000F2170=_ZN26AccelerometerRotateChecker5resetEv
00000071000F21B0=_ZN26AccelerometerRotateChecker15invalidateInputEv
00000071000F21C0=_ZN26AccelerometerRotateChecker7setAxisEi
00000071000F2230=_ZNK26AccelerometerRotateChecker8isRotateEf
00000071000F2260=_ZNK26AccelerometerRotateChecker11isAnyRotateEv
00000071000F2270=_ZNK26AccelerometerRotateChecker12isLeftRotateEf
00000071000F2290=_ZNK26AccelerometerRotateChecker13isRightRotateEf
00000071000F22B0=_ZNK26AccelerometerRotateChecker15getRotateDegreeEv
00000071000F22F0=_ZNK26AccelerometerRotateChecker19getAccel2dMagnitudeEv
00000071000F2310=_ZN26AccelerometerRotateChecker12getRadiusPosEfPN4sead7Vector2IfEE
00000071000F2360=_ZNK26AccelerometerRotateChecker12isInputValidEv
00000071000F2390=_ZNK26AccelerometerRotateChecker19checkInputThresholdERKNS_9InputItemE
00000071000F2420=_ZNK4sead15RuntimeTypeInfo6DeriveINS_10ControllerEE9isDerivedEPKNS0_9InterfaceE
00000071000F24B0=_ZNK4sead15RuntimeTypeInfo6DeriveINS_14ControllerBaseEE9isDerivedEPKNS0_9InterfaceE
00000071000F2540=_ZN25ActorStateDemoCameraParamC2EiiiPKN4sead7Vector3IfEES4_
00000071000F2560=_ZN20ActorStateDemoCameraC2EPN2al9LiveActorERKNS0_13ActorInitInfoEPKcPK25ActorStateDemoCameraParamb
00000071000F2760=_ZNK20ActorStateDemoCamera11getPlayStepEv
00000071000F27E0=_ZNK20ActorStateDemoCamera10isPlayStepEi
00000071000F2860=_ZNK20ActorStateDemoCamera19isLessEqualPlayStepEi
00000071000F28E0=_ZNK20ActorStateDemoCamera22isGreaterEqualPlayStepEi
00000071000F2960=_ZN20ActorStateDemoCamera8tryStartEPKN2al5NerveE
00000071000F29C0=_ZN20ActorStateDemoCamera6appearEv
00000071000F29D0=_ZN20ActorStateDemoCamera10exePrepareEv
00000071000F2A40=_ZN20ActorStateDemoCamera11exePlayWaitEv
00000071000F2A90=_ZN20ActorStateDemoCamera7exePlayEv
00000071000F2BA0=_ZN20ActorStateDemoCamera10exePlayEndEv
00000071000F2C30=_ZN20ActorStateDemoCameraD2Ev
00000071000F2C40=_ZN20ActorStateDemoCameraD0Ev
00000071000F2DE0=_ZN24ActorStateGiantBlowParamC1Ev
00000071000F2E20=_ZN19ActorStateGiantBlowC1EPN2al9LiveActorEPK24ActorStateGiantBlowParamS2_S2_
00000071000F2ED0=_ZN19ActorStateGiantBlow6appearEv
00000071000F2F30=_ZN19ActorStateGiantBlow12tryStartBlowEPKN2al9SensorMsgEPNS0_9HitSensorES5_
00000071000F2FE0=_ZN19ActorStateGiantBlow7exeBlowEv
00000071000F3170=_ZN19ActorStateGiantBlowD0Ev
00000071000F31B0=_ZN24ActorStateRouteDokanMoveC1EPN2al9LiveActorERKNS0_13ActorInitInfoE
00000071000F3280=_ZN24ActorStateRouteDokanMoveD2Ev
00000071000F32C0=_ZN24ActorStateRouteDokanMoveD0Ev
00000071000F3310=_ZN24ActorStateRouteDokanMove6appearEv
00000071000F3340=_ZN24ActorStateRouteDokanMove8exeStartEv
00000071000F3400=_ZN24ActorStateRouteDokanMove7exeMoveEv
00000071000F3550=_ZN24ActorStateRouteDokanMove8tryStartEPN2al9HitSensorES2_
00000071000F3630=_ZN24ActorStateRouteDokanMove12setMoveSpeedEf
00000071000F3640=_ZN24ActorStateRouteDokanMove11setEndSpeedEf
00000071000F3650=_ZN24ActorStateRouteDokanMove16setRouteSelecterEPN2al22BlockRailRouteSelecterE
00000071000F3680=_ZN10AssistItemC2EPKc
00000071000F3700=_ZN10AssistItemC1EPKc
00000071000F3780=_ZN10AssistItemD2Ev
00000071000F3810=_ZN10AssistItemD1Ev
00000071000F3890=_ZN10AssistItemD0Ev
00000071000F3910=_ZN10AssistItem4initERKN2al13ActorInitInfoE
00000071000F3990=_ZN10AssistItem18initAfterPlacementEv
00000071000F39F0=_ZN10AssistItem10receiveMsgEPKN2al9SensorMsgEPNS0_9HitSensorES5_
00000071000F3A90=_ZN10AssistItem5doGetEPN2al9HitSensorE
00000071000F3AF0=_ZN10AssistItem16appearPopUpAboveEv
00000071000F3B50=_ZN10AssistItem34appearPopUpAboveConnectToCollisionEv
00000071000F3D20=_ZN10AssistItem7exeWaitEv
00000071000F3D90=_ZN10AssistItem13exePopUpAboveEv
00000071000F3EC0=_ZN4sead18Matrix34CalcCommonIfE6toQuatERNS_8BaseQuatIfEERKNS_9BaseMtx34IfEE
00000071000F4100=_ZN19AssistSlideMapPartsC2EPKc
00000071000F4210=_ZN19AssistSlideMapPartsC1EPKc
00000071000F4320=_ZN19AssistSlideMapPartsD2Ev
00000071000F43C0=_ZN19AssistSlideMapPartsD1Ev
00000071000F4450=_ZN19AssistSlideMapPartsD0Ev
00000071000F44F0=_ZN19AssistSlideMapParts4initERKN2al13ActorInitInfoE
00000071000F4820=_ZN19AssistSlideMapParts9stopForceEv
00000071000F4830=_ZN19AssistSlideMapParts18initAfterPlacementEv
00000071000F48E0=_ZN19AssistSlideMapParts10receiveMsgEPKN2al9SensorMsgEPNS0_9HitSensorES5_
00000071000F4A30=_ZN19AssistSlideMapParts11touchAssistEv
00000071000F4B50=_ZN19AssistSlideMapParts4killEv
00000071000F4B90=_ZN19AssistSlideMapParts12startClippedEv
00000071000F4BE0=_ZN19AssistSlideMapParts12setGroupHostEP24AssistSlideMapPartsGroup
00000071000F4BF0=_ZNK19AssistSlideMapParts10isTypeOnceEv
00000071000F4C00=_ZNK19AssistSlideMapParts11isTypeOnOffEv
00000071000F4C10=_ZN19AssistSlideMapParts7controlEv
00000071000F4CE0=_ZN19AssistSlideMapParts10exeOffWaitEv
00000071000F4E00=_ZN19AssistSlideMapParts5exeOnEv
00000071000F4ED0=_ZNK19AssistSlideMapParts12calcMoveTimeEv
00000071000F4F20=_ZN19AssistSlideMapParts9exeOnWaitEv
00000071000F4FB0=_ZNK19AssistSlideMapParts14isTypeTimerOffEv
00000071000F4FC0=_ZN19AssistSlideMapParts10exeOffSignEv
00000071000F5020=_ZN19AssistSlideMapParts6exeOffEv
00000071000F5120=_ZN19AssistSlideMapParts7exeStopEv
00000071000F52B0=nullsub_73
00000071000F52D0=_ZNK2al10FunctorV0MIP19AssistSlideMapPartsMS1_FvvEEclEv
00000071000F52F0=_ZNK2al10FunctorV0MIP19AssistSlideMapPartsMS1_FvvEE5cloneEv
00000071000F53F0=_ZN24AssistSlideMapPartsGroupC2EPKc
00000071000F5470=_ZN24AssistSlideMapPartsGroupC1EPKc
00000071000F54F0=_ZN24AssistSlideMapPartsGroup4initERKN2al13ActorInitInfoE
00000071000F5610=_ZN24AssistSlideMapPartsGroup18requestTouchAssistEv
00000071000F5680=_ZN24AssistSlideMapPartsGroupD1Ev
00000071000F5690=_ZN24AssistSlideMapPartsGroupD0Ev
00000071000F56C0=_ZN25AssistStopKeyMoveMapPartsC2EPKc
00000071000F5770=_ZN25AssistStopKeyMoveMapPartsC1EPKc
00000071000F5820=_ZN25AssistStopKeyMoveMapParts4initERKN2al13ActorInitInfoE
00000071000F59E0=_ZN25AssistStopKeyMoveMapParts5startEv
00000071000F5A80=_ZN25AssistStopKeyMoveMapParts4stopEv
00000071000F5B50=_ZN25AssistStopKeyMoveMapParts10receiveMsgEPKN2al9SensorMsgEPNS0_9HitSensorES5_
00000071000F5C90=_ZN25AssistStopKeyMoveMapParts7controlEv
00000071000F5CF0=_ZN25AssistStopKeyMoveMapParts17appearAndSetStartEv
00000071000F5D80=_ZN25AssistStopKeyMoveMapParts10exeStandByEv
00000071000F5D90=_ZN25AssistStopKeyMoveMapParts8exeDelayEv
00000071000F5DE0=_ZN25AssistStopKeyMoveMapParts7exeWaitEv
00000071000F5EC0=_ZN25AssistStopKeyMoveMapParts11exeMoveSignEv
00000071000F5F20=_ZN25AssistStopKeyMoveMapParts7exeMoveEv
00000071000F60C0=_ZN25AssistStopKeyMoveMapParts11exeStopSignEv
00000071000F6120=_ZN25AssistStopKeyMoveMapParts7exeStopEv
00000071000F61B0=_ZN25AssistStopKeyMoveMapParts13exeAssistStopEv
00000071000F61D0=_ZN25AssistStopKeyMoveMapPartsD1Ev
00000071000F61E0=_ZN25AssistStopKeyMoveMapPartsD0Ev
00000071000F6210=nullsub_74
00000071000F64A0=_ZNK2al10FunctorV0MIP25AssistStopKeyMoveMapPartsMS1_FvvEEclEv
00000071000F64C0=_ZNK2al10FunctorV0MIP25AssistStopKeyMoveMapPartsMS1_FvvEE5cloneEv
00000071000F65E0=_ZN16BackHideMapPartsC2EPKc
00000071000F6670=_ZN16BackHideMapPartsC1EPKc
00000071000F6710=_ZN16BackHideMapParts4initERKN2al13ActorInitInfoE
00000071000F6820=_ZN16BackHideMapParts15switchStartHideEv
00000071000F6860=_ZN16BackHideMapParts6appearEv
00000071000F68B0=_ZNK16BackHideMapParts14isCameraBehindEv
00000071000F6A80=_ZN16BackHideMapParts7controlEv
00000071000F6A90=_ZN16BackHideMapParts10receiveMsgEPKN2al9SensorMsgEPNS0_9HitSensorES5_
00000071000F6B20=_ZN16BackHideMapParts8exeStartEv
00000071000F6B80=_ZN16BackHideMapParts7exeShowEv
00000071000F6C20=_ZN16BackHideMapParts14startDisappearEv
00000071000F6C70=_ZN16BackHideMapParts12exeDisappearEv
00000071000F6D00=_ZN16BackHideMapParts7exeHideEv
00000071000F6D90=_ZN16BackHideMapParts11startAppearEv
00000071000F6DE0=_ZN16BackHideMapParts9exeAppearEv
00000071000F6EE0=_ZN16BackHideMapPartsD1Ev
00000071000F6EF0=_ZN16BackHideMapPartsD0Ev
00000071000F6FC0=_ZNK2al10FunctorV0MIP16BackHideMapPartsMS1_FvvEEclEv
00000071000F6FE0=_ZNK2al10FunctorV0MIP16BackHideMapPartsMS1_FvvEE5cloneEv
00000071000F7030=_ZN18BallStateFallParamC2Ev
00000071000F7090=_ZN18BallStateFallParamC2Effffffffffff
00000071000F70E0=_ZN13BallStateFallC1EPN2al9LiveActorEPK18BallStateFallParam
00000071000F7140=_ZN13BallStateFall6appearEv
00000071000F7150=_ZN13BallStateFall7exeFallEv
00000071000F7220=_ZN13BallStateFallD0Ev
00000071000F7260=_ZN17BallStateFunction20setPositionOnReleaseEPN2al9LiveActorEPKNS0_9HitSensorE
00000071000F7300=_ZN17BallStateFunction18sendMsgToCollisionEPN2al9LiveActorEb
00000071000F73E0=_ZN17BallStateFunction17calcFrontVelocityEPN4sead7Vector3IfEEPN2al9LiveActorE
00000071000F74D0=_ZN17BallStateFunction14calcSpeedFrontEPN2al9LiveActorE
00000071000F7540=_ZN17BallStateFunction11calcSpeedUpEPN2al9LiveActorE
00000071000F75E0=_ZN17BallStateFunction11rotateOnAirEPN2al9LiveActorEfb
00000071000F7700=_ZN17BallStateFunction15calcRotateSpeedEPN2al9LiveActorERKN4sead7Vector3IfEE
00000071000F77A0=_ZN17BallStateFunction14rotateOnGroundEPN2al9LiveActorERKN4sead7Vector3IfEE
00000071000F7910=_ZN17BallStateFunction15calcLaunchSpeedEPN2al9LiveActorERKN4sead7Vector3IfEEPK19BallStateThrowParam
00000071000F7970=_ZN17BallStateFunction16calcReflectSpeedEPN2al9LiveActorEPKS1_PK18BallStateFallParam
00000071000F7AB0=_ZN17BallStateFunction22reboundCollisionGroundEPN2al9LiveActorEPK18BallStateFallParamb
00000071000F7BB0=_ZN17BallStateFunction29reboundCollisionWallOrCeilingEPN2al9LiveActorE
00000071000F7CD0=_ZN17BallStateFunction23getCollidedNormalAndPosEPN2al9LiveActorEPN4sead7Vector3IfEES6_
00000071000F7DC0=_ZN17BallStateFunction25setColliderReturnedSlowlyEPN2al9LiveActorEii
00000071000F7E20=_ZN17BallStateFunction26tryGetRelativePlayerSensorEPN2al9LiveActorEPNS0_9HitSensorE
00000071000F7E90=_ZN19BallStateThrowParamC2Ev
00000071000F7EE0=_ZN19BallStateThrowParamC1Effffffffibb
00000071000F7F20=_ZN14BallStateThrowC1EPN2al9LiveActorEPK19BallStateThrowParam
00000071000F7F80=_ZN14BallStateThrow6appearEv
00000071000F7FB0=_ZN14BallStateThrow13setThrowParamEPKN2al9HitSensorEPK19BallStateThrowParam
00000071000F7FC0=_ZN14BallStateThrow8exeThrowEv
00000071000F8120=_ZN14BallStateThrow12exeThrowAutoEv
00000071000F81E0=_ZN14BallStateThrowD0Ev
00000071000F8230=_ZN2al28BelieveSignboardKeyMovePartsC2EPKc
00000071000F82E0=_ZN2al28BelieveSignboardKeyMovePartsC1EPKc
00000071000F8390=_ZN2al28BelieveSignboardKeyMoveParts4initERKNS_13ActorInitInfoE
00000071000F8550=_ZN2al28BelieveSignboardKeyMoveParts5startEv
00000071000F85F0=_ZN2al28BelieveSignboardKeyMoveParts4stopEv
00000071000F86C0=_ZN2al28BelieveSignboardKeyMoveParts10receiveMsgEPKNS_9SensorMsgEPNS_9HitSensorES5_
00000071000F87C0=_ZN2al28BelieveSignboardKeyMoveParts7controlEv
00000071000F8820=_ZN2al28BelieveSignboardKeyMoveParts17appearAndSetStartEv
00000071000F88B0=_ZN2al28BelieveSignboardKeyMoveParts10exeStandByEv
00000071000F88C0=_ZN2al28BelieveSignboardKeyMoveParts8exeDelayEv
00000071000F8910=_ZN2al28BelieveSignboardKeyMoveParts7exeWaitEv
00000071000F89F0=_ZN2al28BelieveSignboardKeyMoveParts11exeMoveSignEv
00000071000F8A50=_ZN2al28BelieveSignboardKeyMoveParts7exeMoveEv
00000071000F8BE0=_ZN2al28BelieveSignboardKeyMoveParts8exeWait2Ev
00000071000F8CC0=_ZN2al28BelieveSignboardKeyMoveParts8exeMove2Ev
00000071000F8E50=_ZN2al28BelieveSignboardKeyMoveParts11exeStopSignEv
00000071000F8EB0=_ZN2al28BelieveSignboardKeyMoveParts7exeStopEv
00000071000F8F40=_ZN2al28BelieveSignboardKeyMovePartsD1Ev
00000071000F8F50=_ZN2al28BelieveSignboardKeyMovePartsD0Ev
00000071000F8F80=nullsub_75
00000071000F9210=_ZNK2al10FunctorV0MIPNS_28BelieveSignboardKeyMovePartsEMS1_FvvEEclEv
00000071000F9230=_ZNK2al10FunctorV0MIPNS_28BelieveSignboardKeyMovePartsEMS1_FvvEE5cloneEv
00000071000F9360=_ZN22BgmBeatAnimeControllerC2EPN2al9LiveActorE
00000071000F93F0=_ZN22BgmBeatAnimeController4initEPKcbbbi
00000071000F9470=_ZN22BgmBeatAnimeController13initAnimeInfoEv
00000071000F95D0=_ZN22BgmBeatAnimeController4initERKN2al13ActorInitInfoE
00000071000F96A0=_ZN22BgmBeatAnimeController5resetEv
00000071000F96C0=_ZN22BgmBeatAnimeController6updateEv
00000071000F96D0=_ZNK22BgmBeatAnimeController22isPlayingJunctionAnimeEv
00000071000F96E0=_ZN22BgmBeatAnimeController7exeWaitEv
00000071000F96F0=_ZN22BgmBeatAnimeController26exeWaitSyncBeatBySyncAnimeEv
00000071000F99D0=_ZN22BgmBeatAnimeController20incrementBeatCounterEv
00000071000F9A10=_ZN22BgmBeatAnimeController35setActionFrameRateWithSklAnimeCheckEf
00000071000F9A70=_ZN22BgmBeatAnimeController13setAnimeFrameEv
00000071000F9B40=_ZN22BgmBeatAnimeController17updateBeatCounterEv
00000071000F9C50=_ZN22BgmBeatAnimeController11exeSyncBeatEv
00000071000F9DF0=_ZN22BgmBeatAnimeController26exeWaitSyncBeatByWaitAnimeEv
00000071000FA090=_ZN22BgmBeatAnimeController25exeWaitSyncBeatLightStartEv
00000071000FA160=_ZN22BgmBeatAnimeController20exeWaitSyncBeatLightEv
00000071000FA350=_ZN22BgmBeatAnimeController16exeSyncBeatLightEv
00000071000FA4F0=_ZN22BgmBeatAnimeControllerD0Ev
00000071000FA590=_ZN10BgmPlayObjC2EPKc
00000071000FA610=_ZN10BgmPlayObjC1EPKc
00000071000FA690=_ZN10BgmPlayObj4initERKN2al13ActorInitInfoE
00000071000FA800=_ZN10BgmPlayObj5startEv
00000071000FA810=_ZN10BgmPlayObj7exeWaitEv
00000071000FA820=_ZN10BgmPlayObj10exePlayingEv
00000071000FA890=_ZN10BgmPlayObjD1Ev
00000071000FA8A0=_ZN10BgmPlayObjD0Ev
00000071000FA8D0=nullsub_76
00000071000FA950=_ZNK2al10FunctorV0MIP10BgmPlayObjMS1_FvvEEclEv
00000071000FA970=_ZNK2al10FunctorV0MIP10BgmPlayObjMS1_FvvEE5cloneEv
00000071000FA9C0=_ZN16BgmRegionChangerC2EPKc
00000071000FAA40=_ZN16BgmRegionChangerC1EPKc
00000071000FAAC0=_ZN16BgmRegionChanger4initERKN2al13ActorInitInfoE
00000071000FABD0=_ZN16BgmRegionChanger20changeRegionSwitchOnEv
00000071000FABF0=_ZN16BgmRegionChanger21changeRegionSwitchOffEv
00000071000FAC10=_ZN16BgmRegionChanger7exeWaitEv
00000071000FAC20=_ZN16BgmRegionChangerD1Ev
00000071000FAC30=_ZN16BgmRegionChangerD0Ev
00000071000FAC60=nullsub_77
00000071000FAC70=_ZNK2al10FunctorV0MIP16BgmRegionChangerMS1_FvvEEclEv
00000071000FAC90=_ZNK2al10FunctorV0MIP16BgmRegionChangerMS1_FvvEE5cloneEv
00000071000FACE0=_ZN24BgmRhythmAnimeControllerC1EPN2al9LiveActorEb
00000071000FAD60=_ZN24BgmRhythmAnimeController6updateEv
00000071000FAD70=_ZN24BgmRhythmAnimeController7exeWaitEv
00000071000FAE70=_ZN24BgmRhythmAnimeController16updateRhythmInfoEv
00000071000FAF30=_ZN24BgmRhythmAnimeController16updateAnimeFrameEv
00000071000FAFB0=_ZN24BgmRhythmAnimeController14exePrepareWaitEv
00000071000FAFC0=_ZN24BgmRhythmAnimeController13exeSyncRhythmEv
00000071000FB0D0=_ZN24BgmRhythmAnimeControllerD0Ev
00000071000FB120=_ZN10BgmStopObjC2EPKc
00000071000FB1A0=_ZN10BgmStopObjC1EPKc
00000071000FB220=_ZN10BgmStopObj4initERKN2al13ActorInitInfoE
00000071000FB330=_ZN10BgmStopObj5startEv
00000071000FB340=_ZN10BgmStopObj7exeWaitEv
00000071000FB350=_ZN10BgmStopObj7exeStopEv
00000071000FB3B0=_ZN10BgmStopObjD1Ev
00000071000FB3C0=_ZN10BgmStopObjD0Ev
00000071000FB3F0=nullsub_78
00000071000FB460=_ZNK2al10FunctorV0MIP10BgmStopObjMS1_FvvEEclEv
00000071000FB480=_ZNK2al10FunctorV0MIP10BgmStopObjMS1_FvvEE5cloneEv
00000071000FB4D0=_ZN13BindPuppeteerC2EPKc
00000071000FB510=_ZN13BindPuppeteer9startBindEPN2al9HitSensorES2_
00000071000FB550=_ZN13BindPuppeteer7endBindEPK18PlayerBindEndParam
00000071000FB560=_ZN13BindPuppeteer15endBindOnGroundEv
00000071000FB570=_ZN13BindPuppeteer17endBindForceAbyssEv
00000071000FB580=_ZN13BindPuppeteer10cancelBindEv
00000071000FB590=_ZN13BindPuppeteer19setNullPlayerPuppetEv
00000071000FB5A0=_ZNK13BindPuppeteer16getControlUserIdEv
00000071000FB5B0=_ZNK13BindPuppeteer7getPortEv
00000071000FB5E0=_ZNK13BindPuppeteer15getPlayerPuppetEv
00000071000FB5F0=_ZN13BindPuppeteerD0Ev
00000071000FB620=_ZN18BindPuppeteerGroupC2EPKci
00000071000FB640=_ZN18BindPuppeteerGroup6updateEv
00000071000FB6A0=_ZN18BindPuppeteerGroup17registerPuppeteerEP13BindPuppeteer
00000071000FB6D0=_ZN18BindPuppeteerGroup15insertPuppeteerEiP13BindPuppeteer
00000071000FB6E0=_ZN18BindPuppeteerGroup22createAndFillPuppeteerEPKc
00000071000FB760=_ZNK18BindPuppeteerGroup19isBindingSameUserIdEPKN2al9HitSensorE
00000071000FB810=_ZNK18BindPuppeteerGroup22getPuppeteerSameUserIdEPKN2al9HitSensorE
00000071000FB8C0=_ZNK18BindPuppeteerGroup12isEndBindAllEv
00000071000FB910=_ZNK18BindPuppeteerGroup9isBindingEi
00000071000FB930=_ZNK18BindPuppeteerGroup12getPuppeteerEi
00000071000FB950=_ZN18BindPuppeteerGroup13tryEndBindAllEv
00000071000FB9B0=_ZN18BindPuppeteerGroup13tryCancelBindEPKN2al9HitSensorE
00000071000FBA40=_ZN18BindPuppeteerGroup16tryCancelBindAllEv
00000071000FBAA0=_ZNK18BindPuppeteerGroup15getPlayerPuppetEi
00000071000FBAC0=_ZNK18BindPuppeteerGroup12getPuppeteerEPKN2al9HitSensorE
00000071000FBB60=_ZNK18BindPuppeteerGroup25getPuppeteerByPlayerIndexEPKN2al9HitSensorE
00000071000FBBB0=_ZNK18BindPuppeteerGroup18getPuppeteerNoBindEv
00000071000FBC00=_ZNK18BindPuppeteerGroup23calcBindingPuppeteerNumEv
00000071000FBC90=_ZN18BindPuppeteerGroup19setNullPlayerPuppetEi
00000071000FBCB0=_ZN18BindPuppeteerGroup14erasePuppeteerEP13BindPuppeteer
00000071000FBD10=_ZN18BindPuppeteerGroup17startPuppetActionEPKcb
00000071000FBE40=_ZN18BindPuppeteerGroup21isAllPuppetActionDoneEv
00000071000FBEE0=_ZN18BindPuppeteerGroup15endBindOnGroundEv
00000071000FBF40=_ZN14BindWarpEffectC2Ev
00000071000FBFF0=_ZN14BindWarpEffectC1Ev
00000071000FC0A0=_ZN14BindWarpEffect4initERKN2al13ActorInitInfoE
00000071000FC110=_ZN14BindWarpEffect5startERKN4sead7Vector3IfEES4_
00000071000FC1D0=_ZNK14BindWarpEffect13getEffectNameEv
00000071000FC240=_ZN14BindWarpEffect5startERKN4sead7Vector3IfEEPS3_
00000071000FC310=_ZN14BindWarpEffect5startEPKN2al9HitSensorERKN4sead7Vector3IfEE
00000071000FC3E0=_ZN14BindWarpEffect5startEPKN2al9HitSensorEPKN4sead7Vector3IfEE
00000071000FC4B0=_ZN14BindWarpEffect9setEndPosERKN4sead7Vector3IfEE
00000071000FC4D0=_ZNK14BindWarpEffect10calcEndPosEPN4sead7Vector3IfEE
00000071000FC510=_ZNK14BindWarpEffect8isMovingEv
00000071000FC520=_ZNK14BindWarpEffect5isEndEv
00000071000FC530=_ZN14BindWarpEffect7exeWaitEv
00000071000FC600=_ZN14BindWarpEffect7exeMoveEv
00000071000FC6D0=_ZN14BindWarpEffect7exeDoneEv
00000071000FC6E0=_ZN14BindWarpEffectD1Ev
00000071000FC6F0=_ZN14BindWarpEffectD0Ev
00000071000FC810=_ZN4BirdC2EPKc
00000071000FC8C0=_ZN4BirdC1EPKc
00000071000FC980=_ZN4Bird4initERKN2al13ActorInitInfoE
00000071000FCA30=_ZN4Bird14startFlySwitchEv
00000071000FCAE0=_ZN4Bird12attackSensorEPN2al9HitSensorES2_
00000071000FCD30=_ZN4Bird12calcPerchPosEPN4sead7Vector3IfEES3_PKN2al9HitSensorE
00000071000FCE00=_ZN4Bird10receiveMsgEPKN2al9SensorMsgEPNS0_9HitSensorES5_
00000071000FCF00=_ZN4Bird8startFlyERKN4sead7Vector3IfEE
00000071000FD010=_ZN4Bird21receiveMsgScreenPointEPKN2al9SensorMsgEPNS0_13ScreenPointerEPNS0_17ScreenPointTargetE
00000071000FD120=_ZN4Bird7exeWaitEv
00000071000FD1B0=_ZN4Bird7exeTurnEv
00000071000FD280=_ZN4Bird6exeFlyEv
00000071000FD300=_ZN4Bird13exeFlyToPerchEv
00000071000FD460=_ZN4Bird8exePerchEv
00000071000FD670=_ZN4BirdD1Ev
00000071000FD680=_ZN4BirdD0Ev
00000071000FD780=_ZNK2al10FunctorV0MIP4BirdMS1_FvvEEclEv
00000071000FD7A0=_ZNK2al10FunctorV0MIP4BirdMS1_FvvEE5cloneEv
00000071000FD7F0=_ZN10BlockBrickC2EPKc
00000071000FD890=_ZN10BlockBrickC1EPKc
00000071000FD930=_ZN10BlockBrick4initERKN2al13ActorInitInfoE
00000071000FDA20=_ZN10BlockBrick12attackSensorEPN2al9HitSensorES2_
00000071000FDA30=_ZN10BlockBrick10receiveMsgEPKN2al9SensorMsgEPNS0_9HitSensorES5_
00000071000FDAC0=_ZN10BlockBrick21receiveMsgScreenPointEPKN2al9SensorMsgEPNS0_13ScreenPointerEPNS0_17ScreenPointTargetE
00000071000FDAD0=_ZN10BlockBrick18onConnectRailBlockEv
00000071000FDAF0=_ZN10BlockBrick8exeStateEv
00000071000FDB60=_ZN10BlockBrick8exeEmptyEv
00000071000FDBA0=_ZN10BlockBrickD1Ev
00000071000FDBB0=_ZN10BlockBrickD0Ev
00000071000FDC90=_ZN19BlockBrickBreakableC2EPKc
00000071000FDD60=_ZN19BlockBrickBreakableC1EPKc
00000071000FDE40=_ZN19BlockBrickBreakable4initERKN2al13ActorInitInfoE
00000071000FE010=_ZN19BlockBrickBreakable18initAfterPlacementEv
00000071000FE050=_ZN19BlockBrickBreakable7controlEv
00000071000FE060=_ZN19BlockBrickBreakable12attackSensorEPN2al9HitSensorES2_
00000071000FE070=_ZN19BlockBrickBreakable25trySendMsgToUpperLowerObjEPN2al9HitSensorES2_
00000071000FE1B0=_ZN19BlockBrickBreakable10receiveMsgEPKN2al9SensorMsgEPNS0_9HitSensorES5_
00000071000FE460=_ZNK19BlockBrickBreakable11isBreakableEPKN2al9SensorMsgEPNS0_9HitSensorE
00000071000FE4F0=_ZN19BlockBrickBreakable7doBreakEb
00000071000FE5D0=_ZN19BlockBrickBreakable21receiveMsgScreenPointEPKN2al9SensorMsgEPNS0_13ScreenPointerEPNS0_17ScreenPointTargetE
00000071000FE6C0=_ZN19BlockBrickBreakable7exeWaitEv
00000071000FE700=_ZN19BlockBrickBreakable11exeReactionEv
00000071000FE750=_ZN19BlockBrickBreakable8exeBreakEv
00000071000FE790=_ZN19BlockBrickBreakableD1Ev
00000071000FE7A0=_ZN19BlockBrickBreakableD0Ev
00000071000FE7D0=_ZN2al12ComboCounterD2Ev
00000071000FE7E0=_ZN2al12ComboCounterD0Ev
00000071000FE7F0=_ZN2al12ComboCounter9incrementEv
00000071000FE980=_ZN11BlockChoiceC2EPKc
00000071000FEA20=_ZN11BlockChoiceC1EPKc
00000071000FEAC0=_ZN11BlockChoice4initERKN2al13ActorInitInfoE
00000071000FEB60=_ZN11BlockChoice12attackSensorEPN2al9HitSensorES2_
00000071000FEB70=_ZN11BlockChoice10receiveMsgEPKN2al9SensorMsgEPNS0_9HitSensorES5_
00000071000FEC80=_ZN11BlockChoice21receiveMsgScreenPointEPKN2al9SensorMsgEPNS0_13ScreenPointerEPNS0_17ScreenPointTargetE
00000071000FED00=_ZN11BlockChoice7exeWaitEv
00000071000FED70=_ZN11BlockChoice8exeReactEv
00000071000FEDD0=_ZN11BlockChoice15exeReactHipDropEv
00000071000FEE30=_ZN11BlockChoice13appearItemAllEb
00000071000FF150=_ZN11BlockChoice12setDisappearEv
00000071000FF180=_ZN11BlockChoiceD1Ev
00000071000FF190=_ZN11BlockChoiceD0Ev
00000071000FF310=_ZN10BlockEmptyC2EPKcS1_
00000071000FF3B0=_ZN10BlockEmptyC1EPKcS1_
00000071000FF450=_ZN10BlockEmpty4initERKN2al13ActorInitInfoE
00000071000FF510=_ZN10BlockEmpty10receiveMsgEPKN2al9SensorMsgEPNS0_9HitSensorES5_
00000071000FF650=_ZN10BlockEmpty7exeWaitEv
00000071000FF6B0=_ZN10BlockEmpty18onConnectRailBlockEv
00000071000FF6C0=_ZN10BlockEmptyD1Ev
00000071000FF6D0=_ZN10BlockEmptyD0Ev
00000071000FF760=_ZN9BlockHardC2EPKc
00000071000FF7E0=_ZN9BlockHardC1EPKc
00000071000FF870=_ZN9BlockHardD2Ev
00000071000FF900=_ZN9BlockHardD1Ev
00000071000FF980=_ZN9BlockHardD0Ev
00000071000FFA00=_ZN9BlockHard4initERKN2al13ActorInitInfoE
00000071000FFC40=_ZN9BlockHard14validateSensorEv
00000071000FFC50=_ZN9BlockHard16invalidateSensorEv
00000071000FFC60=_ZN9BlockHard18initAfterPlacementEv
00000071000FFCA0=_ZN9BlockHard7controlEv
00000071000FFCB0=_ZN9BlockHard4killEv
00000071000FFD00=_ZN9BlockHard10receiveMsgEPKN2al9SensorMsgEPNS0_9HitSensorES5_
00000071000FFFF0=_ZN9BlockHard7exeWaitEv
0000007100100060=_ZN9BlockHard11exeReactionEv
00000071001000E0=_ZN9BlockHard13exeBreakStartEv
0000007100100170=_ZN9BlockHard5resetEv
00000071001001C0=_ZN9BlockHard9killForceEv
0000007100100200=_ZN9BlockHard10forceBreakEv
00000071001003E0=_ZNK2al10FunctorV0MIP9BlockHardMS1_FvvEEclEv
0000007100100400=_ZNK2al10FunctorV0MIP9BlockHardMS1_FvvEE5cloneEv
0000007100100450=_ZN8BlockPowC2EPKc
0000007100100510=_ZN8BlockPowC1EPKc
00000071001005D0=_ZN8BlockPow4initERKN2al13ActorInitInfoE
0000007100100710=_ZN8BlockPow18initAfterPlacementEv
0000007100100730=_ZN8BlockPow7controlEv
0000007100100740=_ZN8BlockPow12attackSensorEPN2al9HitSensorES2_
00000071001007C0=_ZN8BlockPow10receiveMsgEPKN2al9SensorMsgEPNS0_9HitSensorES5_
0000007100100990=_ZN8BlockPow14startExplosionEb
0000007100100A00=_ZN8BlockPow21receiveMsgScreenPointEPKN2al9SensorMsgEPNS0_13ScreenPointerEPNS0_17ScreenPointTargetE
0000007100100B10=_ZN8BlockPow18onConnectRailBlockEv
0000007100100B30=_ZN8BlockPow12updateSensorEv
0000007100100BD0=_ZN8BlockPow21requestLightExplosionEv
0000007100100C00=_ZN8BlockPow7exeWaitEv
0000007100100C40=_ZN8BlockPow11exeReactionEv
0000007100100D90=_ZN8BlockPow10exeWaitEndEv
0000007100100F10=_ZN8BlockPow8exeEmptyEv
0000007100100F50=_ZN8BlockPowD1Ev
0000007100100F60=_ZN8BlockPowD0Ev
0000007100101030=_ZN13BlockQuestionC2EPKc
00000071001010C0=_ZN13BlockQuestionC1EPKc
0000007100101160=_ZN13BlockQuestion4initERKN2al13ActorInitInfoE
0000007100101260=_ZN13BlockQuestion12attackSensorEPN2al9HitSensorES2_
0000007100101270=_ZN13BlockQuestion10receiveMsgEPKN2al9SensorMsgEPNS0_9HitSensorES5_
00000071001012D0=_ZN13BlockQuestion21receiveMsgScreenPointEPKN2al9SensorMsgEPNS0_13ScreenPointerEPNS0_17ScreenPointTargetE
00000071001012E0=_ZN13BlockQuestion18onConnectRailBlockEv
0000007100101300=_ZNK13BlockQuestion6isLongEv
0000007100101310=_ZN13BlockQuestion8exeStateEv
0000007100101380=_ZN13BlockQuestion8exeEmptyEv
00000071001013C0=_ZN13BlockQuestionD1Ev
00000071001013D0=_ZN13BlockQuestionD0Ev
00000071001014C0=_ZN22BlockQuestionChameleonC2Ev
0000007100101550=_ZN22BlockQuestionChameleonC1Ev
00000071001015E0=_ZN22BlockQuestionChameleon4initERKN2al13ActorInitInfoE
0000007100101800=_ZN22BlockQuestionChameleon7controlEv
00000071001018A0=_ZN22BlockQuestionChameleon10receiveMsgEPKN2al9SensorMsgEPNS0_9HitSensorES5_
0000007100101A90=_ZN22BlockQuestionChameleon21receiveMsgScreenPointEPKN2al9SensorMsgEPNS0_13ScreenPointerEPNS0_17ScreenPointTargetE
0000007100101AE0=_ZN22BlockQuestionChameleon7exeWaitEv
0000007100101B30=_ZN22BlockQuestionChameleon14exeGiantPlayerEv
0000007100101B40=_ZN22BlockQuestionChameleon11exeDRCTouchEv
0000007100101B50=_ZN22BlockQuestionChameleon14exeMicReactionEv
0000007100101B60=_ZN22BlockQuestionChameleon18exeHipDropReactionEv
0000007100101B70=_ZN22BlockQuestionChameleonD1Ev
0000007100101B80=_ZN22BlockQuestionChameleonD0Ev
0000007100101C80=_ZN14BlockRailMoverC2EPKc
0000007100101D30=_ZN14BlockRailMoverC1EPKc
0000007100101DF0=_ZN14BlockRailMover4initERKN2al13ActorInitInfoE
0000007100102520=_ZN14BlockRailMover5startEv
0000007100102590=_ZN14BlockRailMover23calcBlockClippingCenterEPN4sead7Vector3IfEE
0000007100102620=_ZN14BlockRailMover15accompanyToRailEv
00000071001027A0=_ZN14BlockRailMover10exeStandByEv
00000071001027E0=_ZN14BlockRailMover7exeWaitEv
0000007100102820=_ZN14BlockRailMover7exeStopEv
0000007100102830=_ZN14BlockRailMover7exeMoveEv
00000071001028C0=_ZN14BlockRailMoverD1Ev
00000071001028D0=_ZN14BlockRailMoverD0Ev
0000007100102900=nullsub_79
0000007100102A40=_ZNK2al10FunctorV0MIP14BlockRailMoverMS1_FvvEEclEv
0000007100102A60=_ZNK2al10FunctorV0MIP14BlockRailMoverMS1_FvvEE5cloneEv
0000007100102AB0=_ZN10BlockSolidC2EPKcS1_
0000007100102B50=_ZN10BlockSolidC1EPKcS1_
0000007100102BF0=_ZN10BlockSolid4initERKN2al13ActorInitInfoE
0000007100102C70=_ZN10BlockSolid18initAfterPlacementEv
0000007100102C90=_ZN10BlockSolid7controlEv
0000007100102CD0=_ZN10BlockSolid10receiveMsgEPKN2al9SensorMsgEPNS0_9HitSensorES5_
0000007100102CE0=_ZN10BlockSolidD1Ev
0000007100102CF0=_ZN10BlockSolidD0Ev
0000007100102D20=_ZN17BlockStateCoinTenC2EPN2al9LiveActorERKNS0_13ActorInitInfoEb
0000007100102D80=_ZN17BlockStateCoinTen6appearEv
0000007100102DA0=_ZN17BlockStateCoinTen10receiveMsgEPKN2al9SensorMsgE
0000007100102EE0=_ZNK17BlockStateCoinTen17isValidAppearCoinEv
0000007100102F80=_ZN17BlockStateCoinTen10appearCoinEv
0000007100102FC0=_ZN17BlockStateCoinTen21setAppearCoinCallBackERKN2al11FunctorBaseE
0000007100102FF0=_ZNK17BlockStateCoinTen17isValidUpperPunchEi
0000007100103040=_ZNK17BlockStateCoinTen15isAppearBoxCoinEv
0000007100103050=_ZNK17BlockStateCoinTen19isTimerEndOrCoinMaxEv
0000007100103090=_ZNK17BlockStateCoinTen15isAppearCoinMaxEv
00000071001030A0=_ZN17BlockStateCoinTen7exeWaitEv
00000071001030E0=_ZN17BlockStateCoinTen13exeAppearCoinEv
0000007100103180=_ZN17BlockStateCoinTen17exeAppearCoinWaitEv
00000071001031C0=_ZN17BlockStateCoinTenD0Ev
0000007100103320=_ZN14BlockStateItemC1EPN2al9LiveActorERKNS0_13ActorInitInfoEbbbb
0000007100103940=_ZNK14BlockStateItem10isItemTypeEi
0000007100103950=_ZNK14BlockStateItem17isUseStateCoinTenEv
0000007100103970=_ZN14BlockStateItem18appearCoinRandom10Ev
0000007100103AA0=_ZN14BlockStateItem12appearCoin10Ev
0000007100103B30=_ZN14BlockStateItem12attackSensorEPN2al9HitSensorES2_
0000007100103B40=_ZN14BlockStateItem25trySendMsgToUpperLowerObjEPN2al9HitSensorES2_
0000007100103C70=_ZN14BlockStateItem10receiveMsgEPKN2al9SensorMsgEPNS0_9HitSensorES5_
0000007100103F10=_ZN14BlockStateItem23receiveMsgAndAppearItemEPKN2al9SensorMsgEPNS0_9HitSensorE
0000007100103FC0=_ZN14BlockStateItem36validateHitSensorsForBlockLowerPunchEv
0000007100104050=_ZN14BlockStateItem36validateHitSensorsForBlockUpperPunchEv
00000071001040F0=_ZN14BlockStateItem21receiveMsgScreenPointEPKN2al9SensorMsgEPNS0_13ScreenPointerE
0000007100104230=_ZN14BlockStateItem34validateHitSensorsForBlockDrcPunchEv
00000071001042D0=_ZN14BlockStateItem13tryAppearItemEPKN2al9SensorMsgEPNS0_9HitSensorEb
00000071001045F0=_ZNK14BlockStateItem17isValidAppearItemEv
0000007100104690=_ZN14BlockStateItem23collectAppearItemTimingEPN2al9HitSensorE
0000007100104950=_ZN14BlockStateItem21tryExecAppearItemLongEPKN2al9HitSensorE
0000007100104AF0=_ZNK14BlockStateItem13getBlockEmptyEv
0000007100104B00=_ZN14BlockStateItem11setNerveEndEv
0000007100104C60=_ZN14BlockStateItem7exeWaitEv
0000007100104CA0=_ZN14BlockStateItem13exeAppearItemEv
0000007100104DA0=_ZN14BlockStateItem9exeCoin10Ev
0000007100104E20=_ZN14BlockStateItem6exeEndEv
0000007100104E30=_ZN14BlockStateItemD0Ev
0000007100104EE0=_ZNK2al10FunctorV0MIP14BlockStateItemMS1_FvvEEclEv
0000007100104F00=_ZNK2al10FunctorV0MIP14BlockStateItemMS1_FvvEE5cloneEv
0000007100104F50=_ZN16BlockTransparentC2EPKc
0000007100104FF0=_ZN16BlockTransparentC1EPKc
0000007100105090=_ZN16BlockTransparent4initERKN2al13ActorInitInfoE
0000007100105200=_ZN16BlockTransparent10receiveMsgEPKN2al9SensorMsgEPNS0_9HitSensorES5_
0000007100105350=_ZN16BlockTransparent18onConnectRailBlockEv
0000007100105370=_ZNK16BlockTransparent6isLongEv
0000007100105380=_ZN16BlockTransparent7exeHideEv
00000071001053D0=_ZN16BlockTransparent13exeAppearItemEv
0000007100105470=_ZN16BlockTransparent8exeEmptyEv
00000071001054B0=_ZN16BlockTransparentD1Ev
00000071001054C0=_ZN16BlockTransparentD0Ev
0000007100105590=_ZN17BonusShuffleGroupC2EPKc
0000007100105610=_ZN17BonusShuffleGroupC1EPKc
0000007100105690=_ZN17BonusShuffleGroup4initERKN2al13ActorInitInfoE
0000007100105770=_ZN17BonusShuffleGroup13resetPositionERKN4sead7Vector3IfEE
0000007100105840=_ZN17BonusShuffleGroupD1Ev
0000007100105850=_ZN17BonusShuffleGroupD0Ev
0000007100105880=_ZN13BonusShufflerC2EPKc
0000007100105900=_ZN13BonusShufflerC1EPKc
0000007100105980=_ZN13BonusShuffler4initERKN2al13ActorInitInfoE
0000007100105B60=_ZN13BonusShuffler24calcAppearDoubleMarioNumERKN2al13ActorInitInfoE
0000007100105C10=_ZN13BonusShufflerD1Ev
0000007100105C20=_ZN13BonusShufflerD0Ev
0000007100105C50=_ZN16BossFireFallRockC2EPKc
0000007100105CD0=_ZN16BossFireFallRockC1EPKc
0000007100105D60=_ZN16BossFireFallRock4initERKN2al13ActorInitInfoE
0000007100105DF0=_ZN16BossFireFallRock9startFallERKN4sead7Vector3IfEES4_f
0000007100105F20=_ZN16BossFireFallRock7exeWaitEv
0000007100105F30=_ZN16BossFireFallRock7exeMoveEv
0000007100105FB0=_ZN16BossFireFallRockD1Ev
0000007100105FC0=_ZN16BossFireFallRockD0Ev
0000007100105FF0=nullsub_80
0000007100106090=_ZN13BreakMapPartsC2EPKc
0000007100106120=_ZN13BreakMapPartsC1EPKc
00000071001061B0=_ZN13BreakMapParts4initERKN2al13ActorInitInfoE
0000007100106400=_ZN13BreakMapParts18startBreakBySwitchEv
0000007100106470=_ZN13BreakMapParts6appearEv
00000071001064A0=_ZN13BreakMapParts7exeWaitEv
00000071001064B0=_ZN13BreakMapParts8exeDelayEv
00000071001064F0=_ZN13BreakMapParts8exeBreakEv
00000071001065A0=_ZN13BreakMapParts10receiveMsgEPKN2al9SensorMsgEPNS0_9HitSensorES5_
00000071001065E4=def_7100106614
0000007100106700=_ZN13BreakMapParts20receiveMsgNeedleBallEPKN2al9SensorMsgEPNS0_9HitSensorES5_
00000071001067B0=_ZN13BreakMapParts14receiveMsgSandEPKN2al9SensorMsgEPNS0_9HitSensorES5_
0000007100106A00=_ZN13BreakMapParts20receiveMsgRideDragonEPKN2al9SensorMsgEPNS0_9HitSensorES5_
0000007100106AB0=_ZN13BreakMapParts15receiveMsgGiantEPKN2al9SensorMsgEPNS0_9HitSensorES5_
0000007100106B50=_ZN13BreakMapParts18receiveMsgMapPartsEPKN2al9SensorMsgEPNS0_9HitSensorES5_
0000007100106C10=_ZN13BreakMapParts10startBreakEPKN2al9SensorMsgEPNS0_9HitSensorES5_
0000007100106C80=_ZN13BreakMapPartsD1Ev
0000007100106C90=_ZN13BreakMapPartsD0Ev
0000007100106CC0=nullsub_81
0000007100106D30=_ZNK2al10FunctorV0MIP13BreakMapPartsMS1_FvvEEclEv
0000007100106D50=_ZNK2al10FunctorV0MIP13BreakMapPartsMS1_FvvEE5cloneEv
0000007100106DA0=_ZN4BushC2EPKc
0000007100106E30=_ZN4BushC1EPKc
0000007100106EC0=_ZN4Bush4initERKN2al13ActorInitInfoE
0000007100106F30=_ZN4Bush18initWithColorFrameERKN2al13ActorInitInfoEi
00000071001070F0=_ZN4Bush16initBushOnRabbitERKN2al13ActorInitInfoERKN4sead7Vector3IfEEi
0000007100107190=_ZN4Bush18initAfterPlacementEv
00000071001071C0=_ZN4Bush7controlEv
0000007100107250=_ZN4Bush10receiveMsgEPKN2al9SensorMsgEPNS0_9HitSensorES5_
0000007100107540=_ZN4Bush27trySetAppearItemFactorByMsgEPKN2al9SensorMsgEPKNS0_9HitSensorEPKc
0000007100107590=_ZN4Bush21receiveMsgScreenPointEPKN2al9SensorMsgEPNS0_13ScreenPointerEPNS0_17ScreenPointTargetE
0000007100107670=_ZN4Bush7exeWaitEv
00000071001076C0=_ZN4Bush11exeReactionEv
0000007100107770=_ZN4Bush13tryAppearItemEv
00000071001077B0=_ZN4Bush17exeReactionAttackEv
0000007100107840=_ZN4Bush15exeReactionFireEv
00000071001078D0=_ZN4Bush14exeReactionMicEv
0000007100107960=_ZN4Bush16exeReactionTouchEv
00000071001079E0=_ZN4Bush13exeRabbitWaitEv
0000007100107A20=_ZN4Bush15exeRabbitAppearEv
0000007100107A80=_ZN4Bush20tryStartRabbitAppearEv
0000007100107AF0=_ZN4BushD1Ev
0000007100107B00=_ZN4BushD0Ev
0000007100107E80=_ZN34CameraDirectionSwitchOnAreaWatcherC2EPKc
0000007100107F00=_ZN34CameraDirectionSwitchOnAreaWatcherC1EPKc
0000007100107F80=_ZN34CameraDirectionSwitchOnAreaWatcher4initERKN2al13ActorInitInfoE
0000007100108120=_ZN34CameraDirectionSwitchOnAreaWatcher7controlEv
00000071001083A0=_ZN34CameraDirectionSwitchOnAreaWatcher24tryOffStageSwitchPrivateEv
00000071001083B0=_ZN34CameraDirectionSwitchOnAreaWatcher23tryOnStageSwitchPrivateEv
00000071001083C0=_ZN34CameraDirectionSwitchOnAreaWatcher4killEv
00000071001083F0=_ZN34CameraDirectionSwitchOnAreaWatcherD1Ev
0000007100108400=_ZN34CameraDirectionSwitchOnAreaWatcherD0Ev
0000007100108430=_ZN11CandlestandC2EPKcP18CandlestandWatcher
0000007100108500=_ZN11CandlestandC1EPKcP18CandlestandWatcher
00000071001085D0=_ZN11Candlestand4initERKN2al13ActorInitInfoE
00000071001087B0=_ZN11Candlestand12turnLightOffEv
0000007100108810=_ZN11Candlestand11turnLightOnEv
0000007100108880=_ZN11Candlestand18initAfterPlacementEv
00000071001088A0=_ZN11Candlestand7controlEv
00000071001088B0=_ZN11Candlestand12attackSensorEPN2al9HitSensorES2_
0000007100108940=_ZN11Candlestand10receiveMsgEPKN2al9SensorMsgEPNS0_9HitSensorES5_
0000007100108A40=_ZN11Candlestand10exeLightOnEv
0000007100108B40=_ZN11Candlestand18exeLightOnAndShakeEv
0000007100108BD0=_ZN11Candlestand11exeLightOffEv
0000007100108C40=_ZN11Candlestand10isLightOffEv
0000007100108C50=_ZN11CandlestandD1Ev
0000007100108C60=_ZN11CandlestandD0Ev
0000007100108DB0=_ZNK2al10FunctorV0MIP11CandlestandMS1_FvvEEclEv
0000007100108DD0=_ZNK2al10FunctorV0MIP11CandlestandMS1_FvvEE5cloneEv
0000007100108E20=_ZN18CandlestandWatcherC2EPKc
0000007100108EA0=_ZN18CandlestandWatcherC1EPKc
0000007100108F20=_ZN18CandlestandWatcher4initERKN2al13ActorInitInfoE
0000007100109060=_ZN18CandlestandWatcher8exeWatchEv
00000071001090F0=_ZN18CandlestandWatcher16isEnableAddScoreEv
0000007100109170=_ZN18CandlestandWatcherD1Ev
0000007100109180=_ZN18CandlestandWatcherD0Ev
0000007100109240=_ZN10ChainModelC2EPKcS1_S1_
00000071001092D0=_ZN10ChainModelC1EPKcS1_S1_
0000007100109360=_ZN10ChainModel4initERKN2al13ActorInitInfoE
00000071001093D0=_ZN10ChainModel7exeWaitEv
0000007100109410=_ZN10ChainModel7exeFallEv
00000071001094B0=_ZNK10ChainModel9isFallEndEv
00000071001094D0=_ZN10ChainModel9startFallERKN4sead7Vector3IfEE
0000007100109510=_ZN10ChainModelD1Ev
0000007100109520=_ZN10ChainModelD0Ev
00000071001095A0=_ZN25ChameleonStateGiantPlayerC1EPN2al9LiveActorEP27RenderMaterialIndirectParamPKS3_S6_ff
0000007100109660=_ZN25ChameleonStateGiantPlayer14exeGiantPlayerEv
0000007100109860=_ZN25ChameleonStateGiantPlayerD0Ev
00000071001098A0=_ZN21ChameleonStateHipDropC1EPN2al9LiveActorEP27RenderMaterialIndirectParamPKS3_S6_
0000007100109910=_ZN21ChameleonStateHipDrop7exeWaitEv
0000007100109920=_ZN21ChameleonStateHipDrop6appearEv
0000007100109930=_ZN21ChameleonStateHipDrop9exeAppearEv
00000071001099C0=_ZN21ChameleonStateHipDrop13exeAppearWaitEv
0000007100109A00=_ZN21ChameleonStateHipDrop6exeEndEv
0000007100109A60=_ZN21ChameleonStateHipDropD0Ev
0000007100109A90=nullsub_82
0000007100109B60=_ZN17ChameleonStateMicC1EPN2al9LiveActorEP27RenderMaterialIndirectParamPKS3_
0000007100109BC0=_ZN17ChameleonStateMic6appearEv
0000007100109BD0=_ZN17ChameleonStateMic6exeMicEv
0000007100109C80=_ZN17ChameleonStateMicD0Ev
0000007100109D70=_ZN19ChameleonStateTouchC1EPN2al9LiveActorEP27RenderMaterialIndirectParamPKS3_S6_ff
0000007100109E30=_ZN19ChameleonStateTouch11exeDRCTouchEv
000000710010A130=_ZN19ChameleonStateTouch18setRadishTouchInfoEbPKN4sead7Vector3IfEE
000000710010A180=_ZN19ChameleonStateTouchD0Ev
000000710010A1C0=_ZN18ChameleonStateUtil36tryRequestGiantPlayerAppearChameleonEPKN2al9SensorMsgEPNS0_9HitSensorEP25ChameleonStateGiantPlayer
000000710010A1E0=_ZN18ChameleonStateUtil32tryRequestHipDropAppearChameleonEPKN2al9SensorMsgEPNS0_9HitSensorEP21ChameleonStateHipDrop
000000710010A2E0=_ZN18ChameleonStateUtil23isMsgHitAppearChameleonEPKN2al9SensorMsgE
000000710010A370=_ZN18ChameleonStateUtil19updateIndirectParamEP27RenderMaterialIndirectParamPKS0_
000000710010A3A0=_ZN18ChameleonStateUtil19updateIndirectParamEP27RenderMaterialIndirectParamffRKN4sead7Vector4IfEES6_S6_
000000710010A3D0=_ZN18ChameleonStateUtil19updateIndirectParamEP27RenderMaterialIndirectParamfff
000000710010A420=_ZN18ChameleonStateUtil19updateIndirectParamEP27RenderMaterialIndirectParamffRKN4sead7Vector4IfEES6_S6_fS6_S6_S6_
000000710010A580=_ZN18ChameleonStateUtil19updateIndirectParamEP27RenderMaterialIndirectParamfPKS0_S3_
000000710010A5B0=_ZN18ChameleonStateUtil30setRenderMaterialIndirectParamEPN2al9LiveActorEPK27RenderMaterialIndirectParam
000000710010A940=_ZNK2nn3g3d11MaterialObj20FindShaderParamIndexEPKc
000000710010AA60=_ZN18ChameleonStateUtil9isVisibleEPK27RenderMaterialIndirectParamS2_S2_
000000710010AAD0=_ZN18ChameleonStateUtil27changeDrawTransparentObjectEv
000000710010AAF0=_ZN10CheckPoint8resetAllEv
000000710010ABB0=_ZN10CheckPointC2EPKc
000000710010AC80=_ZN10CheckPointC1EPKc
000000710010AD60=_ZN10CheckPointD2Ev
000000710010AE00=_ZN10CheckPointD1Ev
000000710010AEA0=_ZN10CheckPointD0Ev
000000710010AF60=_ZN10CheckPoint4initERKN2al13ActorInitInfoE
000000710010B490=_ZN10CheckPoint18initAfterPlacementEv
000000710010B4B0=_ZN10CheckPoint7controlEv
000000710010B4C0=_ZN10CheckPoint12attackSensorEPN2al9HitSensorES2_
000000710010B7B0=_ZN10CheckPoint10receiveMsgEPKN2al9SensorMsgEPNS0_9HitSensorES5_
000000710010B7C0=_ZN10CheckPoint21receiveMsgScreenPointEPKN2al9SensorMsgEPNS0_13ScreenPointerEPNS0_17ScreenPointTargetE
000000710010B7D0=_ZN10CheckPoint14starDoneMovingEv
000000710010B910=_ZN10CheckPoint10exePreWaitEv
000000710010B970=_ZN10CheckPoint13blinkStarInitEv
000000710010B990=_ZN10CheckPoint15blinkStarUpdateEv
000000710010BA80=_ZN10CheckPoint7exeWaitEv
000000710010BD70=_ZN10CheckPoint7exeNoopEv
000000710010BF00=_ZN14CheckPointStarC2EPKc
000000710010BF90=_ZN14CheckPointStarC1EPKc
000000710010C030=_ZN14CheckPointStarD2Ev
000000710010C040=_ZN14CheckPointStarD1Ev
000000710010C050=_ZN14CheckPointStarD0Ev
000000710010C080=_ZN14CheckPointStar4initERKN2al13ActorInitInfoE
000000710010C170=_ZN14CheckPointStar10receiveMsgEPKN2al9SensorMsgEPNS0_9HitSensorES5_
000000710010C180=_ZN14CheckPointStar21receiveMsgScreenPointEPKN2al9SensorMsgEPNS0_13ScreenPointerEPNS0_17ScreenPointTargetE
000000710010C220=_ZN14CheckPointStar7exeSpinEv
000000710010C300=_ZN14CheckPointStar16exeSpinSpeedDownEv
000000710010C400=_ZN14CheckPointStar9exeAppearEv
000000710010C4D0=_ZN14CheckPointStar22updateShadowDropLengthEv
000000710010C530=_ZN14CheckPointStar7exeWaitEv
000000710010C5E0=_ZN14CheckPointStar2goEP10CheckPointPN2al9LiveActorEbfb
000000710010C610=_ZN14CheckPointStar4failEP10CheckPoint
000000710010C630=_ZN14CheckPointStar8reappearEv
000000710010C690=_ZN14CheckPointStar9startMoveEv
000000710010C720=_ZN14CheckPointStar7endMoveEv
000000710010C7C0=_ZN14CheckPointStar13exeMoveLinearEv
000000710010C8F0=_ZN14CheckPointStar10exeMoveArcEv
000000710010CA50=_ZN14CheckPointStar7exeFailEv
000000710010CB20=_ZN14CheckPointStar7exeNoopEv
000000710010CC40=_ZNK24CheckPointGameInfoKeeper5countEv
000000710010CC60=_ZNK24CheckPointGameInfoKeeper9collectedEv
000000710010CC80=_ZN15ChikaChikaBlockC2EPKc
000000710010CD10=_ZN15ChikaChikaBlockC1EPKc
000000710010CDA0=_ZN15ChikaChikaBlock4initERKN2al13ActorInitInfoE
000000710010CEF0=_ZN15ChikaChikaBlock18startSwitchOffSignEv
000000710010CF50=_ZN15ChikaChikaBlock11startSwitchEv
000000710010CFB0=_ZN15ChikaChikaBlock13startSwitchOnEv
000000710010D010=_ZN15ChikaChikaBlock11exeSwitchOnEv
000000710010D0C0=_ZN15ChikaChikaBlock16exeSwitchOffSignEv
000000710010D130=_ZN15ChikaChikaBlock12exeSwitchOffEv
000000710010D1A0=_ZN15ChikaChikaBlock10exeStandbyEv
000000710010D260=_ZN15ChikaChikaBlock10exeSyncBgmEv
000000710010D4E0=_ZNK15ChikaChikaBlock13getSwitchTimeEv
000000710010D520=_ZN15ChikaChikaBlock9onBgmSyncEv
000000710010D570=_ZN15ChikaChikaBlock12startSyncBgmEv
000000710010D590=_ZN15ChikaChikaBlockD1Ev
000000710010D5A0=_ZN15ChikaChikaBlockD0Ev
000000710010D700=_ZN27ChikaChikaBlockSynchronizerC2Ev
000000710010D790=_ZN27ChikaChikaBlockSynchronizer15initAudioKeeperERN2al13ActorInitInfoE
000000710010D7A0=_ZN27ChikaChikaBlockSynchronizer26initAfterPlacementSceneObjERKN2al13ActorInitInfoE
000000710010D7D0=_ZN27ChikaChikaBlockSynchronizer6updateEv
000000710010D8A0=_ZN27ChikaChikaBlockSynchronizer15updateSceneStopEv
000000710010D8B0=_ZN27ChikaChikaBlockSynchronizer12startSyncBgmEv
000000710010D900=_ZN27ChikaChikaBlockSynchronizer15registerWatcherEP22ChikaChikaBlockWatcher
000000710010D940=_ZN2kp28updateChikaChikaSynchronizerEPKN2al18IUseSceneObjHolderE
000000710010D960=_ZN2kp37updateSceneStopChikaChikaSynchronizerEPKN2al18IUseSceneObjHolderE
000000710010D980=_ZN2kp34startSyncBgmChikaChikaSynchronizerEPKN2al18IUseSceneObjHolderE
000000710010D9E0=_ZNK27ChikaChikaBlockSynchronizer15getSceneObjNameEv
000000710010D9F0=_ZN22ChikaChikaBlockWatcherC2EPKc
000000710010DA70=_ZN22ChikaChikaBlockWatcherC1EPKc
000000710010DB00=_ZN22ChikaChikaBlockWatcher4initERKN2al13ActorInitInfoE
000000710010DD50=_ZN22ChikaChikaBlockWatcher8exeWatchEv
000000710010DED0=_ZN22ChikaChikaBlockWatcher18startSwitchOffSignEv
000000710010DF30=_ZN22ChikaChikaBlockWatcher11startSwitchEv
000000710010DF90=_ZN22ChikaChikaBlockWatcher12exeAllAppearEv
000000710010DFF0=_ZN22ChikaChikaBlockWatcher12exeDisAppearEv
000000710010E0C0=_ZN22ChikaChikaBlockWatcher12startSyncBgmEv
000000710010E120=_ZN22ChikaChikaBlockWatcher9isStopBgmEv
000000710010E170=_ZN22ChikaChikaBlockWatcherD1Ev
000000710010E180=_ZN22ChikaChikaBlockWatcherD0Ev
000000710010E230=_ZN12ChikuwaBlockC2EPKc
000000710010E2B0=_ZN12ChikuwaBlockC1EPKc
000000710010E330=_ZN12ChikuwaBlock4initERKN2al13ActorInitInfoE
000000710010E370=_ZN12ChikuwaBlock7controlEv
000000710010E3D0=_ZN12ChikuwaBlock10receiveMsgEPKN2al9SensorMsgEPNS0_9HitSensorES5_
000000710010E470=_ZN2al12FallMapPartsD1Ev
000000710010E480=_ZN2al12FallMapPartsD0Ev
000000710010E4B0=_ZN12ChikuwaBlockD1Ev
000000710010E4C0=_ZN12ChikuwaBlockD0Ev
000000710010E4F0=_ZN24CityWorldGroundUnderPartC2EPKc
000000710010E560=_ZN24CityWorldGroundUnderPartC1EPKc
000000710010E5E0=_ZN24CityWorldGroundUnderPart4initERKN2al13ActorInitInfoE
000000710010E650=_ZN24CityWorldGroundUnderPart9startAnimEv
000000710010E660=_ZN24CityWorldGroundUnderPart10exeOffWaitEv
000000710010E670=_ZN24CityWorldGroundUnderPart5exeOnEv
000000710010E6D0=_ZN24CityWorldGroundUnderPart9exeOnWaitEv
000000710010E710=_ZN2al13FixedMapPartsD1Ev
000000710010E720=_ZN2al13FixedMapPartsD0Ev
000000710010E750=_ZN24CityWorldGroundUnderPartD1Ev
000000710010E760=_ZN24CityWorldGroundUnderPartD0Ev
000000710010E790=nullsub_83
000000710010E840=_ZNK2al10FunctorV0MIP24CityWorldGroundUnderPartMS1_FvvEEclEv
000000710010E860=_ZNK2al10FunctorV0MIP24CityWorldGroundUnderPartMS1_FvvEE5cloneEv
000000710010E8B0=_ZN4CoinC2EPKc
000000710010E940=_ZN4CoinC1EPKc
000000710010E9E0=_ZN4Coin4initERKN2al13ActorInitInfoE
000000710010EC80=_ZN4Coin12killBySwitchEv
000000710010ECD0=_ZN4Coin18initAfterPlacementEv
000000710010ED10=_ZN4Coin4killEv
000000710010ED40=_ZN4Coin7controlEv
000000710010ED90=_ZN4Coin10receiveMsgEPKN2al9SensorMsgEPNS0_9HitSensorES5_
000000710010EEB0=_ZNK4Coin18isEnableMsgItemGetEPKN2al9SensorMsgE
000000710010EED0=_ZN4Coin21receiveMsgScreenPointEPKN2al9SensorMsgEPNS0_13ScreenPointerEPNS0_17ScreenPointTargetE
000000710010EF50=_ZN4Coin10appearJumpEv
000000710010EFB0=_ZN4Coin13resetBaseQuatEv
000000710010EFE0=_ZN4Coin6rotateEv
000000710010F070=_ZN4Coin17exeAppearJumpRiseEv
000000710010F140=_ZN4Coin17exeAppearJumpFallEv
000000710010F240=_ZN4Coin7exeWaitEv
000000710010F2E0=_ZN4Coin7exeSpinEv
000000710010F360=_ZN4CoinD1Ev
000000710010F370=_ZN4CoinD0Ev
000000710010F450=_ZNK2al10FunctorV0MIP4CoinMS1_FvvEEclEv
000000710010F470=_ZNK2al10FunctorV0MIP4CoinMS1_FvvEE5cloneEv
000000710010F4C0=_ZN10CoinAttachC2EPKcP10ItemBubble
000000710010F560=_ZN10CoinAttachC1EPKcP10ItemBubble
000000710010F600=_ZN10CoinAttach4initERKN2al13ActorInitInfoE
000000710010F760=_ZN10CoinAttach6appearEv
000000710010F7D0=_ZN10CoinAttach10receiveMsgEPKN2al9SensorMsgEPNS0_9HitSensorES5_
000000710010F8F0=_ZN10CoinAttach21receiveMsgScreenPointEPKN2al9SensorMsgEPNS0_13ScreenPointerEPNS0_17ScreenPointTargetE
000000710010F990=_ZN10CoinAttach9exeAttachEv
000000710010F9D0=_ZN10CoinAttach6rotateEv
000000710010FA00=_ZN10CoinAttach15exeAttachBubbleEv
000000710010FA50=_ZN10CoinAttach13exePopUpFrontEv
000000710010FBA0=_ZN10CoinAttach7exeLandEv
000000710010FC40=_ZN10CoinAttach10exeSpinDrcEv
000000710010FC80=_ZN10CoinAttachD1Ev
000000710010FC90=_ZN10CoinAttachD0Ev
000000710010FDD0=_ZN8CoinBlowC2EPKc
000000710010FE90=_ZN8CoinBlowC1EPKc
000000710010FF50=_ZN8CoinBlow4initERKN2al13ActorInitInfoE
0000007100110090=_ZN8CoinBlow18initAfterPlacementEv
00000071001100A0=_ZN8CoinBlow6appearEv
0000007100110120=_ZN8CoinBlow6rotateEv
00000071001101D0=_ZN8CoinBlow7controlEv
0000007100110270=_ZN8CoinBlow10receiveMsgEPKN2al9SensorMsgEPNS0_9HitSensorES5_
0000007100110340=_ZN8CoinBlow21receiveMsgScreenPointEPKN2al9SensorMsgEPNS0_13ScreenPointerEPNS0_17ScreenPointTargetE
0000007100110440=_ZN8CoinBlow21appearWithHitReactionEv
0000007100110470=_ZN8CoinBlow13setOffCollideEi
0000007100110480=_ZN8CoinBlow12setHideModelEi
0000007100110490=_ZN8CoinBlow12setOffSensorEi
00000071001104A0=_ZN8CoinBlow7exeBlowEv
00000071001105E0=_ZN8CoinBlow8setBoundEb
00000071001108D0=_ZN8CoinBlow14setBoundOnAreaEv
0000007100110A20=_ZN8CoinBlow7exeWaitEv
0000007100110AE0=_ZN8CoinBlow10exeSpinDrcEv
0000007100110C10=_ZN8CoinBlowD1Ev
0000007100110C20=_ZN8CoinBlowD0Ev
0000007100110C80=_ZN17CoinBlowGeneratorC2EPKc
0000007100110D10=_ZN17CoinBlowGeneratorC1EPKc
0000007100110DB0=_ZN17CoinBlowGenerator4initERKN2al13ActorInitInfoE
0000007100110F30=_ZN17CoinBlowGenerator13initWithParamERKNS_9InitParamERKN2al13ActorInitInfoE
00000071001110A0=_ZN17CoinBlowGenerator7exeBlowEv
00000071001113E0=_ZN17CoinBlowGeneratorD1Ev
00000071001113F0=_ZN17CoinBlowGeneratorD0Ev
0000007100111430=_ZN13CoinChameleonC2EPKc
00000071001114F0=_ZN13CoinChameleonC1EPKc
00000071001115C0=_ZN13CoinChameleon4initERKN2al13ActorInitInfoE
0000007100111940=_ZN13CoinChameleon18initAfterPlacementEv
0000007100111970=_ZN13CoinChameleon7controlEv
0000007100111CD0=_ZN13CoinChameleon13isNerveAppearEv
0000007100111D20=_ZN13CoinChameleon9setRotateEf
0000007100111DF0=_ZN13CoinChameleon16tryContactAppearEPN2al9HitSensorE
0000007100111E90=_ZN13CoinChameleon12attackSensorEPN2al9HitSensorES2_
0000007100111F70=_ZN13CoinChameleon10receiveMsgEPKN2al9SensorMsgEPNS0_9HitSensorES5_
0000007100112430=_ZN13CoinChameleon14tryRadishReactEPN2al9HitSensorE
0000007100112560=_ZN13CoinChameleon21receiveMsgScreenPointEPKN2al9SensorMsgEPNS0_13ScreenPointerEPNS0_17ScreenPointTargetE
0000007100112630=_ZN13CoinChameleon17tryAppearDRCTouchEv
0000007100112730=_ZN13CoinChameleon7exeWaitEv
0000007100112780=_ZN13CoinChameleon9invisibleEv
0000007100112790=_ZN13CoinChameleon12tryMicAppearEv
00000071001127E0=_ZN13CoinChameleon14exeGiantPlayerEv
00000071001127F0=_ZN13CoinChameleon11exeDRCTouchEv
0000007100112820=_ZN13CoinChameleon14exeMicReactionEv
0000007100112830=_ZN13CoinChameleon18exeHipDropReactionEv
0000007100112840=_ZN13CoinChameleon22exeHipDropReactionWaitEv
00000071001128C0=_ZN13CoinChameleon16exeContactAppearEv
00000071001129D0=_ZN13CoinChameleon14updateVelocityEv
0000007100112AC0=_ZN13CoinChameleon6rotateEf
0000007100112AD0=_ZN13CoinChameleon14exeInterpolateEv
0000007100112D00=_ZN13CoinChameleonD1Ev
0000007100112D10=_ZN13CoinChameleonD0Ev
0000007100112EC0=_ZN19CoinCirclePlacementC2EPKc
0000007100112F70=_ZN19CoinCirclePlacementC1EPKc
0000007100113030=_ZN19CoinCirclePlacement4initERKN2al13ActorInitInfoE
0000007100113330=_ZN19CoinCirclePlacement8exeWatchEv
0000007100113500=_ZN19CoinCirclePlacementD1Ev
0000007100113510=_ZN19CoinCirclePlacementD0Ev
0000007100113550=_ZN11CoinCountUpC2EPKc
00000071001135D0=_ZN11CoinCountUpC1EPKc
0000007100113650=_ZN11CoinCountUp4initERKN2al13ActorInitInfoE
00000071001136D0=_ZN11CoinCountUp6appearEv
0000007100113710=_ZN11CoinCountUp4killEv
0000007100113740=_ZN11CoinCountUp11appearQuickEv
0000007100113780=_ZN11CoinCountUp16appearDelayQuickEi
0000007100113800=_ZN11CoinCountUp11appearFrontERKN4sead7Vector3IfEE
0000007100113870=_ZN11CoinCountUp20exeDelayQuickStandbyEv
00000071001138C0=_ZN11CoinCountUp5exeUpEv
0000007100113960=_ZN11CoinCountUp10exeUpQuickEv
0000007100113A00=_ZN11CoinCountUp10exeUpFrontEv
0000007100113A70=_ZN11CoinCountUpD1Ev
0000007100113A80=_ZN11CoinCountUpD0Ev
0000007100113B90=_ZN10CoinHolder24requestCreateSceneHolderEPKN2al18IUseSceneObjHolderERKNS0_13ActorInitInfoE
0000007100113C30=_ZN10CoinHolder4initERKN2al13ActorInitInfoE
0000007100113D70=_ZN10CoinHolder13getCoinHolderEPKN2al18IUseSceneObjHolderE
0000007100113D80=_ZN10CoinHolderC2Ev
0000007100113DB0=_ZN10CoinHolder9scoopCoinEv
0000007100113E00=_ZN10CoinHolder8sinkCoinEP4Coin
0000007100113EA0=_ZN8CoinLineC2EPKc
0000007100113F20=_ZN8CoinLineC1EPKc
0000007100113FB0=_ZN8CoinLine4initERKN2al13ActorInitInfoE
0000007100114640=_ZNK8CoinLine15getCoinGroupNumEv
0000007100114650=_ZN8CoinLine6appearEv
0000007100114680=_ZN8CoinLine7controlEv
0000007100114900=_ZN8CoinLine10receiveMsgEPKN2al9SensorMsgEPNS0_9HitSensorES5_
0000007100114910=_ZN8CoinLineD1Ev
0000007100114920=_ZN8CoinLineD0Ev
0000007100114950=_ZN8CoinRailC2EPKc
00000071001149F0=_ZN8CoinRailC1EPKc
0000007100114AA0=_ZN8CoinRail4initERKN2al13ActorInitInfoE
0000007100114DA0=_ZN8CoinRail13startBySwitchEv
0000007100114E10=_ZN8CoinRail7exeStopEv
0000007100114E60=_ZN8CoinRail7exeMoveEv
0000007100115010=_ZN8CoinRailD1Ev
0000007100115020=_ZN8CoinRailD0Ev
00000071001150C0=_ZNK2al10FunctorV0MIP8CoinRailMS1_FvvEEclEv
00000071001150E0=_ZNK2al10FunctorV0MIP8CoinRailMS1_FvvEE5cloneEv
0000007100115130=_ZN12CoinRailCoinC2EPKciiff
0000007100115210=_ZN12CoinRailCoinC1EPKciiff
0000007100115300=_ZN12CoinRailCoin4initERKN2al13ActorInitInfoE
0000007100115580=_ZN12CoinRailCoin18initAfterPlacementEv
0000007100115590=_ZN12CoinRailCoin10receiveMsgEPKN2al9SensorMsgEPNS0_9HitSensorES5_
0000007100115620=_ZNK12CoinRailCoin18isEnableMsgItemGetEPKN2al9SensorMsgE
0000007100115640=_ZN12CoinRailCoin21receiveMsgScreenPointEPKN2al9SensorMsgEPNS0_13ScreenPointerEPNS0_17ScreenPointTargetE
00000071001156E0=_ZN12CoinRailCoin7controlEv
0000007100115740=_ZN12CoinRailCoin7exeStopEv
0000007100115760=_ZN12CoinRailCoin10exeStandbyEv
00000071001157E0=_ZN12CoinRailCoin7exeMoveEv
0000007100115810=_ZN12CoinRailCoin12moveCoinRailEv
0000007100115910=_ZN12CoinRailCoin10exeSpinDrcEv
0000007100115990=_ZN12CoinRailCoin7setStopEv
00000071001159A0=_ZN12CoinRailCoin7setMoveEv
00000071001159B0=_ZN12CoinRailCoinD1Ev
00000071001159C0=_ZN12CoinRailCoinD0Ev
0000007100115B40=_ZN7CoinRedC2EPKc
0000007100115C00=_ZN7CoinRedC1EPKc
0000007100115CD0=_ZN7CoinRed4initERKN2al13ActorInitInfoE
0000007100115E70=_ZN7CoinRed18initAfterPlacementEv
0000007100115EA0=_ZN7CoinRed6appearEv
0000007100115ED0=_ZN7CoinRed7controlEv
0000007100115F40=_ZN7CoinRed10receiveMsgEPKN2al9SensorMsgEPNS0_9HitSensorES5_
0000007100115FB0=_ZN7CoinRed21receiveMsgScreenPointEPKN2al9SensorMsgEPNS0_13ScreenPointerEPNS0_17ScreenPointTargetE
0000007100116060=_ZN7CoinRed13getTimerFrameEv
0000007100116070=_ZN7CoinRed9exeAppearEv
00000071001160E0=_ZN7CoinRed6rotateEf
0000007100116190=_ZN7CoinRed12exeCountDownEv
00000071001161F0=_ZN7CoinRed7exeSpinEv
0000007100116250=_ZN7CoinRed7exeStopEv
0000007100116260=_ZN7CoinRedD1Ev
0000007100116270=_ZN7CoinRedD0Ev
0000007100116400=_ZN8CoinRingC2EPKc
0000007100116490=_ZN8CoinRingC1EPKc
0000007100116520=_ZN8CoinRing4initERKN2al13ActorInitInfoE
00000071001166A0=_ZN8CoinRing12startKeyMoveEv
00000071001166D0=_ZN8CoinRing18initAfterPlacementEv
00000071001166E0=_ZN8CoinRing10receiveMsgEPKN2al9SensorMsgEPNS0_9HitSensorES5_
00000071001167B0=_ZN8CoinRing7exeWaitEv
0000007100116820=_ZN8CoinRing7exeMoveEv
00000071001168E0=_ZN8CoinRing8exeDelayEv
0000007100116920=_ZN8CoinRing7exeStopEv
0000007100116930=_ZN8CoinRing12exeDisappearEv
0000007100116B40=_ZN8CoinRingD1Ev
0000007100116B50=_ZN8CoinRingD0Ev
0000007100116B80=nullsub_84
0000007100116C70=_ZNK2al10FunctorV0MIP8CoinRingMS1_FvvEEclEv
0000007100116C90=_ZNK2al10FunctorV0MIP8CoinRingMS1_FvvEE5cloneEv
0000007100116CE0=_ZN11CoinRotaterC1EPN2al15ExecuteDirectorE
0000007100116D10=_ZN11CoinRotater7executeEv
0000007100116D80=_ZNK11CoinRotater10getRotateYEv
0000007100116D90=_ZNK11CoinRotater17getRotateYInWaterEv
0000007100116DA0=_ZN2kp14getCoinRotateYEPKN2al9LiveActorE
0000007100116E00=_ZN2kp21getCoinRotateYByFrameEPKN2al9LiveActorE
0000007100116E50=_ZNK2al12IUseExecutor4drawEv
0000007100116E60=_ZNK11CoinRotater15getSceneObjNameEv
0000007100116E70=_ZThn8_NK11CoinRotater15getSceneObjNameEv
0000007100116E80=_ZN9CoinStackC2EPKc
0000007100116F10=_ZN9CoinStackC1EPKc
0000007100116FA0=_ZN9CoinStack4initERKN2al13ActorInitInfoE
00000071001171D0=_ZN9CoinStack18initAfterPlacementEv
0000007100117320=_ZN9CoinStack7controlEv
00000071001173A0=_ZN9CoinStack17makeActorAppearedEv
00000071001173F0=_ZN9CoinStack13makeActorDeadEv
0000007100117450=_ZN9CoinStack10receiveMsgEPKN2al9SensorMsgEPNS0_9HitSensorES5_
00000071001175B0=_ZN9CoinStack7exeWaitEv
00000071001176E0=_ZN9CoinStackD1Ev
00000071001176F0=_ZN9CoinStackD0Ev
0000007100117730=_ZNK2al10FunctorV0MIP9CoinStackMS1_FvvEEclEv
0000007100117750=_ZNK2al10FunctorV0MIP9CoinStackMS1_FvvEE5cloneEv
00000071001177A0=_ZN13CoinStackBaseC2EPKcbb
0000007100117880=_ZN13CoinStackBaseC1EPKcbb
0000007100117970=_ZN13CoinStackBase4initERKN2al13ActorInitInfoE
0000007100117A00=_ZN13CoinStackBase7controlEv
0000007100117A10=_ZN13CoinStackBase10receiveMsgEPKN2al9SensorMsgEPNS0_9HitSensorES5_
0000007100117B60=_ZN13CoinStackBase21receiveMsgScreenPointEPKN2al9SensorMsgEPNS0_13ScreenPointerEPNS0_17ScreenPointTargetE
0000007100117B80=_ZN13CoinStackBase12initPositionERKN4sead7Vector3IfEE
0000007100117C30=_ZN13CoinStackBase13initConnectorEPKN2al12MtxConnectorE
0000007100117C40=_ZN13CoinStackBase11requestFallEi
0000007100117CE0=_ZN13CoinStackBase13requestAppearEv
0000007100117CF0=_ZN13CoinStackBase7restoreEv
0000007100117D20=_ZN13CoinStackBase7exeWaitEv
0000007100117D60=_ZN13CoinStackBase12exeFloatWaitEv
0000007100117DA0=_ZN13CoinStackBase7exeFallEv
0000007100117EF0=_ZN13CoinStackBase5slideEv
0000007100117F60=_ZN13CoinStackBase7exeLandEv
0000007100117FE0=_ZN13CoinStackBaseD1Ev
0000007100117FF0=_ZN13CoinStackBaseD0Ev
0000007100118140=_ZN11CollectItemC2EPKcbbi
0000007100118220=_ZN11CollectItemC1EPKcbbi
0000007100118300=_ZN11CollectItem4initERKN2al13ActorInitInfoE
0000007100118680=_ZN11CollectItem14appearBySwitchEv
00000071001186F0=_ZN11CollectItem18initAfterPlacementEv
0000007100118790=_ZN11CollectItem15setStartMclAnimEv
0000007100118810=_ZN11CollectItem7controlEv
0000007100118880=_ZN11CollectItem10receiveMsgEPKN2al9SensorMsgEPNS0_9HitSensorES5_
0000007100118A60=_ZNK11CollectItem18isEnableMsgItemGetEPKN2al9SensorMsgE
0000007100118B20=_ZN11CollectItem5doGetEPN2al9HitSensorES2_
0000007100118C50=_ZN11CollectItem21receiveMsgScreenPointEPKN2al9SensorMsgEPNS0_13ScreenPointerEPNS0_17ScreenPointTargetE
0000007100118CC0=_ZN11CollectItem6appearEv
0000007100118CD0=_ZN11CollectItem13appearWithPosERKN4sead7Vector3IfEE
0000007100118D30=_ZN11CollectItem17applyPullOutNerveERKN4sead7Vector3IfEEPKc
0000007100118E00=_ZN11CollectItem16appearFrontNerveERKN4sead7Vector3IfEERK26ItemStateTakeOutFrontParam
0000007100118ED0=_ZN11CollectItem8exeBeginEv
0000007100118F10=_ZN11CollectItem7exeWaitEv
0000007100118F60=_ZN11CollectItem6exeGotEv
0000007100118FD0=_ZN11CollectItem10exePullOutEv
0000007100119010=_ZN11CollectItem9exeAppearEv
0000007100119070=_ZN11CollectItem16exeAppearTakeOutEv
0000007100119080=_ZN11CollectItem18exeTouchAppearWaitEv
00000071001190C0=_ZN11CollectItem17exeAppearBySwitchEv
0000007100119110=_ZN11CollectItem11exeSpinLoopEv
0000007100119190=_ZN11CollectItem11exeSpinOnceEv
0000007100119210=_ZN11CollectItem16exeSpinSpeedDownEv
00000071001192C0=_ZN11CollectItemD1Ev
00000071001192D0=_ZN11CollectItemD0Ev
0000007100119630=_ZNK2al10FunctorV0MIP11CollectItemMS1_FvvEEclEv
0000007100119650=_ZNK2al10FunctorV0MIP11CollectItemMS1_FvvEE5cloneEv
00000071001196E0=_ZN21CollectItemInfoKeeperC2Ev
0000007100119710=_ZN21CollectItemInfoKeeper26initAfterPlacementSceneObjERKN2al13ActorInitInfoE
00000071001197A0=_ZN21CollectItemInfoKeeper9declareIdEi
00000071001197E0=_ZN21CollectItemInfoKeeper9acquireIdEi
0000007100119830=_ZNK21CollectItemInfoKeeper16countAcquiredNumEv
00000071001198D0=_ZN2kp20declareCollectItemIdEPKN2al9LiveActorEi
0000007100119940=_ZN2kp20acquireCollectItemIdEPKN2al9LiveActorEi
00000071001199A0=_ZN2kp28isAcquiredCollectItemInSceneEPK11CollectItem
00000071001199B0=_ZN2kp25getAcquiredCollectItemNumEPKN2al9LiveActorE
0000007100119A80=_ZN2kp17getAcquirerSensorEPK11CollectItem
0000007100119A90=_ZNK21CollectItemInfoKeeper15getSceneObjNameEv
0000007100119AA0=_ZNK21CollectItemInfoKeeper17getSceneObjHolderEv
0000007100119AB0=_ZThn8_NK21CollectItemInfoKeeper17getSceneObjHolderEv
0000007100119AC0=_ZN11CollectRingC2EPKc
0000007100119B40=_ZN11CollectRingC1EPKc
0000007100119BC0=_ZN11CollectRing7setHostEP17CollectRingHolder
0000007100119BD0=_ZN11CollectRing20appearNumberCompleteEi
0000007100119C00=_ZN11CollectRing12appearNumberEi
0000007100119C30=_ZN11CollectRing4initERKN2al13ActorInitInfoE
0000007100119CB0=_ZN11CollectRing10receiveMsgEPKN2al9SensorMsgEPNS0_9HitSensorES5_
0000007100119D80=_ZN11CollectRing9exeAppearEv
0000007100119DE0=_ZN11CollectRing7exeWaitEv
0000007100119E20=_ZN11CollectRingD1Ev
0000007100119E30=_ZN11CollectRingD0Ev
0000007100119EA0=_ZN17CollectRingHolderC2EPKc
0000007100119F20=_ZN17CollectRingHolderC1EPKc
0000007100119FA0=_ZN17CollectRingHolder4initERKN2al13ActorInitInfoE
000000710011A120=_ZN17CollectRingHolder9noticeGetEP11CollectRing
000000710011A210=_ZN17CollectRingHolder10appearItemEP11CollectRing
000000710011A2A0=_ZN17CollectRingHolder12exeCountDownEv
000000710011A320=_ZN17CollectRingHolder6exeEndEv
000000710011A330=_ZN17CollectRingHolderD1Ev
000000710011A340=_ZN17CollectRingHolderD0Ev
000000710011A3F0=nullsub_85
000000710011A400=_ZN14CountDownTimerC2EPKc
000000710011A490=_ZN14CountDownTimerC1EPKc
000000710011A520=_ZN14CountDownTimer4initERKN2al13ActorInitInfoE
000000710011A620=_ZN14CountDownTimer11exeDeactiveEv
000000710011A660=_ZN14CountDownTimer9exeActiveEv
000000710011A830=_ZN14CountDownTimerD1Ev
000000710011A840=_ZN14CountDownTimerD0Ev
000000710011A8C0=_ZN4CrabC2EPKc
000000710011A9B0=_ZN4CrabC1EPKc
000000710011AAA0=_ZN4Crab4initERKN2al13ActorInitInfoE
000000710011AC60=_ZN4Crab10receiveMsgEPKN2al9SensorMsgEPNS0_9HitSensorES5_
000000710011ACF0=_ZN4Crab21receiveMsgScreenPointEPKN2al9SensorMsgEPNS0_13ScreenPointerEPNS0_17ScreenPointTargetE
000000710011AD70=_ZN4Crab7exeWaitEv
000000710011AE70=_ZN4Crab16setNextTargetPosEv
000000710011AF00=_ZN4Crab7exeWalkEv
000000710011B040=_ZN4Crab12exeDisappearEv
000000710011B130=_ZN4CrabD1Ev
000000710011B140=_ZN4CrabD0Ev
000000710011B1A0=_ZN15DarknessTrapGasC2EPKc
000000710011B240=_ZN15DarknessTrapGasC1EPKc
000000710011B2F0=_ZN15DarknessTrapGas4initERKN2al13ActorInitInfoE
000000710011B430=_ZN15DarknessTrapGas5startEv
000000710011B4D0=_ZN15DarknessTrapGas4killEv
000000710011B500=_ZN15DarknessTrapGas10receiveMsgEPKN2al9SensorMsgEPNS0_9HitSensorES5_
000000710011B570=_ZN15DarknessTrapGas17appearAndSetStartEv
000000710011B600=_ZN15DarknessTrapGas10exeStandByEv
000000710011B610=_ZN15DarknessTrapGas8exeDelayEv
000000710011B660=_ZN15DarknessTrapGas7exeWaitEv
000000710011B740=_ZN15DarknessTrapGas11exeMoveSignEv
000000710011B7A0=_ZN15DarknessTrapGas7exeMoveEv
000000710011B8E0=_ZN15DarknessTrapGas11exeStopSignEv
000000710011B940=_ZN15DarknessTrapGas7exeStopEv
000000710011B980=_ZN15DarknessTrapGasD1Ev
000000710011B990=_ZN15DarknessTrapGasD0Ev
000000710011B9C0=nullsub_86
000000710011BBC0=_ZNK2al10FunctorV0MIP15DarknessTrapGasMS1_FvvEEclEv
000000710011BBE0=_ZNK2al10FunctorV0MIP15DarknessTrapGasMS1_FvvEE5cloneEv
000000710011BCF0=_ZN27DarknessTrapKeyMoveMapPartsC2EPKc
000000710011BDC0=_ZN27DarknessTrapKeyMoveMapPartsC1EPKc
000000710011BEA0=_ZN27DarknessTrapKeyMoveMapParts4initERKN2al13ActorInitInfoE
000000710011C0B0=_ZN27DarknessTrapKeyMoveMapParts5startEv
000000710011C150=_ZN27DarknessTrapKeyMoveMapParts4stopEv
000000710011C220=_ZN27DarknessTrapKeyMoveMapParts10receiveMsgEPKN2al9SensorMsgEPNS0_9HitSensorES5_
000000710011C320=_ZN27DarknessTrapKeyMoveMapParts7controlEv
000000710011C380=_ZN27DarknessTrapKeyMoveMapParts17appearAndSetStartEv
000000710011C410=_ZN27DarknessTrapKeyMoveMapParts10exeStandByEv
000000710011C420=_ZN27DarknessTrapKeyMoveMapParts8exeDelayEv
000000710011C470=_ZN27DarknessTrapKeyMoveMapParts7exeWaitEv
000000710011C550=_ZN27DarknessTrapKeyMoveMapParts11exeMoveSignEv
000000710011C5B0=_ZN27DarknessTrapKeyMoveMapParts7exeMoveEv
000000710011C810=_ZN27DarknessTrapKeyMoveMapParts11exeStopSignEv
000000710011C870=_ZN27DarknessTrapKeyMoveMapParts7exeStopEv
000000710011C900=_ZN27DarknessTrapKeyMoveMapPartsD1Ev
000000710011C910=_ZN27DarknessTrapKeyMoveMapPartsD0Ev
000000710011C940=nullsub_87
000000710011CB90=_ZNK2al10FunctorV0MIP27DarknessTrapKeyMoveMapPartsMS1_FvvEEclEv
000000710011CBB0=_ZNK2al10FunctorV0MIP27DarknessTrapKeyMoveMapPartsMS1_FvvEE5cloneEv
000000710011CCC0=_ZN23DarknessTrapSeesawPartsC2EPKc
000000710011CDA0=_ZN23DarknessTrapSeesawPartsC1EPKc
000000710011CE80=_ZN23DarknessTrapSeesawParts4initERKN2al13ActorInitInfoE
000000710011CFB0=_ZN23DarknessTrapSeesawParts18initAfterPlacementEv
000000710011CFD0=_ZN23DarknessTrapSeesawParts7controlEv
000000710011D020=_ZN23DarknessTrapSeesawParts10receiveMsgEPKN2al9SensorMsgEPNS0_9HitSensorES5_
000000710011D150=_ZN23DarknessTrapSeesawParts7exeWaitEv
000000710011D380=_ZN23DarknessTrapSeesawPartsD1Ev
000000710011D390=_ZN23DarknessTrapSeesawPartsD0Ev
000000710011D420=_ZN17DarknessTrapTowerC2EPKc
000000710011D4C0=_ZN17DarknessTrapTowerC1EPKc
000000710011D560=_ZN17DarknessTrapTower4initERKN2al13ActorInitInfoE
000000710011D6B0=_ZN17DarknessTrapTower5startEv
000000710011D750=_ZN17DarknessTrapTower13stopPartsAnimEv
000000710011D760=_ZN17DarknessTrapTower10receiveMsgEPKN2al9SensorMsgEPNS0_9HitSensorES5_
000000710011D7D0=_ZN17DarknessTrapTower17appearAndSetStartEv
000000710011D860=_ZN17DarknessTrapTower10exeStandByEv
000000710011D8A0=_ZN17DarknessTrapTower8exeDelayEv
000000710011D8F0=_ZN17DarknessTrapTower7exeWaitEv
000000710011D9D0=_ZN17DarknessTrapTower11exeMoveSignEv
000000710011DA30=_ZN17DarknessTrapTower7exeMoveEv
000000710011DB80=_ZN17DarknessTrapTower11exeStopSignEv
000000710011DBE0=_ZN17DarknessTrapTower7exeStopEv
000000710011DC20=_ZN17DarknessTrapTowerD1Ev
000000710011DC30=_ZN17DarknessTrapTowerD0Ev
000000710011DE90=_ZNK2al10FunctorV0MIP17DarknessTrapTowerMS1_FvvEEclEv
000000710011DEB0=_ZNK2al10FunctorV0MIP17DarknessTrapTowerMS1_FvvEE5cloneEv
000000710011DFC0=_ZN9DashPanelC2EPKc
000000710011E050=_ZN9DashPanelC1EPKc
000000710011E0E0=_ZN9DashPanel4initERKN2al13ActorInitInfoE
000000710011E1B0=_ZN9DashPanel18initAfterPlacementEv
000000710011E1D0=_ZN9DashPanel12attackSensorEPN2al9HitSensorES2_
000000710011E410=_ZN9DashPanel7controlEv
000000710011E470=_ZN9DashPanelD1Ev
000000710011E480=_ZN9DashPanelD0Ev
000000710011E4B0=_ZN25DashPanelSeTriggerCheckerC2Ev
000000710011E4C0=_ZN25DashPanelSeTriggerChecker4initEii
000000710011E560=_ZN25DashPanelSeTriggerChecker6updateEv
000000710011E5B0=_ZN25DashPanelSeTriggerChecker10tryTriggerEi
000000710011E630=_ZN15DeadSyncWatcherC2EPKc
000000710011E6B0=_ZN15DeadSyncWatcherC1EPKc
000000710011E730=_ZN15DeadSyncWatcher4initERKN2al13ActorInitInfoE
000000710011E860=_ZN15DeadSyncWatcher6appearEv
000000710011E8C0=_ZN15DeadSyncWatcher4killEv
000000710011E930=_ZN15DeadSyncWatcher10receiveMsgEPKN2al9SensorMsgEPNS0_9HitSensorES5_
000000710011E980=_ZN15DeadSyncWatcher8exeWatchEv
000000710011E9E0=_ZN15DeadSyncWatcherD1Ev
000000710011E9F0=_ZN15DeadSyncWatcherD0Ev
000000710011EA80=_ZN5DokanC2EPKc
000000710011EB40=_ZN5DokanC1EPKc
000000710011EC00=_ZN5Dokan4initERKN2al13ActorInitInfoE
000000710011F280=_ZN5Dokan14appearBySwitchEv
000000710011F2C0=_ZN5Dokan8activateEv
000000710011F2D0=_ZN5Dokan18initAfterPlacementEv
000000710011F2E0=_ZN5Dokan10receiveMsgEPKN2al9SensorMsgEPNS0_9HitSensorES5_
000000710011F640=_ZNK5Dokan13isTypeOutOnlyEv
000000710011F650=_ZN5Dokan13isEnableEnterEv
000000710011F6B0=_ZN5Dokan9setLayoutEPKN2al9HitSensorE
000000710011F760=_ZNK5Dokan12getPuppeteerEPKN2al9HitSensorE
000000710011F770=_ZN5Dokan7controlEv
000000710011F800=_ZN5Dokan13appearOutOnlyEv
000000710011F840=_ZN5Dokan16disappearOutOnlyEv
000000710011F850=_ZNK5Dokan6isWaitEv
000000710011F860=_ZN5Dokan15updatePuppeteerEv
000000710011F870=_ZNK5Dokan11isWarpStartEv
000000710011F930=_ZN5Dokan7tryWarpEv
000000710011F9F0=_ZN5Dokan21isFinishWaitOutCameraEv
000000710011FA30=_ZN5Dokan7exeWaitEv
000000710011FA80=_ZN5Dokan9exeAppearEv
000000710011FB10=_ZN5Dokan12exeDisappearEv
000000710011FB90=_ZN5Dokan11exePlayerInEv
000000710011FD90=_ZN5Dokan26exePlayerOutWithCameraWaitEv
000000710011FEB0=_ZN5Dokan12exePlayerOutEv
0000007100120120=_ZN5Dokan22exeWaitAppearDestDokanEv
0000007100120290=_ZN5Dokan11exeDeactiveEv
00000071001202A0=_ZN5Dokan12exeGiantBlowEv
0000007100120300=_ZN5DokanD1Ev
0000007100120310=_ZN5DokanD0Ev
00000071001203F0=nullsub_88
00000071001204F0=_ZNK2al10FunctorV0MIP5DokanMS1_FvvEEclEv
0000007100120510=_ZNK2al10FunctorV0MIP5DokanMS1_FvvEE5cloneEv
0000007100120560=_ZN18DokanBindPuppeteerC2EPKcbb
0000007100120620=_ZN18DokanBindPuppeteer4initERKN2al13ActorInitInfoE
0000007100120670=_ZN18DokanBindPuppeteer9startBindEPN2al9HitSensorES2_PKNS0_9LiveActorEPK5Dokanb
00000071001208A0=_ZN18DokanBindPuppeteer18startBindWorldWarpEPN2al9HitSensorES2_PKNS0_9LiveActorEb
0000007100120A30=_ZN18DokanBindPuppeteer7endBindEPK18PlayerBindEndParam
0000007100120AD0=_ZN18DokanBindPuppeteer10cancelBindEv
0000007100120B10=_ZN18DokanBindPuppeteer6updateEv
0000007100120B20=_ZN18DokanBindPuppeteer19setOnPlayerCountMaxEv
0000007100120B30=_ZNK18DokanBindPuppeteer10isDeactiveEv
0000007100120B40=_ZNK18DokanBindPuppeteer17isEnableStartBindEbb
0000007100120BB0=_ZNK18DokanBindPuppeteer15isWaitStartWarpEv
0000007100120BC0=_ZNK18DokanBindPuppeteer20isWaitStartWorldWarpEv
0000007100120BD0=_ZN18DokanBindPuppeteer4warpEii
0000007100120D30=_ZN18DokanBindPuppeteer8dokanOutEv
0000007100120D40=_ZNK18DokanBindPuppeteer21getDokanOutActionNameEv
0000007100120D80=_ZN18DokanBindPuppeteer11exeDeactiveEv
0000007100120DA0=_ZN18DokanBindPuppeteer14exeDokanInMoveEv
0000007100120EA0=_ZN18DokanBindPuppeteer14exeDokanInDownEv
0000007100120FB0=_ZN18DokanBindPuppeteer16exeWaitStartWarpEv
0000007100120FF0=_ZN18DokanBindPuppeteer16exeForceBindWarpEv
0000007100121090=_ZN18DokanBindPuppeteer19exeForceBindWarpEndEv
00000071001210F0=_ZN18DokanBindPuppeteer20exeWaitStartDokanOutEv
00000071001211A0=_ZN18DokanBindPuppeteer13exeDokanOutUpEv
00000071001212C0=_ZN18DokanBindPuppeteer21exeWaitStartWorldWarpEv
00000071001212D0=_ZN18DokanBindPuppeteerD0Ev
0000007100121300=_ZNK18PlayerBindEndParam27checkDerivedRuntimeTypeInfoEPKN4sead15RuntimeTypeInfo9InterfaceE
0000007100121380=_ZNK18PlayerBindEndParam18getRuntimeTypeInfoEv
0000007100121470=nullsub_89
0000007100121520=_ZN7DoorKeyC2EPKc
00000071001215E0=_ZN7DoorKeyC1EPKc
00000071001216B0=_ZN7DoorKey4initERKN2al13ActorInitInfoE
0000007100121830=_ZN7DoorKey14updateColliderEv
0000007100121880=_ZN7DoorKey12attackSensorEPN2al9HitSensorES2_
0000007100121C20=_ZN7DoorKey8throwKeyEPN2al9HitSensorE
0000007100121C80=_ZN7DoorKey10receiveMsgEPKN2al9SensorMsgEPNS0_9HitSensorES5_
0000007100122010=_ZN7DoorKey9killForceEv
0000007100122060=_ZN7DoorKey19updateOpenThrowPoseEi
0000007100122120=_ZN7DoorKey16appearPopUpAboveEv
0000007100122160=_ZNK7DoorKey12isAppearNextEv
00000071001221C0=_ZN7DoorKey7exeWaitEv
0000007100122360=_ZN7DoorKey21tryKillBySandwichWallEv
00000071001227F0=_ZN7DoorKey13exePlayerHoldEv
0000007100122C00=_ZN7DoorKey10releaseKeyEv
0000007100122C50=_ZN7DoorKey8exeThrowEv
0000007100122CD0=_ZN7DoorKey12exeOpenThrowEv
0000007100122D10=_ZN7DoorKey14exePopUpAppearEv
0000007100122DA0=_ZN7DoorKey12exeDisAppearEv
0000007100122E20=_ZN7DoorKeyD1Ev
0000007100122E30=_ZN7DoorKeyD0Ev
0000007100123160=_ZN8DoorLockC2EPKc
00000071001231E0=_ZN8DoorLockC1EPKc
0000007100123260=_ZN8DoorLock4initERKN2al13ActorInitInfoE
0000007100123350=_ZN8DoorLock18initAfterPlacementEv
0000007100123370=_ZN8DoorLock7controlEv
0000007100123380=_ZN8DoorLock12attackSensorEPN2al9HitSensorES2_
0000007100123410=_ZN8DoorLock10receiveMsgEPKN2al9SensorMsgEPNS0_9HitSensorES5_
0000007100123500=_ZN8DoorLock12exeCloseWaitEv
0000007100123540=_ZN8DoorLock19exeWaitKeyDisappearEv
00000071001235A0=_ZN8DoorLock7exeOpenEv
0000007100123660=_ZN8DoorLock11exeOpenWaitEv
00000071001236B0=_ZN8DoorLockD1Ev
00000071001236C0=_ZN8DoorLockD0Ev
00000071001237F0=_ZN10DotKinopioC2EPKc
0000007100123900=_ZN10DotKinopioC1EPKc
0000007100123A20=_ZN10DotKinopio4initERKN2al13ActorInitInfoE
0000007100123DF0=_ZN10DotKinopio8validateEv
0000007100123E00=_ZN10DotKinopio17invalidateByTimerEv
0000007100123E20=_ZN10DotKinopio18initAfterPlacementEv
0000007100123F00=_ZN10DotKinopio10receiveMsgEPKN2al9SensorMsgEPNS0_9HitSensorES5_
0000007100124120=_ZN10DotKinopio21receiveMsgScreenPointEPKN2al9SensorMsgEPNS0_13ScreenPointerEPNS0_17ScreenPointTargetE
0000007100124210=_ZN10DotKinopio7controlEv
0000007100124280=_ZN10DotKinopio7exeWaitEv
00000071001242C0=_ZN10DotKinopio9hereVoiceEv
0000007100124440=_ZN10DotKinopio11exeRailMoveEv
00000071001246A0=_ZN10DotKinopio11exeRailJumpEv
0000007100124800=_ZN10DotKinopio8exeTouchEv
00000071001248B0=_ZN10DotKinopio14exeShowMessageEv
0000007100124990=_ZN10DotKinopio14exeRadishTouchEv
0000007100124B20=_ZN10DotKinopio6exeEndEv
0000007100124F80=_ZN10DotKinopioD1Ev
0000007100124F90=_ZN10DotKinopioD0Ev
0000007100125060=_ZNK2al10FunctorV0MIP10DotKinopioMS1_FvvEEclEv
0000007100125080=_ZNK2al10FunctorV0MIP10DotKinopioMS1_FvvEE5cloneEv
00000071001250D0=_ZN9DotRadishC2EPKc
00000071001251A0=_ZN9DotRadishC1EPKc
0000007100125280=_ZN9DotRadish4initERKN2al13ActorInitInfoE
0000007100125480=_ZN9DotRadish8validateEv
0000007100125490=_ZN9DotRadish17invalidateByTimerEv
00000071001254B0=_ZN9DotRadish18initAfterPlacementEv
0000007100125590=_ZN9DotRadish21receiveMsgScreenPointEPKN2al9SensorMsgEPNS0_13ScreenPointerEPNS0_17ScreenPointTargetE
0000007100125720=_ZN9DotRadish7controlEv
00000071001257D0=_ZN9DotRadish9exeAppearEv
00000071001258A0=_ZN9DotRadish7exeWaitEv
00000071001258E0=_ZN9DotRadish11exeRailMoveEv
0000007100125B40=_ZN9DotRadish11exeRailJumpEv
0000007100125CA0=_ZN9DotRadish8exeTouchEv
0000007100125D20=_ZN9DotRadish18exeNotInSharedPlayEv
0000007100125D80=_ZN9DotRadishD1Ev
0000007100125D90=_ZN9DotRadishD0Ev
0000007100125F10=_ZNK2al10FunctorV0MIP9DotRadishMS1_FvvEEclEv
0000007100125F30=_ZNK2al10FunctorV0MIP9DotRadishMS1_FvvEE5cloneEv
0000007100125F80=_ZN11DoubleMarioC2EPKcP10ItemBubbleb
0000007100126020=_ZN11DoubleMarioC1EPKcP10ItemBubbleb
00000071001260C0=_ZN11DoubleMario4initERKN2al13ActorInitInfoE
0000007100126210=_ZN11DoubleMario18initAfterPlacementEv
0000007100126270=_ZN11DoubleMario18makeActorDisappearEv
00000071001262B0=_ZN11DoubleMario17makeActorReappearEv
0000007100126320=_ZN11DoubleMario18playReappearEffectEv
0000007100126360=_ZN11DoubleMario6appearEv
00000071001263C0=_ZN11DoubleMario4killEv
0000007100126400=_ZN11DoubleMario7controlEv
0000007100126490=_ZN11DoubleMario12attackSensorEPN2al9HitSensorES2_
0000007100126540=_ZN11DoubleMario10receiveMsgEPKN2al9SensorMsgEPNS0_9HitSensorES5_
0000007100126800=_ZN11DoubleMario21receiveMsgScreenPointEPKN2al9SensorMsgEPNS0_13ScreenPointerEPNS0_17ScreenPointTargetE
0000007100126810=_ZN11DoubleMario16appearPopUpFrontEv
0000007100126870=_ZN11DoubleMario15setSensorRadiusEf
0000007100126880=_ZN11DoubleMario19restoreSensorRadiusEv
0000007100126890=_ZN11DoubleMario7exeWaitEv
00000071001268E0=_ZN11DoubleMario15exeAttachBubbleEv
0000007100126950=_ZN11DoubleMario13exePopUpFrontEv
0000007100126980=_ZN11DoubleMario7exeLandEv
00000071001269F0=_ZN11DoubleMario11exeLandWaitEv
0000007100126A40=_ZN11DoubleMario19exeItemGetAfterWaitEv
0000007100126A90=_ZN11DoubleMarioD1Ev
0000007100126AA0=_ZN11DoubleMarioD0Ev
0000007100126CE0=_ZNK2al10FunctorV0MIP11DoubleMarioMS1_FvvEEclEv
0000007100126D00=_ZNK2al10FunctorV0MIP11DoubleMarioMS1_FvvEE5cloneEv
0000007100126DC0=_ZN18DoubleMarioWatcherC2EPKc
0000007100126E40=_ZN18DoubleMarioWatcherC1EPKc
0000007100126ED0=_ZN18DoubleMarioWatcher4initERKN2al13ActorInitInfoE
0000007100127000=_ZN18DoubleMarioWatcher24calcAppearDoubleMarioNumERKN2al13ActorInitInfoE
0000007100127010=_ZN18DoubleMarioWatcher7controlEv
0000007100127200=_ZN18DoubleMarioWatcher12disappearAllEv
0000007100127270=_ZN18DoubleMarioWatcher9appearAllEv
00000071001273C0=_ZN18DoubleMarioWatcher18isInPlayerPositionERKN4sead7Vector3IfEE
0000007100127490=_ZN18DoubleMarioWatcherD1Ev
00000071001274A0=_ZN18DoubleMarioWatcherD0Ev
00000071001274D0=_ZN18DrcTouchAssistInfoC1EbbbRKN4sead7Vector3IfEERKNS0_7Vector2IfEE
0000007100127550=_ZN18DrcTouchAssistInfo5resetEv
00000071001275B0=_ZN17DrcAssistDirectorC2Ei
0000007100127660=_ZN17DrcAssistDirector26initAfterPlacementSceneObjERKN2al13ActorInitInfoE
0000007100127830=_ZN17DrcAssistDirector23controllerEventCallbackEiPv
0000007100127850=_ZN17DrcAssistDirector17checkPreStartPoseEv
0000007100127910=_ZN17DrcAssistDirector15doCheckPoseImplEb
00000071001279F0=_ZN17DrcAssistDirector6updateEv
00000071001287C0=_ZN17DrcAssistDirector27disappearTouchPointerEffectEv
00000071001287D0=_ZNK17DrcAssistDirector13isPoseExtremeEPN4sead7Vector3IfEERKS2_S5_
00000071001289E0=_ZN17DrcAssistDirector19calcJoyConBaseAngleEv
0000007100128BD0=_ZN17DrcAssistDirector19calcJoyConDiffAngleEv
0000007100128ED0=_ZN17DrcAssistDirector19calcOffscreenAmountERN4sead7Vector2IfEERKS2_S5_S5_
0000007100128F40=_ZN17DrcAssistDirector20updateZeroPushAmountERKN4sead7Vector2IfEES4_S4_S4_
0000007100129170=_ZN17DrcAssistDirector22activateTurnipLauncherEP18TruckBindPuppeteer
00000071001291B0=_ZN17DrcAssistDirector24deactivateTurnipLauncherEv
00000071001291F0=_ZN17DrcAssistDirector8validateEv
0000007100129200=_ZN17DrcAssistDirector10invalidateEbb
0000007100129280=_ZN17DrcAssistDirector21disappearTouchPointerEv
00000071001292D0=_ZN17DrcAssistDirector19invalidateImmediateEv
0000007100129340=_ZN17DrcAssistDirector32disappearTouchPointerImmediatelyEv
00000071001293B0=_ZNK17DrcAssistDirector7isValidEv
00000071001293C0=_ZNK17DrcAssistDirector7isTouchEv
00000071001293D0=_ZNK17DrcAssistDirector7isTouchERKN4sead7Vector3IfEEf
0000007100129410=_ZNK17DrcAssistDirector14isTouchTriggerERKN4sead7Vector3IfEEf
0000007100129450=_ZNK17DrcAssistDirector20isEnableTouchPointerEv
0000007100129470=_ZNK17DrcAssistDirector28isEnableTouchPointerGrabItemEPKN2al9LiveActorE
0000007100129480=_ZN17DrcAssistDirector19getTouchControlModeEv
0000007100129490=_ZN17DrcAssistDirector19incTouchControlModeEv
00000071001294A0=_ZN17DrcAssistDirector19toggleTouchDisabledEv
00000071001294C0=_ZN17DrcAssistDirector16setTouchDisabledEb
00000071001294E0=_ZN17DrcAssistDirector15isTouchDisabledEv
0000007100129500=_ZN17DrcAssistDirector18getTouchAssistInfoEv
0000007100129510=_ZNK17DrcAssistDirector18getTouchAssistInfoEv
0000007100129520=_ZNK17DrcAssistDirector16isCursorFadedOutEv
0000007100129540=_ZN17DrcAssistDirector27releaseTouchPointerHoldItemEv
0000007100129580=_ZN17DrcAssistDirector17toggleTouchEffectEv
00000071001295C0=_ZNK17DrcAssistDirector15getTouchIconPosEv
00000071001295D0=_ZNK17DrcAssistDirector23getTouchPointerPositionEv
0000007100129610=_ZNK17DrcAssistDirector15getTouchPointerEv
0000007100129620=_ZN17DrcAssistDirector21calcTouchPointerUpDirEPN4sead7Vector3IfEE
0000007100129650=_ZN17DrcAssistDirector35tryCalcTouchPointerSlideDirOnScreenEPN4sead7Vector2IfEE
0000007100129680=_ZN17DrcAssistDirector34tryCalcTouchPointerSlideDirOnWorldEPN4sead7Vector3IfEEPKN2al10IUseCameraE
0000007100129900=_ZN17DrcAssistDirector16stopRadishBulletEv
0000007100129910=_ZN17DrcAssistDirector24deleteTouchPointerEffectEv
0000007100129930=_ZNK17DrcAssistDirector15calcScreenAngleEiPKN4sead7Vector3IfEEPS2_
00000071001299E0=_ZNK17DrcAssistDirector15unrotatePoseMtxEifPN4sead8Matrix34IfEE
0000007100129BF0=_ZNK17DrcAssistDirector19getPadTypeFrontAxisEiPN4sead7Vector3IfEE
0000007100129C70=_ZN21DrcAssistDirectorListC2Ei
0000007100129D60=_ZN21DrcAssistDirectorList14addTouchAssistEi
0000007100129E60=_ZN21DrcAssistDirectorList26initAfterPlacementSceneObjERKN2al13ActorInitInfoE
0000007100129EC0=_ZN21DrcAssistDirectorList15setPlayerHolderEPN2al12PlayerHolderE
0000007100129EF0=_ZN21DrcAssistDirectorList17removeTouchAssistEi
0000007100129F70=_ZN21DrcAssistDirectorList6updateEv
0000007100129FC0=_ZN21DrcAssistDirectorList16setTouchDisabledEb
000000710012A000=_ZN21DrcAssistDirectorList21disappearTouchPointerEv
000000710012A070=_ZN21DrcAssistDirectorList32disappearTouchPointerImmediatelyEv
000000710012A100=_ZN21DrcAssistDirectorList27disappearTouchPointerEffectEv
000000710012A150=_ZN21DrcAssistDirectorList24deactivateTurnipLauncherEv
000000710012A1C0=_ZN21DrcAssistDirectorList8validateEv
000000710012A200=_ZN21DrcAssistDirectorList10invalidateEbb
000000710012A320=_ZN21DrcAssistDirectorList19invalidateImmediateEv
000000710012A3B0=_ZN21DrcAssistDirectorList17checkPreStartPoseEv
000000710012A4C0=_ZN21DrcAssistDirectorList7isTouchEv
000000710012A510=_ZNK21DrcAssistDirectorList7isTouchERKN4sead7Vector3IfEEf
000000710012A5B0=_ZNK21DrcAssistDirectorList14isTouchTriggerERKN4sead7Vector3IfEEf
000000710012A650=_ZNK21DrcAssistDirectorList20isEnableTouchPointerEv
000000710012A6A0=_ZNK21DrcAssistDirectorList28isEnableTouchPointerGrabItemEPKN2al9LiveActorE
000000710012A720=_ZN21DrcAssistDirectorList27releaseTouchPointerHoldItemEv
000000710012A790=_ZNK21DrcAssistDirectorList23getTouchPointerPositionEPKN2al18IUseSceneObjHolderE
000000710012A7F0=_ZNK21DrcAssistDirectorList23getTouchPointerPositionEPKN2al9LiveActorE
000000710012A850=_ZNK21DrcAssistDirectorList25getTouchedPointerPositionEPKN2al9LiveActorE
000000710012A8B0=_ZNK21DrcAssistDirectorList15getTouchPointerEv
000000710012A8F0=_ZN21DrcAssistDirectorList21calcTouchPointerUpDirEPN4sead7Vector3IfEE
000000710012A960=_ZN21DrcAssistDirectorList35tryCalcTouchPointerSlideDirOnScreenEPN4sead7Vector2IfEE
000000710012A9D0=_ZN21DrcAssistDirectorList34tryCalcTouchPointerSlideDirOnWorldEPN4sead7Vector3IfEEPKN2al10IUseCameraE
000000710012AA00=_ZN21DrcAssistDirectorList16stopRadishBulletEv
000000710012AA50=_ZN21DrcAssistDirectorList12getDrcAssistEi
000000710012AA90=_ZN2kp22activateTurnipLauncherEPKN2al18IUseSceneObjHolderEiP18TruckBindPuppeteer
000000710012AB30=_ZN2kp24deactivateTurnipLauncherEPKN2al18IUseSceneObjHolderEi
000000710012AC10=_ZN2kp17validateDrcAssistEPKN2al18IUseSceneObjHolderE
000000710012AC60=_ZN2kp19invalidateDrcAssistEPKN2al18IUseSceneObjHolderEbb
000000710012AC90=_ZN2kp17setValidDrcAssistEPKN2al18IUseSceneObjHolderEbb
000000710012AD10=_ZN2kp17setValidDrcAssistEPKN2al18IUseSceneObjHolderEbbi
000000710012ADF0=_ZN2kp28invalidateDrcAssistImmediateEPKN2al18IUseSceneObjHolderE
000000710012AE90=_ZN2kp26checkPreStartDrcAssistPoseEPKN2al18IUseSceneObjHolderE
000000710012AFA0=_ZN2kp23updateDrcAssistDirectorEPKN2al18IUseSceneObjHolderE
000000710012AFF0=_ZN2kp16isTouchDrcAssistEPKN2al9LiveActorE
000000710012B060=_ZN2kp16isTouchDrcAssistEPKN2al9LiveActorERKN4sead7Vector3IfEEf
000000710012B120=_ZN2kp23isTouchTriggerDrcAssistEPKN2al9LiveActorERKN4sead7Vector3IfEEf
000000710012B1E0=_ZN2kp20isEnableTouchPointerEPKN2al9LiveActorE
000000710012B260=_ZN2kp20isEnableTouchPointerEPKN2al18IUseSceneObjHolderE
000000710012B2D0=_ZN2kp28isEnableTouchPointerGrabItemEPKN2al9LiveActorE
000000710012B360=_ZN2kp27releaseTouchPointerHoldItemEPKN2al9LiveActorE
000000710012B3E0=_ZN2kp27releaseTouchPointerHoldItemEPKN2al18IUseSceneObjHolderE
000000710012B450=_ZN2kp16stopRadishBulletEPKN2al9LiveActorE
000000710012B4B0=_ZN2kp15getTouchPointerEPKN2al9LiveActorE
000000710012B510=_ZN2kp23getTouchPointerPositionEPKN2al9LiveActorE
000000710012B5C0=_ZN2kp25getTouchedPointerPositionEPKN2al9LiveActorE
000000710012B660=_ZN2kp23getTouchPointerPositionEPKN2al18IUseSceneObjHolderE
000000710012B700=_ZN2kp21calcTouchPointerUpDirEPN4sead7Vector3IfEEPKN2al9LiveActorE
000000710012B780=_ZN2kp35tryCalcTouchPointerSlideDirOnScreenEPN4sead7Vector2IfEEPKN2al9LiveActorE
000000710012B830=_ZN2kp34tryCalcTouchPointerSlideDirOnWorldEPN4sead7Vector3IfEEPKN2al9LiveActorE
000000710012B860=_ZN2kp37tryCalcTouchPointerSlideSpeedOnScreenEPKN2al9LiveActorE
000000710012B8F0=_ZNK17DrcAssistDirector17getSceneObjHolderEv
000000710012B900=_ZNK17DrcAssistDirector17getCameraDirectorEv
000000710012B910=_ZThn8_NK17DrcAssistDirector17getCameraDirectorEv
000000710012B920=_ZNK21DrcAssistDirectorList15getSceneObjNameEv
000000710012B930=_ZN17DrcCursorLauncherC2EP18DrcTouchAssistInfo
000000710012B9A0=_ZN17DrcCursorLauncher4initERKN2al13ActorInitInfoE
000000710012BE40=_ZN17DrcCursorLauncher6updateEv
000000710012BE50=_ZN17DrcCursorLauncher16stopRadishBulletEv
000000710012BF30=_ZN17DrcCursorLauncher14addLimitedAmmoEi
000000710012BF50=_ZN17DrcCursorLauncher7exeWaitEv
000000710012BF80=_ZN17DrcCursorLauncher5exeOnEv
000000710012C180=_ZN17DrcCursorLauncher19findAvailableBulletEPP17RadishBulletParam
000000710012C270=_ZN17DrcCursorLauncher14calcLaunchInfoEi
000000710012C550=_ZN2kp28getCursorLauncherCameraIndexEPKN2al18IUseSceneObjHolderE
000000710012C5A0=_ZN17DrcCursorLauncher9exeChargeEv
000000710012C6D0=_ZN17DrcCursorLauncher14calcChargeInfoEiiib
000000710012C970=_ZN17DrcCursorLauncher26setSubjectiveCameraIsTruckEb
000000710012C980=_ZN2kp29cursorLauncherIsDotRadishModeEPKN2al18IUseSceneObjHolderE
000000710012C990=_ZN2kp31cursorLauncherIsDotRadishLoadedEPKN2al18IUseSceneObjHolderE
000000710012C9A0=_ZN2kp30tryAddCursorLauncherAmmoAmountEPKN2al18IUseSceneObjHolderEi
000000710012CA10=_ZN2kp33tryAddCursorLauncherAmmoDotRadishEPKN2al18IUseSceneObjHolderEi
000000710012CA80=_ZN2kp40setCursorLauncherSubjectiveCameraIsTruckEPKN2al18IUseSceneObjHolderEb
000000710012CAD0=_ZNK17DrcCursorLauncher17getCameraDirectorEv
000000710012CAE0=_ZNK17DrcCursorLauncher14getNerveKeeperEv
000000710012CAF0=_ZNK17DrcCursorLauncher17getSceneObjHolderEv
000000710012CB00=_ZThn8_NK17DrcCursorLauncher14getNerveKeeperEv
000000710012CB10=_ZThn16_NK17DrcCursorLauncher17getSceneObjHolderEv
000000710012CB60=_ZN15DrcTouchCheckerC1EPN2al15SceneCameraInfoE
000000710012CB90=_ZN15DrcTouchChecker6updateEv
000000710012CC70=_ZNK15DrcTouchChecker13isTouchSphereERKN4sead7Vector3IfEEfPf
000000710012CD40=_ZN15DrcTouchPointerC2EPKcP18DrcTouchAssistInfoi
000000710012CF10=_ZN15DrcTouchPointerC1EPKcP18DrcTouchAssistInfoi
000000710012D0F0=_ZN15DrcTouchPointer4initERKN2al13ActorInitInfoE
000000710012D210=_ZN15DrcTouchPointer11startAppearEv
000000710012D360=_ZN15DrcTouchPointer14checkTouchFlagEv
000000710012DDB0=_ZN15DrcTouchPointer11updateNerveEj
000000710012E1C0=_ZN15DrcTouchPointer14startDisappearEv
000000710012E340=_ZN15DrcTouchPointer14clearTouchFlagEv
000000710012E350=_ZNK15DrcTouchPointer10isItemGrabEv
000000710012E3B0=_ZN15DrcTouchPointer19startDisappearForceEv
000000710012E400=_ZN15DrcTouchPointer12startReleaseEv
000000710012E4A0=_ZN15DrcTouchPointer12exePointWaitEv
000000710012E560=_ZN15DrcTouchPointer15exeObjPointWaitEv
000000710012E5C0=_ZN15DrcTouchPointer12exeDisappearEv
000000710012E6B0=_ZN15DrcTouchPointer16exeGrabItemStartEv
000000710012E7B0=_ZN15DrcTouchPointer11exeGrabItemEv
000000710012E890=_ZN15DrcTouchPointer14exeReleaseItemEv
000000710012E910=_ZN15DrcTouchPointer12exeThrowItemEv
000000710012E980=_ZN15DrcTouchPointer9exeStrokeEv
000000710012E9E0=_ZN15DrcTouchPointer7exeHoldEv
000000710012EA40=_ZN15DrcTouchPointer8exeKnockEv
000000710012EB70=_ZN15DrcTouchPointer12exeBurnStartEv
000000710012EBE0=_ZN15DrcTouchPointer7exeBurnEv
000000710012EC40=_ZNK15DrcTouchPointer16isEnableGrabItemEPKN2al9LiveActorE
000000710012ECD0=_ZN15DrcTouchPointer16checkTouchFlagBCEj
000000710012F790=_ZN2al9SensorMsgD2Ev
000000710012F7A0=_ZN15DrcTouchPointer16releaseHeldActorEv
000000710012F7C0=_ZN15DrcTouchPointer18checkTouchFlagHOLDEj
000000710012FC00=_ZN15DrcTouchPointer17checkTouchFlagOrgEj
0000007100130930=_ZN15DrcTouchPointer19calcHitPosAndNormalEv
0000007100130B70=_ZN15DrcTouchPointer19incTouchControlModeEv
0000007100130B90=_ZN15DrcTouchPointerD1Ev
0000007100130BA0=_ZN15DrcTouchPointerD0Ev
0000007100130E70=_ZNK2al25SensorMsgTouchReleaseItem27checkDerivedRuntimeTypeInfoEPKN4sead15RuntimeTypeInfo9InterfaceE
0000007100130F70=_ZNK2al25SensorMsgTouchReleaseItem18getRuntimeTypeInfoEv
0000007100130FE0=_ZN2al25SensorMsgTouchReleaseItemD0Ev
0000007100130FF0=_ZNK4sead15RuntimeTypeInfo6DeriveIN2al9SensorMsgEE9isDerivedEPKNS0_9InterfaceE
00000071001310B0=_ZNK2kp24SensorMsgDotKinopioTouch27checkDerivedRuntimeTypeInfoEPKN4sead15RuntimeTypeInfo9InterfaceE
00000071001311B0=_ZNK2kp24SensorMsgDotKinopioTouch18getRuntimeTypeInfoEv
0000007100131220=_ZN2kp24SensorMsgDotKinopioTouchD0Ev
0000007100131230=_ZNK2al24SensorMsgTouchAssistTrig27checkDerivedRuntimeTypeInfoEPKN4sead15RuntimeTypeInfo9InterfaceE
0000007100131330=_ZNK2al24SensorMsgTouchAssistTrig18getRuntimeTypeInfoEv
00000071001313A0=_ZN2al24SensorMsgTouchAssistTrigD0Ev
00000071001313B0=_ZNK2al27SensorMsgTouchAssistTrigOff27checkDerivedRuntimeTypeInfoEPKN4sead15RuntimeTypeInfo9InterfaceE
00000071001314B0=_ZNK2al27SensorMsgTouchAssistTrigOff18getRuntimeTypeInfoEv
0000007100131520=_ZN2al27SensorMsgTouchAssistTrigOffD0Ev
0000007100131530=_ZNK2al20SensorMsgTouchAssist27checkDerivedRuntimeTypeInfoEPKN4sead15RuntimeTypeInfo9InterfaceE
0000007100131630=_ZNK2al20SensorMsgTouchAssist18getRuntimeTypeInfoEv
00000071001316A0=_ZN2al20SensorMsgTouchAssistD0Ev
00000071001316B0=_ZNK2al23SensorMsgTouchCarryItem27checkDerivedRuntimeTypeInfoEPKN4sead15RuntimeTypeInfo9InterfaceE
00000071001317B0=_ZNK2al23SensorMsgTouchCarryItem18getRuntimeTypeInfoEv
0000007100131820=_ZN2al23SensorMsgTouchCarryItemD0Ev
0000007100131830=_ZNK2kp28SensorMsgTouchAssistBurnPeto27checkDerivedRuntimeTypeInfoEPKN4sead15RuntimeTypeInfo9InterfaceE
0000007100131930=_ZNK2kp28SensorMsgTouchAssistBurnPeto18getRuntimeTypeInfoEv
00000071001319A0=_ZN2kp28SensorMsgTouchAssistBurnPetoD0Ev
00000071001319B0=_ZNK2al24SensorMsgTouchAssistBurn27checkDerivedRuntimeTypeInfoEPKN4sead15RuntimeTypeInfo9InterfaceE
0000007100131AB0=_ZNK2al24SensorMsgTouchAssistBurn18getRuntimeTypeInfoEv
0000007100131B20=_ZN2al24SensorMsgTouchAssistBurnD0Ev
0000007100131B30=_ZNK2al25SensorMsgTouchAssistNoPat27checkDerivedRuntimeTypeInfoEPKN4sead15RuntimeTypeInfo9InterfaceE
0000007100131C30=_ZNK2al25SensorMsgTouchAssistNoPat18getRuntimeTypeInfoEv
0000007100131CA0=_ZN2al25SensorMsgTouchAssistNoPatD0Ev
0000007100131CB0=_ZNK2al18SensorMsgTouchHold27checkDerivedRuntimeTypeInfoEPKN4sead15RuntimeTypeInfo9InterfaceE
0000007100131DB0=_ZNK2al18SensorMsgTouchHold18getRuntimeTypeInfoEv
0000007100131E20=_ZN2al18SensorMsgTouchHoldD0Ev
0000007100131E30=_ZNK2al29SensorMsgTouchAssistTrigNoPat27checkDerivedRuntimeTypeInfoEPKN4sead15RuntimeTypeInfo9InterfaceE
0000007100131F30=_ZNK2al29SensorMsgTouchAssistTrigNoPat18getRuntimeTypeInfoEv
0000007100131FA0=_ZN2al29SensorMsgTouchAssistTrigNoPatD0Ev
0000007100131FB0=_ZNK2al24SensorMsgTouchHoldForced27checkDerivedRuntimeTypeInfoEPKN4sead15RuntimeTypeInfo9InterfaceE
00000071001320B0=_ZNK2al24SensorMsgTouchHoldForced18getRuntimeTypeInfoEv
0000007100132120=_ZN2al24SensorMsgTouchHoldForcedD0Ev
00000071001321A0=_ZN25DrcTouchPointerLookAtCtrlC1EPKN2al9LiveActorE
0000007100132260=_ZN25DrcTouchPointerLookAtCtrl6updateERKN4sead7Vector3IfEE
00000071001322C0=_ZN25DrcTouchPointerLookAtCtrl5startEv
00000071001322D0=_ZN25DrcTouchPointerLookAtCtrl3endEv
00000071001322E0=_ZN25DrcTouchPointerLookAtCtrl3fixEv
00000071001322F0=_ZN25DrcTouchPointerLookAtCtrl5unfixEv
0000007100132300=_ZN17EchoBlockMapPartsC2EPKc
0000007100132370=_ZN17EchoBlockMapPartsC1EPKc
00000071001323F0=_ZN17EchoBlockMapParts4initERKN2al13ActorInitInfoE
0000007100132480=_ZN17EchoBlockMapParts5beginEv
0000007100132490=_ZN17EchoBlockMapParts10receiveMsgEPKN2al9SensorMsgEPNS0_9HitSensorES5_
00000071001324A0=_ZN17EchoBlockMapParts7exeWaitEv
00000071001324B0=_ZN17EchoBlockMapPartsD1Ev
00000071001324C0=_ZN17EchoBlockMapPartsD0Ev
00000071001324F0=_ZNK2al10FunctorV0MIP17EchoBlockMapPartsMS1_FvvEEclEv
0000007100132510=_ZNK2al10FunctorV0MIP17EchoBlockMapPartsMS1_FvvEE5cloneEv
0000007100132560=_ZN11EchoEmitterC2EPKc
0000007100132600=_ZN11EchoEmitterC1EPKc
00000071001326A0=_ZN11EchoEmitter4initERKN2al13ActorInitInfoE
0000007100132710=_ZN11EchoEmitter5startERKN4sead7Vector3IfEEfi
0000007100132790=_ZN11EchoEmitter9startKeepERKN4sead7Vector3IfEEfi
0000007100132800=_ZN11EchoEmitter7exeWaitEv
00000071001328E0=_ZN11EchoEmitter7exeKeepEv
0000007100132970=_ZN11EchoEmitter7exeStopEv
0000007100132990=_ZNK11EchoEmitter7getLifeEv
00000071001329E0=_ZN11EchoEmitterD1Ev
00000071001329F0=_ZN11EchoEmitterD0Ev
0000007100132AE0=_ZN17EchoEmitterHolderC2Ev
0000007100132CD0=_ZN17EchoEmitterHolder26initAfterPlacementSceneObjERKN2al13ActorInitInfoE
0000007100132DE0=_ZThn8_N17EchoEmitterHolder26initAfterPlacementSceneObjERKN2al13ActorInitInfoE
0000007100132DF0=_ZN17EchoEmitterHolder7executeEv
0000007100133210=_ZN17EchoEmitterHolder4emitERKN4sead7Vector3IfEEfi
0000007100133300=_ZN17EchoEmitterHolder8emitKeepEPKvRKN4sead7Vector3IfEEfi
0000007100133450=_ZNK17EchoEmitterHolder8setToUboEiRKN4sead8Matrix34IfEERKNS0_8Matrix44IfEE
0000007100133640=_ZNK17EchoEmitterHolder18tryGetUnUseEmitterEv
00000071001336F0=_ZNK17EchoEmitterHolder24tryGetUnUseEmitterKeeperEPKv
0000007100133750=_ZN2kp19tryGetEmitterHolderEPKN2al18IUseSceneObjHolderE
00000071001337A0=_ZN2kp21initEchoEmitterHolderEPKN2al9LiveActorE
00000071001337C0=_ZN2kp8emitEchoEPKN2al9LiveActorERKN4sead7Vector3IfEEfi
00000071001338E0=_ZN2kp12emitKeepEchoEPKN2al9LiveActorERKN4sead7Vector3IfEEfi
0000007100133970=_ZNK17EchoEmitterHolder15getSceneObjNameEv
0000007100133980=_ZThn8_NK17EchoEmitterHolder15getSceneObjNameEv
0000007100133990=_ZNK3agl12UniformBlock10setUniformEPNS_11DrawContextERKmRKNS_14ShaderLocationEjm
0000007100133AD0=_ZN4sead18Matrix44CalcCommonIfE7inverseERNS_9BaseMtx44IfEERKS3_
0000007100133ED0=_ZN20EffectObjAssistSlideC2Ev
0000007100133F90=_ZN20EffectObjAssistSlideC1Ev
0000007100134050=_ZN20EffectObjAssistSlide4initERKN2al13ActorInitInfoE
00000071001340E0=_ZN20EffectObjAssistSlide4emitEPKN2al9HitSensorEPKN4sead8Matrix34IfEE
00000071001341D0=_ZNK20EffectObjAssistSlide11isFollowingEPKN2al9HitSensorE
0000007100134220=_ZN20EffectObjAssistSlide7exeEmitEv
0000007100134340=_ZN20EffectObjAssistSlideD1Ev
0000007100134350=_ZN20EffectObjAssistSlideD0Ev
00000071001344A0=_ZN20EffectObjAtCollisionC2EPKcPN2al9LiveActorE
00000071001345A0=_ZN20EffectObjAtCollisionC1EPKcPN2al9LiveActorE
00000071001346A0=_ZN20EffectObjAtCollision4initERKN2al13ActorInitInfoE
0000007100134720=_ZN20EffectObjAtCollision10initCommonERKN2al13ActorInitInfoE
00000071001349B0=_ZN20EffectObjAtCollision7controlEv
0000007100134B80=_ZN24EffectEmitterAtCollision13tryEmitEffectEPN2al25CollisionPartsFilterActorERKN4sead8Matrix34IfEERKNS3_7Vector3IfEE
0000007100134D30=_ZN20EffectObjAtCollision4killEv
0000007100134D40=_ZN24EffectEmitterAtCollisionC2EPN2al9LiveActorE
0000007100135310=_ZN28EffectObjAtCollisionFunction9tryCreateEPN2al9LiveActorERKNS0_13ActorInitInfoE
0000007100135470=_ZN20EffectObjAtCollisionD1Ev
0000007100135480=_ZN20EffectObjAtCollisionD0Ev
00000071001354B0=_ZN2al9ParameterIN4sead15FixedSafeStringILi32EEEEC2ERKS3_RKNS1_14SafeStringBaseIcEESA_SA_PNS_12ParameterObjEb
00000071001356D0=_ZNK2al17ParameterString3212getParamTypeEv
00000071001356E0=_ZNK2al9ParameterIN4sead15FixedSafeStringILi32EEEE3ptrEv
00000071001356F0=_ZN2al9ParameterIN4sead15FixedSafeStringILi32EEEE3ptrEv
0000007100135700=_ZN2al13ParameterBase13afterGetParamEv
0000007100135710=_ZNK2al9ParameterIN4sead15FixedSafeStringILi32EEEE12getParamTypeEv
0000007100135720=_ZNK2al12ParameterV3f12getParamTypeEv
0000007100135730=_ZNK2al9ParameterIN4sead7Vector3IfEEE3ptrEv
0000007100135740=_ZN2al9ParameterIN4sead7Vector3IfEEE3ptrEv
0000007100135750=_ZNK2al9ParameterIN4sead7Vector3IfEEE12getParamTypeEv
0000007100135760=_ZNK2al12ParameterF3212getParamTypeEv
0000007100135770=_ZNK2al9ParameterIfE3ptrEv
0000007100135780=_ZN2al9ParameterIfE3ptrEv
0000007100135790=_ZNK2al9ParameterIfE12getParamTypeEv
00000071001357A0=_ZNK2al12ParameterU3212getParamTypeEv
00000071001357B0=_ZNK2al9ParameterIjE3ptrEv
00000071001357C0=_ZN2al9ParameterIjE3ptrEv
00000071001357D0=_ZNK2al9ParameterIjE12getParamTypeEv
00000071001357E0=_ZN21EffectObjBreathBubbleC2EPKc
0000007100135870=_ZN21EffectObjBreathBubbleC1EPKc
0000007100135910=_ZN21EffectObjBreathBubble4initERKN2al13ActorInitInfoE
00000071001359C0=_ZN21EffectObjBreathBubble17makeActorAppearedEv
00000071001359F0=_ZN21EffectObjBreathBubble7exeRiseEv
0000007100135C50=_ZN21EffectObjBreathBubble8exeBurstEv
0000007100135D80=_ZN21EffectObjBreathBubbleD1Ev
0000007100135D90=_ZN21EffectObjBreathBubbleD0Ev
0000007100135DE0=_ZN24EffectObjChorobonCollideC2EPKc
0000007100135E50=_ZN24EffectObjChorobonCollideC1EPKc
0000007100135ED0=_ZN24EffectObjChorobonCollide4initERKN2al13ActorInitInfoE
0000007100135F00=_ZN24EffectObjChorobonCollide17makeActorAppearedEv
0000007100135F50=_ZN24EffectObjChorobonCollide7exeWaitEv
0000007100135FC0=_ZN2al9EffectObjD1Ev
0000007100135FD0=_ZN2al9EffectObjD0Ev
0000007100136000=_ZNK2al9EffectObj10getBaseMtxEv
0000007100136010=_ZN24EffectObjChorobonCollideD1Ev
0000007100136020=_ZN24EffectObjChorobonCollideD0Ev
00000071001360C0=_ZN20EffectObjLongExpressC2EPKc
0000007100136130=_ZN20EffectObjLongExpressC1EPKc
00000071001361B0=_ZN20EffectObjLongExpress4initERKN2al13ActorInitInfoE
0000007100136280=_ZN20EffectObjLongExpress7controlEv
00000071001363C0=_ZN20EffectObjLongExpressD1Ev
00000071001363D0=_ZN20EffectObjLongExpressD0Ev
0000007100136400=_ZN15EffectObjRippleC2EPKc
0000007100136480=_ZN15EffectObjRippleC1EPKc
0000007100136500=_ZN15EffectObjRipple4initERKN2al13ActorInitInfoE
00000071001365C0=_ZN15EffectObjRipple4killEv
00000071001365F0=_ZN15EffectObjRipple17makeActorAppearedEv
0000007100136620=_ZN15EffectObjRipple7exeWaitEv
0000007100136710=_ZN15EffectObjRippleD1Ev
0000007100136720=_ZN15EffectObjRippleD0Ev
0000007100136760=_ZN15EffectObjSplashC2EPKc
00000071001367D0=_ZN15EffectObjSplashC1EPKc
0000007100136850=_ZN15EffectObjSplash4initERKN2al13ActorInitInfoE
0000007100136910=_ZN15EffectObjSplash4killEv
0000007100136940=_ZN15EffectObjSplash17makeActorAppearedEv
0000007100136970=_ZN15EffectObjSplash7exeWaitEv
00000071001369E0=_ZN15EffectObjSplashD1Ev
00000071001369F0=_ZN15EffectObjSplashD0Ev
0000007100136A90=_ZN27ExplosionComboCounterHolderC2Ev
0000007100136BB0=_ZN27ExplosionComboCounterHolder10getCounterEv
0000007100136BD0=_ZN27ExplosionComboCounterHolder12setNextIndexEv
0000007100136C10=_ZN2kp27createExplosionComboCounterEPKN2al9LiveActorE
0000007100136C30=_ZN2kp24getExplosionComboCounterEPKN2al9LiveActorE
0000007100136C70=_ZN2kp33setExplosionComboCounterNextIndexEPKN2al9LiveActorE
0000007100136CC0=_ZN2kp36getExplosionComboCounterAndNextIndexEPKN2al9LiveActorE
0000007100136D40=_ZNK27ExplosionComboCounterHolder15getSceneObjNameEv
0000007100136D50=_ZN12FadingPickup8resetAllEv
0000007100136DA0=_ZN12FadingPickup5resetEPS_
0000007100136E60=_ZN12FadingPickup7disableEPS_
0000007100136EB0=_ZN12FadingPickup6enableEPS_
0000007100136F00=_ZN12FadingPickupC2EPKc
0000007100136FC0=_ZN12FadingPickupC1EPKc
0000007100137080=_ZN12FadingPickupD2Ev
0000007100137120=_ZN12FadingPickupD1Ev
00000071001371C0=_ZN12FadingPickupD0Ev
0000007100137280=_ZN12FadingPickup4initERKN2al13ActorInitInfoE
00000071001375D0=_ZN12FadingPickup18initAfterPlacementEv
00000071001375F0=_ZN12FadingPickup7controlEv
0000007100137600=_ZN12FadingPickup12attackSensorEPN2al9HitSensorES2_
0000007100137710=_ZN12FadingPickup10receiveMsgEPKN2al9SensorMsgEPNS0_9HitSensorES5_
0000007100137720=_ZN12FadingPickup21receiveMsgScreenPointEPKN2al9SensorMsgEPNS0_13ScreenPointerEPNS0_17ScreenPointTargetE
0000007100137730=_ZN12FadingPickup7exeWaitEv
0000007100137980=_ZN12FadingPickup9startMoveEv
0000007100137AC0=_ZN12FadingPickup7endMoveEv
0000007100137C30=_ZN12FadingPickup13exeMoveLinearEv
0000007100137D10=_ZN12FadingPickup10exeMoveArcEv
0000007100137E30=_ZN12FadingPickup7exeNoopEv
0000007100137E70=_ZN19FallDurianGeneratorC2EPKc
0000007100137EF0=_ZN19FallDurianGeneratorC1EPKc
0000007100137F70=_ZN19FallDurianGenerator4initERKN2al13ActorInitInfoE
00000071001380F0=_ZN19FallDurianGenerator6appearEv
0000007100138140=_ZN19FallDurianGenerator4killEv
0000007100138190=_ZN19FallDurianGenerator8exeDelayEv
00000071001381D0=_ZN19FallDurianGenerator7exeFallEv
0000007100138380=_ZN19FallDurianGenerator7exeHideEv
00000071001383C0=_ZN19FallDurianGeneratorD1Ev
00000071001383D0=_ZN19FallDurianGeneratorD0Ev
00000071001385A0=nullsub_90
0000007100138930=_ZN12FallFireBallC2EPKcPN2al9LiveActorE
00000071001389D0=_ZN12FallFireBallC1EPKcPN2al9LiveActorE
0000007100138A70=_ZN12FallFireBall4initERKN2al13ActorInitInfoE
0000007100138B50=_ZN12FallFireBall12attackSensorEPN2al9HitSensorES2_
0000007100138C30=_ZN12FallFireBall10receiveMsgEPKN2al9SensorMsgEPNS0_9HitSensorES5_
0000007100138C40=_ZN12FallFireBall12appearAttackERKN4sead7Vector3IfEES4_f
0000007100138D60=_ZN12FallFireBall7exeWaitEv
0000007100138D70=_ZN12FallFireBall7exeMoveEv
0000007100138FB0=_ZN12FallFireBall12exeLandStartEv
0000007100139070=_ZN12FallFireBall7exeLandEv
00000071001390D0=_ZN12FallFireBall10exeLandEndEv
0000007100139190=_ZN12FallFireBallD1Ev
00000071001391A0=_ZN12FallFireBallD0Ev
00000071001391D0=nullsub_91
0000007100139270=_ZN21FallFireBallGeneratorC2EPKc
00000071001392F0=_ZN21FallFireBallGeneratorC1EPKc
0000007100139370=_ZN21FallFireBallGenerator4initERKN2al13ActorInitInfoE
00000071001394A0=_ZN21FallFireBallGenerator6appearEv
00000071001394F0=_ZN21FallFireBallGenerator4killEv
0000007100139540=_ZN21FallFireBallGenerator8exeDelayEv
0000007100139580=_ZN21FallFireBallGenerator7exeFallEv
0000007100139670=_ZN21FallFireBallGenerator7exeHideEv
00000071001396B0=_ZN21FallFireBallGeneratorD1Ev
00000071001396C0=_ZN21FallFireBallGeneratorD0Ev
00000071001397A0=_ZN17FallRockGeneratorC2EPKc
0000007100139820=_ZN17FallRockGeneratorC1EPKc
00000071001398A0=_ZN17FallRockGenerator4initERKN2al13ActorInitInfoE
00000071001399D0=_ZN17FallRockGenerator6appearEv
0000007100139A20=_ZN17FallRockGenerator4killEv
0000007100139A30=_ZN17FallRockGenerator8exeDelayEv
0000007100139A70=_ZN17FallRockGenerator7exeFallEv
0000007100139B60=_ZN17FallRockGenerator7exeHideEv
0000007100139BA0=_ZN17FallRockGeneratorD1Ev
0000007100139BB0=_ZN17FallRockGeneratorD0Ev
0000007100139C90=_ZN7FireBarC2EPKcRKN4sead8Matrix34IfEES6_
0000007100139DE0=_ZN7FireBarC1EPKcRKN4sead8Matrix34IfEES6_
0000007100139F30=_ZN7FireBar4initERKN2al13ActorInitInfoE
000000710013A050=_ZN7FireBar12attackSensorEPN2al9HitSensorES2_
000000710013A0B0=_ZN7FireBar11calcBaseMtxERKN4sead8Matrix34IfEE
000000710013A140=_ZN7FireBarD1Ev
000000710013A150=_ZN7FireBarD0Ev
000000710013A180=_ZN4FishC2EPKc
000000710013A1F0=_ZN4FishC1EPKc
000000710013A270=_ZN4Fish4initERKN2al13ActorInitInfoE
000000710013A2B0=_ZN4FishD1Ev
000000710013A2C0=_ZN4FishD0Ev
000000710013A2F0=_ZN10FishColonyC2EPKc
000000710013A380=_ZN10FishColonyC1EPKc
000000710013A420=_ZN10FishColony4initERKN2al13ActorInitInfoE
000000710013A6C0=_ZN10FishColony7controlEv
000000710013A7B0=_ZN10FishColony12attackSensorEPN2al9HitSensorES2_
000000710013A900=_ZN10FishColony10receiveMsgEPKN2al9SensorMsgEPNS0_9HitSensorES5_
000000710013AA20=_ZN10FishColony21receiveMsgScreenPointEPKN2al9SensorMsgEPNS0_13ScreenPointerEPNS0_17ScreenPointTargetE
000000710013AB50=_ZN10FishColony8exeGroupEv
000000710013B0E0=_ZN10FishColonyD1Ev
000000710013B0F0=_ZN10FishColonyD0Ev
000000710013B150=_ZN19FixedMapPartsCarpetC2EPKc
000000710013B1D0=_ZN19FixedMapPartsCarpetC1EPKc
000000710013B250=_ZN19FixedMapPartsCarpet4initERKN2al13ActorInitInfoE
000000710013B330=_ZN19FixedMapPartsCarpet6appearEv
000000710013B370=_ZN19FixedMapPartsCarpet10receiveMsgEPKN2al9SensorMsgEPNS0_9HitSensorES5_
000000710013B3F0=_ZN19FixedMapPartsCarpet10exeStandByEv
000000710013B400=_ZN19FixedMapPartsCarpet9exeAppearEv
000000710013B460=_ZN19FixedMapPartsCarpet7exeWaitEv
000000710013B4C0=_ZN19FixedMapPartsCarpetD1Ev
000000710013B4D0=_ZN19FixedMapPartsCarpetD0Ev
000000710013B560=nullsub_92
000000710013B5D0=_ZN19FixedMapPartsRhythmC2EPKc
000000710013B650=_ZN19FixedMapPartsRhythmC1EPKc
000000710013B6D0=_ZN19FixedMapPartsRhythm4initERKN2al13ActorInitInfoE
000000710013B730=_ZN19FixedMapPartsRhythm7controlEv
000000710013B740=_ZN19FixedMapPartsRhythmD1Ev
000000710013B750=_ZN19FixedMapPartsRhythmD0Ev
000000710013B780=_ZN12FlowerCactusC2EPKc
000000710013B800=_ZN12FlowerCactusC1EPKc
000000710013B890=_ZN12FlowerCactus4initERKN2al13ActorInitInfoE
000000710013B970=_ZN12FlowerCactus12attackSensorEPN2al9HitSensorES2_
000000710013BA00=_ZN12FlowerCactus10receiveMsgEPKN2al9SensorMsgEPNS0_9HitSensorES5_
000000710013BC40=_ZN12FlowerCactus7doBreakEPKN2al9SensorMsgEPNS0_9HitSensorE
000000710013BC80=_ZN12FlowerCactus24tryChangeNerveToReactionEv
000000710013BCF0=_ZN12FlowerCactus21receiveMsgScreenPointEPKN2al9SensorMsgEPNS0_13ScreenPointerEPNS0_17ScreenPointTargetE
000000710013BDA0=_ZN12FlowerCactus7exeWaitEv
000000710013BE00=_ZN12FlowerCactus11exeTrampledEv
000000710013BE60=_ZN12FlowerCactus11exeBlowDownEv
000000710013BED0=_ZN12FlowerCactus8exeBreakEv
000000710013BF50=_ZN12FlowerCactus11exeReactionEv
000000710013BFB0=_ZN12FlowerCactus14exeReactionEndEv
000000710013C010=_ZN12FlowerCactus16exeReactionTouchEv
000000710013C060=_ZN12FlowerCactusD1Ev
000000710013C070=_ZN12FlowerCactusD0Ev
000000710013C370=_ZN12FlowerRhythmC2EPKc
000000710013C410=_ZN12FlowerRhythmC1EPKc
000000710013C4C0=_ZN12FlowerRhythm4initERKN2al13ActorInitInfoE
000000710013C7C0=_ZN12FlowerRhythm7controlEv
000000710013C8F0=_ZN12FlowerRhythm10receiveMsgEPKN2al9SensorMsgEPNS0_9HitSensorES5_
000000710013CAF0=_ZN12FlowerRhythm13tryAppearItemEPKN2al9SensorMsgEPKNS0_9HitSensorEbb
000000710013CB70=_ZN12FlowerRhythm21receiveMsgScreenPointEPKN2al9SensorMsgEPNS0_13ScreenPointerEPNS0_17ScreenPointTargetE
000000710013CC20=_ZN12FlowerRhythm26tryAppearItemScreenPointerEPKN2al9SensorMsgEPKNS0_13ScreenPointerE
000000710013CC60=_ZN12FlowerRhythm7exeWaitEv
000000710013CCA0=_ZN12FlowerRhythm11exeReactionEv
000000710013CDD0=_ZN12FlowerRhythmD1Ev
000000710013CDE0=_ZN12FlowerRhythmD0Ev
000000710013CE60=_ZN16ForceDoubleMarioC2EPKc
000000710013CED0=_ZN16ForceDoubleMarioC1EPKc
000000710013CF50=_ZN16ForceDoubleMario4initERKN2al13ActorInitInfoE
000000710013CF80=_ZN16ForceDoubleMarioD1Ev
000000710013CF90=_ZN16ForceDoubleMarioD0Ev
000000710013CFC0=_ZN10GatherItemC2EPKcbbi
000000710013D070=_ZN10GatherItemC1EPKcbbi
000000710013D120=_ZN10GatherItem4initERKN2al13ActorInitInfoE
000000710013D330=_ZN10GatherItem14appearBySwitchEv
000000710013D370=_ZN10GatherItem18initAfterPlacementEv
000000710013D3A0=_ZN10GatherItem7controlEv
000000710013D3E0=_ZN10GatherItem10receiveMsgEPKN2al9SensorMsgEPNS0_9HitSensorES5_
000000710013D4D0=_ZNK10GatherItem18isEnableMsgItemGetEPKN2al9SensorMsgE
000000710013D4E0=_ZN10GatherItem5doGetEPN2al9HitSensorES2_
000000710013D570=_ZN10GatherItem21receiveMsgScreenPointEPKN2al9SensorMsgEPNS0_13ScreenPointerEPNS0_17ScreenPointTargetE
000000710013D580=_ZN10GatherItem6appearEv
000000710013D590=_ZN10GatherItem13appearWithPosERKN4sead7Vector3IfEE
000000710013D5F0=_ZN10GatherItem16appearFrontNerveERKN4sead7Vector3IfEERK26ItemStateTakeOutFrontParam
000000710013D6B0=_ZN10GatherItem6exeGotEv
000000710013D770=_ZN10GatherItem7exeWaitEv
000000710013D7B0=_ZN10GatherItemD1Ev
000000710013D7C0=_ZN10GatherItemD0Ev
000000710013D840=_ZNK2al10FunctorV0MIP10GatherItemMS1_FvvEEclEv
000000710013D860=_ZNK2al10FunctorV0MIP10GatherItemMS1_FvvEE5cloneEv
000000710013D8B0=_ZN17GatherItemWatcherC2EPKc
000000710013D930=_ZN17GatherItemWatcherC1EPKc
000000710013D9C0=_ZN17GatherItemWatcher4initERKN2al13ActorInitInfoE
000000710013DB90=_ZN17GatherItemWatcher7controlEv
000000710013DCB0=_ZN17GatherItemWatcher19pickupGatherCounterEPKN2al9LiveActorE
000000710013DD20=_ZN17GatherItemWatcher8exeWatchEv
000000710013DDF0=_ZN17GatherItemWatcher12exeAllAppearEv
000000710013DE50=_ZN17GatherItemWatcher12exeDisAppearEv
000000710013DF20=_ZN17GatherItemWatcherD1Ev
000000710013DF30=_ZN17GatherItemWatcherD0Ev
000000710013DFF0=_ZN4sead15FixedSafeStringILi256EED0Ev
000000710013E000=_ZN15GeneralHeadgearC2EPKc
000000710013E0C0=_ZN15GeneralHeadgearC1EPKc
000000710013E190=_ZN15GeneralHeadgear4initERKN2al13ActorInitInfoE
000000710013E2B0=_ZN15GeneralHeadgear6appearEv
000000710013E310=_ZN15GeneralHeadgear12attackSensorEPN2al9HitSensorES2_
000000710013E320=_ZN15GeneralHeadgear10receiveMsgEPKN2al9SensorMsgEPNS0_9HitSensorES5_
000000710013E4F0=_ZN15GeneralHeadgear9shiftKillEb
000000710013E5A0=_ZN15GeneralHeadgear13tryShiftCarryEPN2al9HitSensorES2_
000000710013E620=_ZN15GeneralHeadgear9exeAppearEv
000000710013E6B0=_ZN15GeneralHeadgear7exeWaitEv
000000710013E790=_ZN15GeneralHeadgear8exeCarryEv
000000710013E8E0=_ZN15GeneralHeadgear17startCharaMtpAnimEv
000000710013E990=_ZN15GeneralHeadgear7exeKillEv
000000710013EAD0=_ZN15GeneralHeadgearD1Ev
000000710013EAE0=_ZN15GeneralHeadgearD0Ev
000000710013EB50=_ZN15GoalAreaCheckerC2EPKc
000000710013EBE0=_ZN15GoalAreaCheckerC1EPKc
000000710013EC70=_ZN15GoalAreaChecker4initERKN2al13ActorInitInfoE
000000710013EDF0=_ZNK15GoalAreaChecker6isGoalEv
000000710013EE00=_ZThn264_NK15GoalAreaChecker6isGoalEv
000000710013EE10=_ZNK15GoalAreaChecker13isEndGoalDemoEv
000000710013EE20=_ZThn264_NK15GoalAreaChecker13isEndGoalDemoEv
000000710013EE30=_ZN15GoalAreaChecker10receiveMsgEPKN2al9SensorMsgEPNS0_9HitSensorES5_
000000710013EEF0=_ZN15GoalAreaChecker11exeCheckingEv
000000710013F030=_ZN15GoalAreaChecker7exeGoalEv
000000710013F040=_ZN15GoalAreaCheckerD1Ev
000000710013F050=_ZN15GoalAreaCheckerD0Ev
000000710013F080=_ZNK8IGoalObj11isUseResultEv
000000710013F090=_ZNK8IGoalObj12isRetireGoalEv
000000710013F0B0=nullsub_93
000000710013F0C0=_ZN8GoalItemC2EPKc
000000710013F1B0=_ZN8GoalItemC1EPKc
000000710013F2A0=_ZN8GoalItem4initERKN2al13ActorInitInfoE
000000710013F760=_ZN8GoalItem14appearBySwitchEv
000000710013F840=_ZN8GoalItem8setColorEv
000000710013F870=_ZN8GoalItem18initAfterPlacementEv
000000710013F8C0=_ZN8GoalItem7controlEv
000000710013FA20=_ZN8GoalItem12attackSensorEPN2al9HitSensorES2_
000000710013FA70=_ZN8GoalItem10receiveMsgEPKN2al9SensorMsgEPNS0_9HitSensorES5_
000000710013FC70=_ZN8GoalItem5doGetEPN2al9HitSensorES2_
000000710013FCD0=_ZN8GoalItem21receiveMsgScreenPointEPKN2al9SensorMsgEPNS0_13ScreenPointerEPNS0_17ScreenPointTargetE
000000710013FD40=_ZN8GoalItem24applyColorToDemoGoalItemEPN2al9LiveActorE
000000710013FD70=_ZN8GoalItem6appearEv
000000710013FDD0=_ZN8GoalItem16appearCheckpointEv
000000710013FE10=_ZN8GoalItem17exeAppearBossBirdEv
000000710013FEB0=_ZN8GoalItem19exeAppearCheckpointEv
000000710013FF10=_ZN8GoalItem7exeWaitEv
000000710013FF60=_ZN8GoalItem7exeSpinEv
000000710013FFE0=_ZN8GoalItem16exeSpinSpeedDownEv
0000007100140090=_ZN8GoalItem13exeBossBattleEv
00000071001400D0=_ZN8GoalItem6exeGotEv
00000071001401C0=_ZN8GoalItem12doGetByEnemyEPN2al9HitSensorES2_
0000007100140200=_ZN8GoalItemD1Ev
0000007100140210=_ZN8GoalItemD0Ev
00000071001403E0=_ZNK2al10FunctorV0MIP8GoalItemMS1_FvvEEclEv
0000007100140400=_ZNK2al10FunctorV0MIP8GoalItemMS1_FvvEE5cloneEv
0000007100140450=_ZN26GoalItemBossBattleGetStateC1EPN2al9LiveActorEP31GoalItemBossBattleGetStateParam
00000071001404D0=_ZN26GoalItemBossBattleGetState6appearEv
0000007100140520=_ZN26GoalItemBossBattleGetState10receiveMsgEPKN2al9SensorMsgEPNS0_9HitSensorES5_
0000007100140530=_ZN26GoalItemBossBattleGetState17updatePoseControlEv
00000071001406D0=_ZN26GoalItemBossBattleGetState9exeAppearEv
0000007100140730=_ZN26GoalItemBossBattleGetState7exeLandEv
0000007100140940=_ZN26GoalItemBossBattleGetState11exeLandWaitEv
0000007100140980=_ZN26GoalItemBossBattleGetStateD0Ev
0000007100140A70=_ZN13GoalObjHolderC2Ei
0000007100140A80=_ZN13GoalObjHolder8pushBackEPK8IGoalObj
0000007100140AB0=_ZNK13GoalObjHolder6isGoalEv
0000007100140B30=_ZNK13GoalObjHolder13isEndGoalDemoEv
0000007100140BB0=_ZNK13GoalObjHolder11isUseResultEv
0000007100140C30=_ZNK13GoalObjHolder12isRetireGoalEv
0000007100140CB0=_ZN26GoalObjStateClearAfterDemoC1EPN2al9LiveActorERKNS0_13ActorInitInfoEPKN4sead8Matrix34IfEE
0000007100141180=_ZN26GoalObjStateClearAfterDemo10receiveMsgEPKN2al9SensorMsgEPNS0_9HitSensorES5_
0000007100141290=_ZNK26GoalObjStateClearAfterDemo14isWipeCloseEndEv
00000071001412D0=_ZN26GoalObjStateClearAfterDemo12exeWipeCloseEv
00000071001414F0=_ZN26GoalObjStateClearAfterDemo7exeBindEv
0000007100141560=_ZN26GoalObjStateClearAfterDemo7exeWipeEv
0000007100141610=_ZN26GoalObjStateClearAfterDemo9exeCameraEv
00000071001419B0=_ZN26GoalObjStateClearAfterDemoD2Ev
00000071001419C0=_ZN26GoalObjStateClearAfterDemoD0Ev
0000007100141A90=_ZN25GoalObjStateGoalDemoParamC2Ev
0000007100141AE0=_ZN20GoalObjStateGoalDemoC1EPN2al9LiveActorERKNS0_13ActorInitInfoEPK25GoalObjStateGoalDemoParam
0000007100141CF0=_ZN20GoalObjStateGoalDemo10receiveMsgEPKN2al9SensorMsgEPNS0_9HitSensorES5_
0000007100141E20=_ZNK20GoalObjStateGoalDemo6isBindEv
0000007100141E30=_ZNK20GoalObjStateGoalDemo10isGoalPoseEv
0000007100141E40=_ZN20GoalObjStateGoalDemo15killClearLayoutEv
0000007100141E80=_ZN20GoalObjStateGoalDemo7endBindEv
0000007100141F30=_ZN20GoalObjStateGoalDemo7exeBindEv
0000007100142180=_ZN20GoalObjStateGoalDemo15exeGoalPoseSignEv
00000071001422B0=_ZN20GoalObjStateGoalDemo12initGoalPoseEv
0000007100142700=_ZN20GoalObjStateGoalDemo15exeGoalPoseBindEv
00000071001427D0=_ZN20GoalObjStateGoalDemo11exeGoalPoseEv
00000071001429F0=_ZN20GoalObjStateGoalDemoD0Ev
0000007100142AD0=_ZN26GoalObjStateLastBeforeDemoC2EPN2al9LiveActorERKNS0_13ActorInitInfoEPKN4sead8Matrix34IfEE
0000007100142E10=_ZN26GoalObjStateLastBeforeDemo10receiveMsgEPKN2al9SensorMsgEPNS0_9HitSensorES5_
0000007100142EE0=_ZNK26GoalObjStateLastBeforeDemo14isWipeCloseEndEv
0000007100142F20=_ZN26GoalObjStateLastBeforeDemo12exeWipeCloseEv
0000007100142F80=_ZN26GoalObjStateLastBeforeDemo7exeWipeEv
0000007100143070=_ZN26GoalObjStateLastBeforeDemo9exeCameraEv
0000007100143250=_ZN26GoalObjStateLastBeforeDemoD2Ev
0000007100143260=_ZN26GoalObjStateLastBeforeDemoD0Ev
0000007100143310=_ZN13GoalPedestralC2EPKc
0000007100143390=_ZN13GoalPedestralC1EPKc
0000007100143410=_ZN13GoalPedestral4initERKN2al13ActorInitInfoE
0000007100143490=_ZN13GoalPedestral18initAfterPlacementEv
00000071001434A0=_ZN13GoalPedestral7controlEv
00000071001434B0=_ZN13GoalPedestral10receiveMsgEPKN2al9SensorMsgEPNS0_9HitSensorES5_
0000007100143530=_ZN13GoalPedestralD1Ev
0000007100143540=_ZN13GoalPedestralD0Ev
0000007100143570=_ZN2al25GraphicsObjShadowMaskCubeC2EPKc
00000071001436C0=_ZN2al25GraphicsObjShadowMaskCubeC1EPKc
0000007100143810=_ZN2al25GraphicsObjShadowMaskCube4initERKNS_13ActorInitInfoE
0000007100143BC0=_ZN2al25GraphicsObjShadowMaskCube14tryInitTextureEPKc
0000007100143CF0=_ZThn240_N2al25GraphicsObjShadowMaskCube4initERKNS_13ActorInitInfoE
0000007100143D00=_ZN2al25GraphicsObjShadowMaskCube18initAfterPlacementEv
0000007100143D20=_ZThn240_N2al25GraphicsObjShadowMaskCube18initAfterPlacementEv
0000007100143D50=_ZN2al25GraphicsObjShadowMaskCube7declareENS_22ShadowMaskDrawCategoryE
0000007100143D90=_ZN2al25GraphicsObjShadowMaskCube6updateEv
0000007100143F30=_ZN2al25GraphicsObjShadowMaskCube16calcShadowMatrixEPN4sead8Matrix34IfEE
0000007100144230=_ZN2al25GraphicsObjShadowMaskCube11updateMultiEv
0000007100144240=_ZN2al25GraphicsObjShadowMaskCube8addMultiEv
0000007100144250=_ZNK2al25GraphicsObjShadowMaskCube17getShadowMaskTypeEv
0000007100144260=_ZN2al25GraphicsObjShadowMaskCube7controlEv
0000007100144270=_ZN2al25GraphicsObjShadowMaskCubeD1Ev
00000071001442F0=_ZN2al25GraphicsObjShadowMaskCubeD0Ev
0000007100144380=_ZThn240_N2al25GraphicsObjShadowMaskCubeD1Ev
0000007100144400=_ZThn240_N2al25GraphicsObjShadowMaskCubeD0Ev
0000007100144480=_ZThn240_N2al25GraphicsObjShadowMaskCube7controlEv
0000007100144490=_ZN2al27GraphicsObjShadowMaskSphereC2EPKc
0000007100144530=_ZN2al27GraphicsObjShadowMaskSphereC1EPKc
00000071001445E0=_ZN2al27GraphicsObjShadowMaskSphere4initERKNS_13ActorInitInfoE
0000007100144740=_ZThn240_N2al27GraphicsObjShadowMaskSphere4initERKNS_13ActorInitInfoE
0000007100144750=_ZN2al27GraphicsObjShadowMaskSphere7declareENS_22ShadowMaskDrawCategoryE
0000007100144790=_ZN2al27GraphicsObjShadowMaskSphere6updateEv
0000007100144850=_ZN2al14ShadowMaskBase16calcShadowMatrixEPN4sead8Matrix34IfEE
0000007100144860=_ZN2al27GraphicsObjShadowMaskSphere11updateMultiEv
0000007100144870=_ZN2al27GraphicsObjShadowMaskSphere8addMultiEv
0000007100144880=_ZNK2al27GraphicsObjShadowMaskSphere17getShadowMaskTypeEv
0000007100144890=_ZN2al27GraphicsObjShadowMaskSphere7controlEv
00000071001448A0=_ZN2al27GraphicsObjShadowMaskSphereD1Ev
00000071001448C0=_ZN2al27GraphicsObjShadowMaskSphereD0Ev
0000007100144900=_ZThn240_N2al27GraphicsObjShadowMaskSphereD1Ev
0000007100144910=_ZThn240_N2al27GraphicsObjShadowMaskSphereD0Ev
0000007100144940=_ZThn240_N2al27GraphicsObjShadowMaskSphere7controlEv
0000007100144950=_ZN12GrassControlC2EPKc
0000007100144A10=_ZN12GrassControlC1EPKc
0000007100144AD0=_ZN12GrassControl4initERKN2al13ActorInitInfoE
0000007100144BF0=_ZN12GrassControl11createChildERKN2al13ActorInitInfoE
0000007100144CA0=_ZN12GrassControl7controlEv
0000007100145380=_ZN12GrassControl16pickOutGrassBoneEPKN2al9LiveActorE
0000007100145880=_ZNK12GrassControl19countChildRecursiveEPKcPKN2al11ModelKeeperE
0000007100145930=_ZNK12GrassControl20searchChildRecursiveEPKcRN4sead13ConstPtrArrayIcEEPKN2al11ModelKeeperE
00000071001459F0=_ZN12GrassControlD1Ev
0000007100145A00=_ZN12GrassControlD0Ev
0000007100145EF0=_ZN9GreenStarC2EPKcP10ItemBubbleb
0000007100146000=_ZN9GreenStarC1EPKcP10ItemBubbleb
0000007100146120=_ZN9GreenStar4initERKN2al13ActorInitInfoE
0000007100146600=_ZN9GreenStar10switchKillEv
0000007100146610=_ZN9GreenStar18initAfterPlacementEv
0000007100146690=_ZN9GreenStar17makeActorAppearedEv
0000007100146760=_ZN9GreenStar13makeActorDeadEv
0000007100146790=_ZN9GreenStar7controlEv
00000071001468B0=_ZN9GreenStar13appearWithPosERKN4sead7Vector3IfEE
0000007100146910=_ZNK9GreenStar18isEnableMsgItemGetEPKN2al9SensorMsgE
0000007100146970=_ZN9GreenStar10receiveMsgEPKN2al9SensorMsgEPNS0_9HitSensorES5_
0000007100146D20=_ZN9GreenStar5doGetEPN2al9HitSensorES2_
0000007100146E50=_ZN9GreenStar21receiveMsgScreenPointEPKN2al9SensorMsgEPNS0_13ScreenPointerEPNS0_17ScreenPointTargetE
0000007100146F80=_ZN9GreenStar12setNoConnectEv
0000007100146FA0=_ZN9GreenStar6rotateEf
00000071001470A0=_ZN9GreenStar9exeAppearEv
00000071001471A0=_ZN9GreenStar15exeDirectAppearEv
0000007100147220=_ZN9GreenStar7exeWaitEv
0000007100147280=_ZN9GreenStar11exeAttachedEv
0000007100147300=_ZN9GreenStar8exeThrowEv
0000007100147400=_ZN9GreenStar10exeSpinDrcEv
0000007100147500=_ZN9GreenStar13exeDemoAppearEv
0000007100147670=_ZN9GreenStar18exeDirectDisappearEv
00000071001476F0=_ZN9GreenStar12exeDisappearEv
0000007100147760=_ZN9GreenStar6exeGotEv
0000007100147820=_ZN9GreenStar13exePopUpFrontEv
0000007100147870=_ZN9GreenStarD1Ev
0000007100147880=_ZN9GreenStarD0Ev
0000007100147BA0=_ZNK2al10FunctorV0MIPNS_9LiveActorEMS1_FvvEEclEv
0000007100147BC0=_ZNK2al10FunctorV0MIPNS_9LiveActorEMS1_FvvEE5cloneEv
0000007100147C10=_ZNK2al10FunctorV0MIP9GreenStarMS1_FvvEEclEv
0000007100147C30=_ZNK2al10FunctorV0MIP9GreenStarMS1_FvvEE5cloneEv
0000007100147CB0=_ZN24GroupClippingDummyTargetC2EPKc
0000007100147D20=_ZN24GroupClippingDummyTargetC1EPKc
0000007100147DA0=_ZN24GroupClippingDummyTarget4initERKN2al13ActorInitInfoE
0000007100147E30=_ZN24GroupClippingDummyTargetD1Ev
0000007100147E40=_ZN24GroupClippingDummyTargetD0Ev
0000007100147E70=_ZN19HeadgearPoseBuilderC1EPN2al9LiveActorEPK24HeadgearPoseBuilderParam
0000007100147F20=_ZN19HeadgearPoseBuilder5startEPN2al9HitSensorE
0000007100147F70=_ZN19HeadgearPoseBuilder6updateEv
0000007100148A20=_ZNK19HeadgearPoseBuilder21isPlayerActionPlayingEPKc
0000007100148B10=_ZNK19HeadgearPoseBuilder27isPlayerRaidonActionPlayingEv
0000007100148CA0=_ZNK19HeadgearPoseBuilder19getPlayerActionNameEv
0000007100148CC0=_ZNK19HeadgearPoseBuilder10isSnappingEv
0000007100148D10=_ZN19HeadgearPoseBuilder7exeWaitEv
0000007100148EE0=_ZN19HeadgearPoseBuilder14updateSnapPoseEv
0000007100148FC0=_ZN19HeadgearPoseBuilder7exeSnapEv
0000007100149180=_ZN19HeadgearPoseBuilder23updateAndCalcAnimDirectEv
00000071001491B0=_ZN19HeadgearPoseBuilderD0Ev
0000007100149220=_ZN22HeadgearStateBlowParamC2Ev
0000007100149260=_ZN17HeadgearStateBlowC2EPN2al9LiveActorEPK22HeadgearStateBlowParam
00000071001492E0=_ZN17HeadgearStateBlow8tryStartEPKN2al9SensorMsgEPNS0_9HitSensorE
0000007100149430=_ZN17HeadgearStateBlow7exeBlowEv
0000007100149540=_ZN17HeadgearStateBlowD0Ev
0000007100149590=_ZN19HoldColliderControlC2Ev
00000071001495A0=_ZN19HoldColliderControl4initEPN2al9LiveActorE
00000071001495B0=_ZN19HoldColliderControl5startEv
00000071001495C0=_ZN19HoldColliderControl6updateEPN2al9HitSensorES2_
00000071001497F0=_ZN10IllustItemC2EPKcb
00000071001498A0=_ZN10IllustItemC1EPKcb
0000007100149960=_ZN10IllustItem4initERKN2al13ActorInitInfoE
0000007100149B00=_ZN10IllustItem11startAppearEv
0000007100149B50=_ZN10IllustItem18initAfterPlacementEv
0000007100149B60=_ZN10IllustItem6appearEv
0000007100149B90=_ZN10IllustItem10receiveMsgEPKN2al9SensorMsgEPNS0_9HitSensorES5_
0000007100149CE0=_ZNK10IllustItem18isEnableMsgItemGetEPKN2al9SensorMsgE
0000007100149D40=_ZN10IllustItem5doGetEv
0000007100149D80=_ZN10IllustItem21receiveMsgScreenPointEPKN2al9SensorMsgEPNS0_13ScreenPointerEPNS0_17ScreenPointTargetE
0000007100149E30=_ZN10IllustItem7exeWaitEv
0000007100149EF0=_ZN10IllustItem9exeAppearEv
0000007100149F80=_ZN10IllustItem10exeSpinDrcEv
000000710014A0A0=_ZN10IllustItem6exeGotEv
000000710014A120=_ZN10IllustItemD1Ev
000000710014A130=_ZN10IllustItemD0Ev
000000710014A2A0=_ZNK2al10FunctorV0MIP10IllustItemMS1_FvvEEclEv
000000710014A2C0=_ZNK2al10FunctorV0MIP10IllustItemMS1_FvvEE5cloneEv
000000710014A350=_ZN10ItemBubbleC2EPKci
000000710014A3F0=_ZN10ItemBubbleC1EPKci
000000710014A490=_ZN10ItemBubble4initERKN2al13ActorInitInfoE
000000710014A534=def_710014A508
000000710014A600=_ZN10ItemBubble12attackSensorEPN2al9HitSensorES2_
000000710014A6B0=_ZN10ItemBubble10receiveMsgEPKN2al9SensorMsgEPNS0_9HitSensorES5_
000000710014A850=_ZN10ItemBubble21receiveMsgScreenPointEPKN2al9SensorMsgEPNS0_13ScreenPointerEPNS0_17ScreenPointTargetE
000000710014A8C0=_ZN10ItemBubble6appearEv
000000710014A900=_ZN10ItemBubble12startClippedEv
000000710014A950=_ZN10ItemBubble10endClippedEv
000000710014A9A0=_ZNK10ItemBubble23isEnableGetPlayerSensorEv
000000710014A9C0=_ZNK10ItemBubble11isDisappearEv
000000710014A9D0=_ZNK10ItemBubble18getHitPlayerSensorEv
000000710014A9E0=_ZN10ItemBubble7exeWaitEv
000000710014AA20=_ZN10ItemBubble12exeDisappearEv
000000710014AAD0=_ZN10ItemBubble13updatePostureEv
000000710014AD10=_ZN10ItemBubbleD1Ev
000000710014AD20=_ZN10ItemBubbleD0Ev
000000710014ADA0=_ZN10ItemHolderC1ERKN2al13ActorInitInfoEbb
000000710014AF30=_ZN10ItemHolder20initGroupCoinCountUpERKN2al13ActorInitInfoE
000000710014AFF0=_ZN10ItemHolder17initGroupCoinBlowERKN2al13ActorInitInfoE
000000710014B0B0=_ZN10ItemHolder11declareItemEPKcRKN2al13ActorInitInfoE
000000710014B260=_ZN10ItemHolder18declareDoubleMarioERKN2al13ActorInitInfoE
000000710014B370=_ZN10ItemHolder18declareKinokoOneUpERKN2al13ActorInitInfoE
000000710014B480=_ZN10ItemHolder18declareKinokoSuperERKN2al13ActorInitInfoE
000000710014B590=_ZN10ItemHolder21declareKinokoTreasureERKN2al13ActorInitInfoE
000000710014B760=_ZN10ItemHolder18declarePickaxeItemERKN2al13ActorInitInfoE
000000710014B870=_ZN10ItemHolder16declareRadishBigERKN2al13ActorInitInfoE
000000710014B980=_ZN10ItemHolder13declareRadishERKN2al13ActorInitInfoE
000000710014BA90=_ZN10ItemHolder17declareAssistItemERKN2al13ActorInitInfoE
000000710014BBA0=_ZNK10ItemHolder11getCoinBlowEv
000000710014BC00=_ZNK10ItemHolder14getCoinCountUpEv
000000710014BC60=_ZNK10ItemHolder14getKinokoOneUpEv
000000710014BCC0=_ZNK10ItemHolder14getKinokoSuperEv
000000710014BD20=_ZNK10ItemHolder17getKinokoTreasureEv
000000710014BD80=_ZNK10ItemHolder14getPickaxeItemEv
000000710014BDE0=_ZNK10ItemHolder14getDoubleMarioEv
000000710014BE40=_ZNK10ItemHolder9getRadishEv
000000710014BEA0=_ZNK10ItemHolder12getRadishBigEv
000000710014BF00=_ZNK10ItemHolder13getAssistItemEv
000000710014BF60=_ZN21ItemAssistRotateParamC2Ev
000000710014BF90=_ZN21ItemAssistRotateParamC2Eifbfi
000000710014BFB0=_ZN21ItemStateAssistRotateC2EPN2al9LiveActorEPK21ItemAssistRotateParam
000000710014C030=_ZN21ItemStateAssistRotate4initEv
000000710014C040=_ZN21ItemStateAssistRotate6appearEv
000000710014C050=_ZN21ItemStateAssistRotate15setRotateDegreeEf
000000710014C090=_ZN21ItemStateAssistRotate7exeSpinEv
000000710014C1A0=_ZN21ItemStateAssistRotate6rotateEf
000000710014C250=_ZN21ItemStateAssistRotate7exeLerpEv
000000710014C340=_ZN21ItemStateAssistRotateD0Ev
000000710014C390=_ZN23ItemStateCheckCollisionC2EPN2al9LiveActorE
000000710014C3F0=_ZN23ItemStateCheckCollision4initEv
000000710014C400=_ZN23ItemStateCheckCollision6appearEv
000000710014C450=_ZN23ItemStateCheckCollision23connectToCollisionPartsEv
000000710014C550=_ZN23ItemStateCheckCollision4killEv
000000710014C560=_ZN23ItemStateCheckCollision10receiveMsgEPKN2al9SensorMsgEPNS0_9HitSensorES5_
000000710014C5D0=_ZN23ItemStateCheckCollision7exeLandEv
000000710014C690=_ZN23ItemStateCheckCollision14exeWaitConnectEv
000000710014C990=_ZN23ItemStateCheckCollision7exeFallEv
000000710014CAE0=_ZN23ItemStateCheckCollisionD0Ev
000000710014CB40=_ZN13ItemStateLeafC2EPN2al9LiveActorEPK24ItemStatePopUpFrontParam
000000710014CB90=_ZN13ItemStateLeaf4initEv
000000710014CBA0=_ZN13ItemStateLeaf6appearEv
000000710014CC20=_ZN13ItemStateLeaf4killEv
000000710014CC60=_ZN13ItemStateLeaf10receiveMsgEPKN2al9SensorMsgEPNS0_9HitSensorES5_
000000710014CCB0=_ZN13ItemStateLeaf8exePopUpEv
000000710014CE00=_ZN13ItemStateLeaf10exeTakeOutEv
000000710014CF70=_ZN13ItemStateLeaf11exeFallLeafEv
000000710014D110=_ZN13ItemStateLeaf11exeLandLeafEv
000000710014D180=_ZN13ItemStateLeafD0Ev
000000710014D250=_ZN23ItemStateParabolicThrowC1EPN2al9LiveActorEPK28ItemStateParabolicThrowParam
000000710014D320=_ZN23ItemStateParabolicThrow4initEv
000000710014D360=_ZN23ItemStateParabolicThrow7controlEv
000000710014D390=_ZN23ItemStateParabolicThrow6appearEv
000000710014D3B0=_ZN23ItemStateParabolicThrow4killEv
000000710014D3C0=_ZN23ItemStateParabolicThrow10receiveMsgEPKN2al9SensorMsgEPNS0_9HitSensorES5_
000000710014D3D0=_ZN23ItemStateParabolicThrow33tryAcceptMsgBossBirdNotifyHitAreaEPKN2al9SensorMsgEPNS0_9HitSensorES5_f
000000710014D460=_ZN23ItemStateParabolicThrow10forceStartEPN2al9HitSensorEPKcRKN4sead7Vector3IfEE
000000710014D470=_ZN23ItemStateParabolicThrow5startEPKcRKN4sead7Vector3IfEE
000000710014D750=_ZN23ItemStateParabolicThrow8tryStartEPN2al9HitSensorEPKcRKN4sead7Vector3IfEE
000000710014D780=_ZN23ItemStateParabolicThrow8exeThrowEv
000000710014DAC0=_ZN23ItemStateParabolicThrow7exeFallEv
000000710014DB40=_ZN23ItemStateParabolicThrowD2Ev
000000710014DB50=_ZN23ItemStateParabolicThrowD0Ev
000000710014DC00=_ZN24ItemStatePlayerHoldParamC2Ev
000000710014DC30=_ZN24ItemStatePlayerHoldParamC2ERKN4sead7Vector3IfEES4_bifb
000000710014DC80=_ZN24ItemStatePlayerHoldParamC2ERKN4sead7Vector3IfEES4_S4_bifb
000000710014DCD0=_ZNK24ItemStatePlayerHoldParam16getPlayerHoldPosEPKN2al9HitSensorE
000000710014DD40=_ZN19ItemStatePlayerHoldC1EPN2al9LiveActorEPK24ItemStatePlayerHoldParambb
000000710014DE00=_ZN19ItemStatePlayerHold4initEv
000000710014DE10=_ZN19ItemStatePlayerHold6appearEv
000000710014DE80=_ZN19ItemStatePlayerHold4killEv
000000710014DEF0=_ZN19ItemStatePlayerHold10receiveMsgEPKN2al9SensorMsgEPNS0_9HitSensorES5_
000000710014DFC0=_ZN19ItemStatePlayerHold15tryStartCarryUpEPKN2al9SensorMsgEPNS0_9HitSensorEb
000000710014E020=_ZN19ItemStatePlayerHold18tryStartCarryFrontEPKN2al9SensorMsgEPNS0_9HitSensorEb
000000710014E080=_ZN19ItemStatePlayerHold19initColliderControlEv
000000710014E0C0=_ZN19ItemStatePlayerHold14updateColliderEPN2al9HitSensorE
000000710014E0E0=_ZN19ItemStatePlayerHold7exeHoldEv
000000710014E4F0=_ZN19ItemStatePlayerHoldD0Ev
000000710014E530=_ZN19ItemStatePopUpAboveC2EPN2al9LiveActorE
000000710014E590=_ZN19ItemStatePopUpAbove4initEv
000000710014E5A0=_ZN19ItemStatePopUpAbove6appearEv
000000710014E610=_ZN19ItemStatePopUpAbove4killEv
000000710014E640=_ZN19ItemStatePopUpAbove8exePunchEv
000000710014E710=_ZN19ItemStatePopUpAbove7exeFallEv
000000710014E7F0=_ZN19ItemStatePopUpAboveD0Ev
000000710014E840=_ZN24ItemStatePopUpFrontParamC1ERKS_
000000710014E930=_ZN24ItemStatePopUpFrontParamC1ERKN4sead7Vector3IfEEffifbPKcbf
000000710014EAD0=_ZN24ItemStatePopUpFrontParam10setDefaultEv
000000710014EC00=_ZN19ItemStatePopUpFrontC1EPN2al9LiveActorE
000000710014EC70=_ZN24ItemStatePopUpFrontParamC2Ev
000000710014EE80=_ZN19ItemStatePopUpFront4initEv
000000710014EE90=_ZN19ItemStatePopUpFront6appearEv
000000710014EEF0=_ZN19ItemStatePopUpFront4killEv
000000710014EF60=_ZN19ItemStatePopUpFront15setParamDefaultEv
000000710014F090=_ZN19ItemStatePopUpFront20setParamDefaultAboveEv
000000710014F200=_ZN19ItemStatePopUpFront15setParamReleaseEPKN2al9HitSensorE
000000710014F3E0=_ZN19ItemStatePopUpFront17setParamBallPopUpEv
000000710014F560=_ZN19ItemStatePopUpFront17setParamBallAboveEv
000000710014F6E0=_ZN19ItemStatePopUpFront25setParamKinopioNpcTakeOutEv
000000710014F900=_ZN19ItemStatePopUpFront16setParamAnimNameEPKc
000000710014F9B0=_ZN19ItemStatePopUpFront34setParamBossBirdKinopicoNpcTakeOutEv
000000710014FBD0=_ZN19ItemStatePopUpFront17setParamOnCollideEv
000000710014FBE0=_ZN19ItemStatePopUpFront8setParamERK24ItemStatePopUpFrontParamPKN2al9HitSensorE
000000710014FD80=_ZN19ItemStatePopUpFront10receiveMsgEPKN2al9SensorMsgEPNS0_9HitSensorES5_
000000710014FDD0=_ZN19ItemStatePopUpFront8exePopUpEv
0000007100150060=_ZN19ItemStatePopUpFrontD2Ev
0000007100150070=_ZN19ItemStatePopUpFrontD0Ev
00000071001500B0=_ZN26ItemStateTakeOutFrontParamC1ERKS_
00000071001500E0=_ZN26ItemStateTakeOutFrontParamC1EPKcffRKN4sead7Vector3IfEE
0000007100150100=_ZN21ItemStateTakeOutFrontC1EPN2al9LiveActorERK26ItemStateTakeOutFrontParam
0000007100150170=_ZN21ItemStateTakeOutFront4initEv
0000007100150180=_ZN21ItemStateTakeOutFront10exeTakeOutEv
0000007100150210=_ZN21ItemStateTakeOutFront8setParamERK26ItemStateTakeOutFrontParam
0000007100150240=_ZN21ItemStateTakeOutFrontD0Ev
0000007100150280=_ZN18KarakuriCastleDoorC2EPKc
0000007100150330=_ZN18KarakuriCastleDoorC1EPKc
00000071001503F0=_ZN18KarakuriCastleDoor4initERKN2al13ActorInitInfoE
0000007100150520=_ZN18KarakuriCastleDoor10receiveMsgEPKN2al9SensorMsgEPNS0_9HitSensorES5_
0000007100150590=_ZN18KarakuriCastleDoor12startClippedEv
00000071001505E0=_ZN18KarakuriCastleDoor11exeOpenWaitEv
00000071001506A0=_ZN18KarakuriCastleDoor12exeOpenReadyEv
00000071001506B0=_ZN18KarakuriCastleDoor10exeOpeningEv
00000071001507C0=_ZN18KarakuriCastleDoor13exeOpenFinishEv
0000007100150800=_ZN18KarakuriCastleDoor8setParamEiif
0000007100150810=_ZN18KarakuriCastleDoor9startOpenERKN4sead7Vector3IfEEi
0000007100150880=_ZNK18KarakuriCastleDoor11isOpenReadyEv
0000007100150890=_ZNK18KarakuriCastleDoor9isOpeningEv
00000071001508A0=_ZNK18KarakuriCastleDoor6isOpenEv
00000071001508F0=_ZN18KarakuriCastleDoorD1Ev
0000007100150900=_ZN18KarakuriCastleDoorD0Ev
0000007100150950=nullsub_94
0000007100150A60=_ZN15KeyMoveLoopLiftC2EPKc
0000007100150AF0=_ZN15KeyMoveLoopLiftC1EPKc
0000007100150B90=_ZN15KeyMoveLoopLift4initERKN2al13ActorInitInfoE
0000007100150C10=_ZN15KeyMoveLoopLift10receiveMsgEPKN2al9SensorMsgEPNS0_9HitSensorES5_
0000007100150C80=_ZN15KeyMoveLoopLift12startStandByEv
0000007100150CF0=_ZN15KeyMoveLoopLift5startEv
0000007100150D50=_ZN15KeyMoveLoopLift21startAppearAndStandByEv
0000007100150DD0=_ZN15KeyMoveLoopLift11startAppearEv
0000007100150E40=_ZNK15KeyMoveLoopLift12isStandByEndEv
0000007100150E70=_ZN15KeyMoveLoopLift10exeStandByEv
0000007100150E80=_ZN15KeyMoveLoopLift9exeAppearEv
0000007100150EE0=_ZN15KeyMoveLoopLift12exeStartSignEv
0000007100150F40=_ZN15KeyMoveLoopLift7exeWaitEv
0000007100150FD0=_ZN15KeyMoveLoopLift11exeMoveSignEv
0000007100151030=_ZN15KeyMoveLoopLift7exeMoveEv
0000007100151160=_ZN15KeyMoveLoopLift11exeStopSignEv
00000071001511C0=_ZN15KeyMoveLoopLift7exeStopEv
0000007100151210=_ZN15KeyMoveLoopLiftD1Ev
0000007100151220=_ZN15KeyMoveLoopLiftD0Ev
0000007100151250=nullsub_95
0000007100151450=_ZN2al18KeyMoveStartActionC2EPKc
0000007100151500=_ZN2al18KeyMoveStartActionC1EPKc
00000071001515C0=_ZN2al18KeyMoveStartAction4initERKNS_13ActorInitInfoE
00000071001517C0=_ZN2al18KeyMoveStartAction5startEv
0000007100151860=_ZN2al18KeyMoveStartAction4stopEv
0000007100151930=_ZN2al18KeyMoveStartAction10receiveMsgEPKNS_9SensorMsgEPNS_9HitSensorES5_
0000007100151A30=_ZN2al18KeyMoveStartAction7controlEv
0000007100151A90=_ZN2al18KeyMoveStartAction17appearAndSetStartEv
0000007100151B20=_ZN2al18KeyMoveStartAction10exeStandByEv
0000007100151B30=_ZN2al18KeyMoveStartAction8exeDelayEv
0000007100151B80=_ZN2al18KeyMoveStartAction7exeWaitEv
0000007100151C60=_ZN2al18KeyMoveStartAction8exeStartEv
0000007100151C70=_ZN2al18KeyMoveStartAction7exeMoveEv
0000007100151E70=_ZN2al18KeyMoveStartAction11exeMoveSignEv
0000007100151ED0=_ZN2al18KeyMoveStartAction11exeStopSignEv
0000007100151F30=_ZN2al18KeyMoveStartAction7exeStopEv
0000007100151FC0=_ZN2al18KeyMoveStartActionD1Ev
0000007100151FD0=_ZN2al18KeyMoveStartActionD0Ev
0000007100152000=nullsub_96
0000007100152270=_ZNK2al10FunctorV0MIPNS_18KeyMoveStartActionEMS1_FvvEEclEv
0000007100152290=_ZNK2al10FunctorV0MIPNS_18KeyMoveStartActionEMS1_FvvEE5cloneEv
00000071001523B0=_ZN9KinokoBigC2EPKc
0000007100152430=_ZN9KinokoBigC1EPKc
00000071001524B0=_ZN9KinokoBig4initERKN2al13ActorInitInfoE
00000071001525D0=_ZN9KinokoBig6appearEv
0000007100152600=_ZN9KinokoBig12attackSensorEPN2al9HitSensorES2_
0000007100152690=_ZN9KinokoBig10receiveMsgEPKN2al9SensorMsgEPNS0_9HitSensorES5_
00000071001527F0=_ZN9KinokoBig21receiveMsgScreenPointEPKN2al9SensorMsgEPNS0_13ScreenPointerEPNS0_17ScreenPointTargetE
0000007100152800=_ZN9KinokoBig7controlEv
0000007100152860=_ZN9KinokoBig16appearPopUpFrontEv
00000071001529C0=_ZN9KinokoBig16appearPopUpFrontERK24ItemStatePopUpFrontParam
0000007100152A20=_ZN9KinokoBig13exePopUpFrontEv
0000007100152A50=_ZN9KinokoBig10exeRunawayEv
0000007100152AD0=_ZN9KinokoBigD1Ev
0000007100152AE0=_ZN9KinokoBigD0Ev
0000007100152BC0=_ZN11KinokoOneUpC2EPKcP10ItemBubble
0000007100152C60=_ZN11KinokoOneUpC1EPKcP10ItemBubble
0000007100152D00=_ZN11KinokoOneUp4initERKN2al13ActorInitInfoE
0000007100152EB0=_ZN11KinokoOneUp24appearPopUpFrontBySwitchEv
0000007100152F30=_ZN11KinokoOneUp18initAfterPlacementEv
0000007100152F80=_ZN11KinokoOneUp6appearEv
0000007100152FD0=_ZN11KinokoOneUp7controlEv
0000007100153040=_ZN11KinokoOneUp10receiveMsgEPKN2al9SensorMsgEPNS0_9HitSensorES5_
0000007100153200=_ZNK11KinokoOneUp18isEnableMsgItemGetEPKN2al9SensorMsgE
0000007100153260=_ZN11KinokoOneUp21receiveMsgScreenPointEPKN2al9SensorMsgEPNS0_13ScreenPointerEPNS0_17ScreenPointTargetE
00000071001532A0=_ZN11KinokoOneUp10appearWaitEv
00000071001532E0=_ZN11KinokoOneUp16appearPopUpFrontEv
0000007100153330=_ZN11KinokoOneUp16appearPopUpAboveEv
0000007100153390=_ZN11KinokoOneUp34appearPopUpAboveConnectToCollisionEv
0000007100153430=_ZN11KinokoOneUp30appearPopUpFrontFromKinopioNpcEv
00000071001534A0=_ZN11KinokoOneUp39appearPopUpFrontFromBossBirdKinopicoNpcEv
0000007100153500=_ZN11KinokoOneUp17appearItemTakeOutEv
0000007100153560=_ZN11KinokoOneUp14appearForceGetEPKN2al9HitSensorE
00000071001535F0=_ZN11KinokoOneUp7exeWaitEv
0000007100153650=_ZN11KinokoOneUp11exeLandWaitEv
00000071001536C0=_ZN11KinokoOneUp15exeAttachBubbleEv
0000007100153720=_ZN11KinokoOneUp13exeAppearWaitEv
0000007100153780=_ZN11KinokoOneUp13exePopUpFrontEv
0000007100153830=_ZN11KinokoOneUp13exePopUpAboveEv
00000071001538E0=_ZN11KinokoOneUp10exeRunawayEv
00000071001539A0=_ZN11KinokoOneUp11exeForceGetEv
0000007100153A30=_ZN11KinokoOneUpD1Ev
0000007100153A40=_ZN11KinokoOneUpD0Ev
0000007100153C70=_ZNK2al10FunctorV0MIP11KinokoOneUpMS1_FvvEEclEv
0000007100153C90=_ZNK2al10FunctorV0MIP11KinokoOneUpMS1_FvvEE5cloneEv
0000007100153DF0=_ZN18KinokoStateRunawayC2EPN2al9LiveActorE
0000007100153E40=_ZN18KinokoStateRunaway4initEv
0000007100153E50=_ZN18KinokoStateRunaway6appearEv
0000007100153E90=_ZN18KinokoStateRunaway10receiveMsgEPKN2al9SensorMsgEPNS0_9HitSensorES5_
0000007100153EE0=_ZN18KinokoStateRunaway4moveEfffff
00000071001540E0=_ZN18KinokoStateRunaway7exeLandEv
00000071001541A0=_ZN18KinokoStateRunaway7exeMoveEv
0000007100154250=_ZN18KinokoStateRunaway11exeReactionEv
0000007100154360=_ZN18KinokoStateRunawayD0Ev
00000071001543C0=_ZN11KinokoSuperC2EPKcP10ItemBubble
0000007100154460=_ZN11KinokoSuperC1EPKcP10ItemBubble
0000007100154500=_ZN11KinokoSuper4initERKN2al13ActorInitInfoE
00000071001546E0=_ZN11KinokoSuper16appearPopUpFrontEv
0000007100154750=_ZN11KinokoSuper18initAfterPlacementEv
0000007100154790=_ZN11KinokoSuper6appearEv
00000071001547F0=_ZN11KinokoSuper4killEv
0000007100154800=_ZN11KinokoSuper10receiveMsgEPKN2al9SensorMsgEPNS0_9HitSensorES5_
0000007100154B90=_ZN11KinokoSuper21receiveMsgScreenPointEPKN2al9SensorMsgEPNS0_13ScreenPointerEPNS0_17ScreenPointTargetE
0000007100154BD0=_ZN11KinokoSuper7controlEv
0000007100154C30=_ZN11KinokoSuper30appearPopUpFrontFromKinopioNpcEv
0000007100154CB0=_ZN11KinokoSuper39appearPopUpFrontFromBossBirdKinopicoNpcEv
0000007100154D30=_ZN11KinokoSuper25appearPopUpFrontNoRunawayEv
0000007100154D90=_ZN11KinokoSuper16appearPopUpAboveEv
0000007100154E00=_ZN11KinokoSuper34appearPopUpAboveConnectToCollisionEv
0000007100154EB0=_ZN11KinokoSuper17appearItemTakeOutEv
0000007100154F20=_ZN11KinokoSuper7exeWaitEv
0000007100154F90=_ZN11KinokoSuper15exeAttachBubbleEv
0000007100154FF0=_ZN11KinokoSuper13exePopUpFrontEv
0000007100155090=_ZN11KinokoSuper13exePopUpAboveEv
0000007100155170=_ZN11KinokoSuper10exeRunawayEv
00000071001552A0=_ZN11KinokoSuper7exeLandEv
0000007100155340=_ZN11KinokoSuperD1Ev
0000007100155350=_ZN11KinokoSuperD0Ev
0000007100155550=_ZNK2al10FunctorV0MIP11KinokoSuperMS1_FvvEEclEv
0000007100155570=_ZNK2al10FunctorV0MIP11KinokoSuperMS1_FvvEE5cloneEv
00000071001555C0=_ZN14KinokoTreasureC2EPKcP10ItemBubble
0000007100155660=_ZN14KinokoTreasureC1EPKcP10ItemBubble
0000007100155700=_ZN14KinokoTreasure4initERKN2al13ActorInitInfoE
00000071001558E0=_ZN14KinokoTreasure16appearPopUpFrontEv
0000007100155980=_ZN14KinokoTreasure18initAfterPlacementEv
00000071001559E0=_ZN14KinokoTreasure6appearEv
0000007100155A50=_ZN14KinokoTreasure4killEv
0000007100155A60=_ZN14KinokoTreasure10receiveMsgEPKN2al9SensorMsgEPNS0_9HitSensorES5_
0000007100155D90=_ZN14KinokoTreasure21receiveMsgScreenPointEPKN2al9SensorMsgEPNS0_13ScreenPointerEPNS0_17ScreenPointTargetE
0000007100155DD0=_ZN14KinokoTreasure7controlEv
0000007100155E30=_ZN14KinokoTreasure25appearPopUpFrontNoRunawayEv
0000007100155ED0=_ZN14KinokoTreasure16appearPopUpAboveEv
0000007100155F80=_ZN14KinokoTreasure34appearPopUpAboveConnectToCollisionEv
0000007100156070=_ZN14KinokoTreasure17appearItemTakeOutEv
0000007100156120=_ZN14KinokoTreasure7exeWaitEv
0000007100156190=_ZN14KinokoTreasure15exeAttachBubbleEv
00000071001561F0=_ZN14KinokoTreasure13exePopUpFrontEv
0000007100156240=_ZN14KinokoTreasure13exePopUpAboveEv
0000007100156320=_ZN14KinokoTreasure10exeRunawayEv
0000007100156430=_ZN14KinokoTreasure7exeLandEv
00000071001564D0=_ZN14KinokoTreasureD1Ev
00000071001564E0=_ZN14KinokoTreasureD0Ev
0000007100156720=_ZNK2al10FunctorV0MIP14KinokoTreasureMS1_FvvEEclEv
0000007100156740=_ZNK2al10FunctorV0MIP14KinokoTreasureMS1_FvvEE5cloneEv
0000007100156790=_ZN21KinopioBrigadeCheckerC2EPKc
0000007100156850=_ZN21KinopioBrigadeCheckerC1EPKc
00000071001568F0=_ZN21KinopioBrigadeChecker4initERKN2al13ActorInitInfoE
0000007100156EE0=_ZN21KinopioBrigadeChecker10receiveMsgEPKN2al9SensorMsgEPNS0_9HitSensorES5_
0000007100156FB0=_ZNK21KinopioBrigadeChecker6isGoalEv
0000007100157010=_ZThn264_NK21KinopioBrigadeChecker6isGoalEv
0000007100157070=_ZNK21KinopioBrigadeChecker13isEndGoalDemoEv
0000007100157080=_ZThn264_NK21KinopioBrigadeChecker13isEndGoalDemoEv
0000007100157090=_ZN21KinopioBrigadeChecker12setPlayerNpcEP9PlayerNpc
00000071001570B0=_ZN21KinopioBrigadeChecker15killClearLayoutEv
00000071001570C0=_ZNK21KinopioBrigadeChecker18isGoalItemAcquiredEv
00000071001570D0=_ZNK21KinopioBrigadeChecker14isGoalPoseDemoEv
0000007100157110=_ZNK21KinopioBrigadeChecker20isTriggerGoalPoseEndEv
0000007100157190=_ZNK21KinopioBrigadeChecker14isWipeCloseEndEv
0000007100157200=_ZN21KinopioBrigadeChecker14getGoalItemPosEv
0000007100157220=_ZN21KinopioBrigadeChecker20calcGoalItemFrontDirEPN4sead7Vector3IfEE
0000007100157230=_ZN21KinopioBrigadeChecker11exeCheckingEv
0000007100157590=_ZNK21KinopioBrigadeChecker28findNearestDemoStartPositionEv
0000007100157750=_ZN21KinopioBrigadeChecker11exeGoalDemoEv
0000007100157820=_ZN21KinopioBrigadeChecker17exeLastBeforeDemoEv
0000007100157880=_ZN21KinopioBrigadeChecker17exeClearAfterDemoEv
00000071001578E0=_ZN21KinopioBrigadeChecker6exeEndEv
00000071001578F0=_ZN21KinopioBrigadeCheckerD1Ev
0000007100157900=_ZN21KinopioBrigadeCheckerD0Ev
0000007100157930=_ZNK21KinopioBrigadeChecker15getSceneObjNameEv
0000007100157940=_ZThn272_NK21KinopioBrigadeChecker15getSceneObjNameEv
0000007100157A30=nullsub_97
0000007100157A40=_ZN13KoopaChaseCarC2EPKc
0000007100157AD0=_ZN13KoopaChaseCarC1EPKc
0000007100157B60=_ZN13KoopaChaseCar4initERKN2al13ActorInitInfoE
0000007100157CA0=_ZN13KoopaChaseCar10receiveMsgEPKN2al9SensorMsgEPNS0_9HitSensorES5_
0000007100157DF0=_ZN13KoopaChaseCar7exeWaitEv
0000007100157E80=_ZN13KoopaChaseCar11exeReactionEv
0000007100158190=_ZN13KoopaChaseCar12startClippedEv
00000071001581D0=_ZN13KoopaChaseCarD1Ev
00000071001581E0=_ZN13KoopaChaseCarD0Ev
00000071001582C0=_ZN14KoopaSignBoardC2EPKc
0000007100158340=_ZN14KoopaSignBoardC1EPKc
00000071001583C0=_ZN14KoopaSignBoard4initERKN2al13ActorInitInfoE
00000071001585A0=_ZN14KoopaSignBoard12attackSensorEPN2al9HitSensorES2_
0000007100158620=_ZN14KoopaSignBoard10receiveMsgEPKN2al9SensorMsgEPNS0_9HitSensorES5_
00000071001588D0=_ZNK14KoopaSignBoard12isTouchFrontEPKN2al9HitSensorE
0000007100158960=_ZN14KoopaSignBoard14setScoreSensorEPKN2al9SensorMsgEPNS0_9HitSensorE
0000007100158970=_ZN14KoopaSignBoard7exeWaitEv
00000071001589B0=_ZN14KoopaSignBoard17exeBreakSignFrontEv
0000007100158A10=_ZN14KoopaSignBoard16exeBreakSignBackEv
0000007100158A70=_ZN14KoopaSignBoard13exeBreakFrontEv
0000007100158B10=_ZN14KoopaSignBoard16addScoreToSensorEv
0000007100158B30=_ZN14KoopaSignBoard12exeBreakBackEv
0000007100158BD0=_ZN14KoopaSignBoard16exeBreakAttackedEv
0000007100158C40=_ZN14KoopaSignBoard11exeBreakEndEv
0000007100158CB0=_ZN14KoopaSignBoard16exeBreakEndFrontEv
0000007100158D20=_ZN14KoopaSignBoard15exeBreakEndBackEv
0000007100158D90=_ZN14KoopaSignBoardD1Ev
0000007100158DA0=_ZN14KoopaSignBoardD0Ev
00000071001590E0=_ZN6LadderC2EPKc
00000071001591B0=_ZN6LadderC1EPKc
0000007100159280=_ZN6Ladder4initERKN2al13ActorInitInfoE
0000007100159AD0=_ZN6Ladder19calcLadderBaseTransEPN4sead7Vector3IfEEj
0000007100159B10=_ZN6Ladder8validateEv
0000007100159B30=_ZN6Ladder10invalidateEv
0000007100159B80=_ZN6Ladder18initAfterPlacementEv
0000007100159D10=_ZN6Ladder17makeActorAppearedEv
0000007100159D70=_ZN6Ladder13makeActorDeadEv
0000007100159E10=_ZN6Ladder7controlEv
000000710015A150=_ZN6Ladder18checkLadderOverlapEP21LadderClimbControllerRKN4sead7Vector3IfEE
000000710015A200=_ZN6Ladder27isEnableSendTrampleMsgLocalEPN2al9HitSensorES2_
000000710015A260=_ZN6Ladder12attackSensorEPN2al9HitSensorES2_
000000710015A2F0=_ZN6Ladder10receiveMsgEPKN2al9SensorMsgEPNS0_9HitSensorES5_
000000710015A500=_ZN6LadderD1Ev
000000710015A510=_ZN6LadderD0Ev
000000710015A540=_ZN10LadderUnitD1Ev
000000710015A550=_ZN10LadderUnitD0Ev
000000710015A580=_ZNK2al10FunctorV0MIP6LadderMS1_FvvEEclEv
000000710015A5A0=_ZNK2al10FunctorV0MIP6LadderMS1_FvvEE5cloneEv
000000710015A5F0=_ZN21LadderClimbControllerC2EP6LadderPN2al9HitSensorE
000000710015A6B0=_ZN21LadderClimbController7controlEv
000000710015A890=_ZNK21LadderClimbController9isBindingEv
000000710015A940=_ZN21LadderClimbController13endLadderBindERKN4sead7Vector3IfEEbbb
000000710015A990=_ZN21LadderClimbController7exeWaitEv
000000710015AA20=_ZN21LadderClimbController18exeBindClimbHandleEv
000000710015AD30=_ZN21LadderClimbController11updateStickEv
000000710015AF60=_ZN21LadderClimbController16exeBindClimbWaitEv
000000710015B130=_ZN21LadderClimbController14exeBindClimbUpEv
000000710015B690=_ZN21LadderClimbController16exeBindClimbDownEv
000000710015BAF0=_ZN21LadderClimbController11exeBindLandEv
000000710015BCA0=_ZN21LadderClimbController10exeBindEndEv
000000710015C070=_ZN21LadderClimbController13exeIgnoreBindEv
000000710015C0B0=_ZN21LadderClimbController9tryDamageEPN2al9HitSensorE
000000710015C110=_ZN21LadderClimbController12tryBindStartEPN2al9HitSensorES2_
000000710015C490=_ZNK21LadderClimbController17isValidPlayerPoseEPN2al9HitSensorES2_b
000000710015C580=_ZN21LadderClimbController8bindInitEPN2al9HitSensorES2_
000000710015C700=_ZN21LadderClimbController23calcHandleTransAndFrontEv
000000710015CA60=_ZN21LadderClimbController11retainStickEb
000000710015CB90=_ZN21LadderClimbController10bindCancelEPN2al9HitSensorEb
000000710015CBF0=_ZNK21LadderClimbController17isBlockedOnLadderERKN4sead7Vector3IfEE
000000710015CD20=_ZN20LadderControllerList19isPlayerDummySensorEPN2al9HitSensorE
000000710015CD60=_ZN20LadderControllerList9tryDamageEPN2al9HitSensorE
000000710015CDF0=_ZN20LadderControllerList33isEnableSendTrampleMsgStatusLocalEPN2al9HitSensorES2_
000000710015CFB0=_ZN20LadderControllerList13isPlayerBoundEPN2al9HitSensorE
000000710015D020=_ZN20LadderControllerList16isAnyPlayerBoundEv
000000710015D060=_ZN20LadderControllerList12tryBindStartEPN2al9HitSensorES2_
000000710015D0F0=_ZN20LadderControllerList20getBoundPlayerSensorEv
000000710015D130=_ZN20LadderControllerList8bindInitEPN2al9HitSensorES2_
000000710015D1C0=_ZN20LadderControllerList13tryBindCancelEPN2al9HitSensorEb
000000710015D250=_ZN20LadderControllerList13endLadderBindEPN2al9HitSensorE
000000710015D350=_ZNK21LadderClimbController14getNerveKeeperEv
000000710015D4A0=_ZN11LanternRingC2EPKc
000000710015D540=_ZN11LanternRingC1EPKc
000000710015D5E0=_ZN11LanternRing4initERKN2al13ActorInitInfoE
000000710015D650=_ZN11LanternRing12setPrevTransEv
000000710015D680=_ZN11LanternRing11setPrevQuatEv
000000710015D6C0=_ZN11LanternRing7exeWaitEv
000000710015D6D0=_ZN11LanternRing12attackSensorEPN2al9HitSensorES2_
000000710015D730=_ZN11LanternRingD1Ev
000000710015D740=_ZN11LanternRingD0Ev
000000710015D770=nullsub_98
000000710015D780=_ZN20LanternSwingMovementC1Ev
000000710015D7E0=_ZN20LanternSwingMovement7exeMoveEv
000000710015D870=_ZN20LanternSwingMovement11updateSwingEv
000000710015D8E0=_ZN20LanternSwingMovement6exeEndEv
000000710015D8F0=_ZN20LanternSwingMovement10startSwingEv
000000710015D900=_ZN20LanternSwingMovement8setParamEifi
000000710015D910=_ZN20LanternSwingMovement16getCurrentRotateEv
000000710015D940=_ZNK20LanternSwingMovement5isEndEv
000000710015D950=_ZN20LanternSwingMovementD0Ev
000000710015DA10=nullsub_99
000000710015DA20=_ZN2al17LavaWorldSaucePanC2EPKc
000000710015DAA0=_ZN2al17LavaWorldSaucePanC1EPKc
000000710015DB20=_ZN2al17LavaWorldSaucePan4initERKNS_13ActorInitInfoE
000000710015DBA0=_ZN2al17LavaWorldSaucePan5startEv
000000710015DBF0=_ZN2al17LavaWorldSaucePan12exeStartWaveEv
000000710015DC90=_ZN2al17LavaWorldSaucePan7exeWaitEv
000000710015DD20=_ZN2al17LavaWorldSaucePan7exeWaveEv
000000710015DD30=_ZN2al17LavaWorldSaucePanD1Ev
000000710015DD40=_ZN2al17LavaWorldSaucePanD0Ev
000000710015DEA0=nullsub_100
000000710015DEB0=_ZNK2al10FunctorV0MIPNS_17LavaWorldSaucePanEMS1_FvvEEclEv
000000710015DED0=_ZNK2al10FunctorV0MIPNS_17LavaWorldSaucePanEMS1_FvvEE5cloneEv
000000710015DF20=_ZN2al4LiftC2EPKc
000000710015DFD0=_ZN2al4LiftC1EPKc
000000710015E080=_ZN2al4Lift4initERKNS_13ActorInitInfoE
000000710015E260=_ZN2al4Lift5startEv
000000710015E300=_ZN2al4Lift4stopEv
000000710015E3D0=_ZN2al4Lift10receiveMsgEPKNS_9SensorMsgEPNS_9HitSensorES5_
000000710015E4D0=_ZN2al4Lift7controlEv
000000710015E530=_ZN2al4Lift17appearAndSetStartEv
000000710015E5C0=_ZN2al4Lift10exeStandByEv
000000710015E5D0=_ZN2al4Lift8exeDelayEv
000000710015E620=_ZN2al4Lift7exeWaitEv
000000710015E700=_ZN2al4Lift11exeMoveSignEv
000000710015E760=_ZN2al4Lift7exeMoveEv
000000710015E8F0=_ZN2al4Lift11exeStopSignEv
000000710015E950=_ZN2al4Lift7exeStopEv
000000710015E9E0=_ZN2al4LiftD1Ev
000000710015E9F0=_ZN2al4LiftD0Ev
000000710015EA20=nullsub_101
000000710015EC70=_ZNK2al10FunctorV0MIPNS_4LiftEMS1_FvvEEclEv
000000710015EC90=_ZNK2al10FunctorV0MIPNS_4LiftEMS1_FvvEE5cloneEv
000000710015EDA0=_ZN8LiftMikeC2EPKc
000000710015EE70=_ZN8LiftMikeC1EPKc
000000710015EF40=_ZN8LiftMike4initERKN2al13ActorInitInfoE
000000710015F070=_ZN8LiftMike17makeActorAppearedEv
000000710015F0A0=_ZN8LiftMike7controlEv
000000710015F140=_ZN8LiftMike7exeWaitEv
000000710015F1B0=_ZN8LiftMike5exeUpEv
000000710015F390=_ZN8LiftMike14updateMovementEv
000000710015F480=_ZN8LiftMike16exeUpReleaseHighEv
000000710015F680=_ZN8LiftMike15exeUpReleaseLowEv
000000710015F8E0=_ZN8LiftMike10exeHoldTopEv
000000710015FBC0=_ZN8LiftMike7exeHoldEv
000000710015FE50=_ZN8LiftMike7exeDownEv
0000007100160000=_ZN8LiftMike16exeBottomVibrateEv
0000007100160220=_ZN8LiftMikeD1Ev
0000007100160230=_ZN8LiftMikeD0Ev
00000071001604A0=_ZN17LiftMikeBlockRailC2EPKc
0000007100160560=_ZN17LiftMikeBlockRailC1EPKc
0000007100160630=_ZN17LiftMikeBlockRail4initERKN2al13ActorInitInfoE
0000007100160850=_ZN17LiftMikeBlockRail7controlEv
0000007100160940=_ZN17LiftMikeBlockRail7exeWaitEv
0000007100160A50=_ZN17LiftMikeBlockRail7exeMoveEv
0000007100160B80=_ZN17LiftMikeBlockRail12exeVibrationEv
0000007100160D10=_ZN17LiftMikeBlockRail7exeHoldEv
0000007100160E00=_ZN17LiftMikeBlockRail7exeBackEv
0000007100160F20=_ZN17LiftMikeBlockRailD1Ev
0000007100160F30=_ZN17LiftMikeBlockRailD0Ev
0000007100160FB0=_ZN13LiftMikeGuideC2EPN2al9LiveActorE
0000007100161040=_ZN13LiftMikeGuideC1EPN2al9LiveActorE
00000071001610D0=_ZN13LiftMikeGuide4initERKN2al13ActorInitInfoE
00000071001611B0=_ZN13LiftMikeGuide7exeWaitEv
0000007100161280=_ZN13LiftMikeGuide6activeEv
00000071001612C0=_ZN13LiftMikeGuide8deactiveEv
0000007100161300=_ZN13LiftMikeGuideD1Ev
0000007100161310=_ZN13LiftMikeGuideD0Ev
0000007100161350=_ZN13LiftMikeSlideC2EPKc
0000007100161400=_ZN13LiftMikeSlideC1EPKc
00000071001614C0=_ZN13LiftMikeSlide4initERKN2al13ActorInitInfoE
00000071001615A0=_ZN13LiftMikeSlide17makeActorAppearedEv
00000071001615B0=_ZN13LiftMikeSlide7controlEv
0000007100161660=_ZN13LiftMikeSlide7exeWaitEv
00000071001616A0=_ZN13LiftMikeSlide7exeMoveEv
00000071001616C0=_ZN13LiftMikeSlide10updateMoveEv
00000071001619C0=_ZN13LiftMikeSlide7exeHoldEv
0000007100161A20=_ZN13LiftMikeSlide7exeBackEv
0000007100161A90=_ZN13LiftMikeSlideD1Ev
0000007100161AA0=_ZN13LiftMikeSlideD0Ev
0000007100161CC0=_ZN20LogForestWaterPillarC2EPKc
0000007100161D70=_ZN20LogForestWaterPillarC1EPKc
0000007100161E20=_ZN20LogForestWaterPillar4initERKN2al13ActorInitInfoE
0000007100162060=_ZN20LogForestWaterPillar5startEv
00000071001620F0=_ZN20LogForestWaterPillar4killEv
0000007100162130=_ZN20LogForestWaterPillar10receiveMsgEPKN2al9SensorMsgEPNS0_9HitSensorES5_
0000007100162220=_ZN20LogForestWaterPillar7controlEv
0000007100162280=_ZN20LogForestWaterPillar17appearAndSetStartEv
00000071001622D0=_ZN20LogForestWaterPillar10exeStandByEv
0000007100162310=_ZN20LogForestWaterPillar8exeDelayEv
0000007100162360=_ZN20LogForestWaterPillar7exeWaitEv
00000071001623D0=_ZN20LogForestWaterPillar12exeDownFirstEv
0000007100162430=_ZN20LogForestWaterPillar5exeUpEv
0000007100162490=_ZN20LogForestWaterPillar9exeUpWaitEv
00000071001624F0=_ZN20LogForestWaterPillar7exeDownEv
0000007100162550=_ZN20LogForestWaterPillar11exeDownWaitEv
00000071001625B0=_ZN20LogForestWaterPillarD1Ev
00000071001625C0=_ZN20LogForestWaterPillarD0Ev
00000071001628D0=_ZNK2al10FunctorV0MIP20LogForestWaterPillarMS1_FvvEEclEv
00000071001628F0=_ZNK2al10FunctorV0MIP20LogForestWaterPillarMS1_FvvEE5cloneEv
0000007100162940=_ZN18LongExpressStepTopC2EPKc
00000071001629B0=_ZN18LongExpressStepTopC1EPKc
0000007100162A30=_ZN18LongExpressStepTop7controlEv
0000007100162B70=_ZN18LongExpressStepTopD1Ev
0000007100162B80=_ZN18LongExpressStepTopD0Ev
0000007100162BB0=_ZN4MazeC2EPKcPS_
0000007100162CB0=_ZN4MazeC1EPKcPS_
0000007100162DB0=_ZN4MazeD2Ev
0000007100162F40=_ZN4MazeD1Ev
0000007100162F50=_ZN4MazeD0Ev
0000007100162F80=_ZN4Maze4initERKN2al13ActorInitInfoE
0000007100163470=_ZN4Maze14initMazeBufferEv
00000071001634D0=_ZN4Maze10copyBlocksEv
0000007100163580=_ZN4Maze10initBlocksERKN2al13ActorInitInfoE
0000007100163930=_ZN4Maze11createItemsERKN2al13ActorInitInfoE
00000071001639B0=_ZN4Maze10createMazeEv
0000007100164050=_ZN4Maze14appearBySwitchEv
00000071001640A0=_ZN4Maze15killAllBlockSetEv
00000071001641C0=_ZN4Maze18initAfterPlacementEv
0000007100164200=_ZN4Maze21resetBlockSetPositionEv
00000071001645D0=_ZN4Maze9getRandomEi
0000007100164600=_ZNK4Maze12isExtraSpaceEii
0000007100164650=_ZN4Maze19fillSpaceBufOrdinalEi
00000071001646F0=_ZN4Maze15shuffleSpaceBufEi
0000007100164770=_ZN4Maze12arrangeItemsEv
0000007100164BD0=_ZN4Maze12shuffleSpaceEv
0000007100164CE0=_ZN4Maze12acquireSpaceEPN4sead7Vector3IfEE
0000007100164DB0=_ZNK4Maze12calcSpacePosEPN4sead7Vector3IfEEi
0000007100164E50=_ZN4Maze24calcAppearDoubleMarioNumERKN2al13ActorInitInfoE
00000071001650B0=_ZNK4Maze14selectFloorSetEv
0000007100165180=_ZNK2al10FunctorV0MIP4MazeMS1_FvvEEclEv
00000071001651A0=_ZNK2al10FunctorV0MIP4MazeMS1_FvvEE5cloneEv
00000071001651F0=_ZN9MazeFloorC2EPKc
0000007100165280=_ZN9MazeFloorC1EPKc
0000007100165310=_ZN9MazeFloor4initERKN2al13ActorInitInfoE
0000007100165400=_ZN9MazeFloor14initMazeBufferEv
0000007100165430=_ZN9MazeFloor10initBlocksERKN2al13ActorInitInfoE
00000071001656F0=_ZN9MazeFloor10createMazeEv
0000007100165840=_ZN9MazeFloorD1Ev
0000007100165850=_ZN9MazeFloorD0Ev
0000007100165880=_ZNK2al10FunctorV0MIP9MazeFloorMS1_FvvEEclEv
00000071001658A0=_ZNK2al10FunctorV0MIP9MazeFloorMS1_FvvEE5cloneEv
00000071001658F0=_ZN12MazeFunction10createMazeEPbjjRN4sead6RandomE
0000007100165CB0=_ZN16MazeItemFloorSetC2ERKN2al13ActorInitInfoE
0000007100165EC0=_ZN16MazeItemFloorSet16makeAllActorDeadEv
0000007100165FD0=_ZN16MazeItemFloorSet7shuffleEv
0000007100166030=_ZN16MazeItemFloorSet8nextItemEv
0000007100166070=_ZN16MazeItemFloorSet12nextRareItemEv
00000071001660B0=_ZNK16MazeItemFloorSet19getShuffleItemCountEv
00000071001660C0=_ZNK16MazeItemFloorSet13isKillerFloorEv
00000071001660D0=_ZN13MazeItemGroupC2EPKc
0000007100166150=_ZN13MazeItemGroupC1EPKc
00000071001661D0=_ZN13MazeItemGroup4initERKN2al13ActorInitInfoE
0000007100166360=_ZN13MazeItemGroup13makeActorDeadEv
00000071001663C0=_ZN13MazeItemGroup10receiveMsgEPKN2al9SensorMsgEPNS0_9HitSensorES5_
0000007100166580=_ZN13MazeItemGroupD1Ev
0000007100166590=_ZN13MazeItemGroupD0Ev
00000071001665C0=_ZN8MoleMazeC2EPKc
00000071001668B0=_ZN8MoleMazeC1EPKc
0000007100166BA0=_ZN8MoleMazeD2Ev
0000007100166D30=_ZN8MoleMazeD1Ev
0000007100166D40=_ZN8MoleMazeD0Ev
0000007100166D70=_ZN8MoleMaze4initERKN2al13ActorInitInfoE
0000007100166F90=_ZN8MoleMaze14initMazeBufferERKN2al13ActorInitInfoE
0000007100167190=_ZN8MoleMaze12initWarpCubeERKN2al13ActorInitInfoE
0000007100167270=_ZN8MoleMaze12initWarpMoleERKN2al13ActorInitInfoE
0000007100167310=_ZN8MoleMaze14initChildMazesERKN2al13ActorInitInfoE
00000071001677F0=_ZN8MoleMaze11createItemsERKN2al13ActorInitInfoE
0000007100167880=_ZN8MoleMaze10createMazeEv
0000007100167E70=_ZN8MoleMaze18initAfterPlacementEv
0000007100167EF0=_ZN8MoleMaze14appearBySwitchEv
0000007100167F20=_ZN8MoleMaze9getRandomEi
0000007100167F50=_ZN8MoleMaze10resetTilesEv
0000007100168050=_ZN8MoleMaze19shuffleBonusMolePosEv
00000071001683C0=_ZN8MoleMaze23removeTileTypeFromBoardEj
0000007100168440=_ZN8MoleMaze24checkerboardPatternCheckEPNS_8MazeTileE
0000007100168580=_ZN8MoleMaze8MazeTile14selectRandTileEi
00000071001685F0=_ZN8MoleMaze26removeAdjTilePossibilitiesERKNS_8MazeTileEi
0000007100168910=_ZN8MoleMaze14enclosureCheckEv
0000007100168C00=_ZNK8MoleMaze14selectFloorSetEv
0000007100168CD0=_ZN8MoleMaze15placeBlockHardsEv
00000071001691B0=_ZN8MoleMaze12arrangeItemsEv
00000071001696B0=_ZN8MoleMaze12shuffleSpaceEv
0000007100169840=_ZN8MoleMaze19fillSpaceBufOrdinalEv
0000007100169960=_ZN8MoleMaze15shuffleSpaceBufEi
00000071001699D0=_ZN8MoleMaze12acquireSpaceEPN4sead7Vector3IfEE
0000007100169AF0=_ZN8MoleMaze12calcSpacePosEPN4sead7Vector3IfEEi
0000007100169BE0=_ZN8MoleMaze21getValidMoveDirectionERKN4sead7Vector3IfEEPh
0000007100169DC0=_ZN8MoleMaze14checkValidMoveEhi
0000007100169DF0=_ZN8MoleMaze10getTilePosERKN4sead7Vector3IfEEPiS5_
0000007100169E80=_ZN8MoleMaze17getTilePosByIndexEii
0000007100169F00=_ZN8MoleMaze13snapPosToGridEPN4sead7Vector3IfEE
000000710016A040=_ZN8MoleMaze23getValidInitialPositionEPN4sead7Vector3IfEE
000000710016A090=_ZN8MoleMaze15resetBlockHardsEv
000000710016A160=_ZN8MoleMaze18preTransitionSetupEv
000000710016A190=_ZN8MoleMaze10transitionEv
000000710016A1C0=_ZN8MoleMaze19postTransitionSetupEv
000000710016A280=_ZN8MoleMaze13killMazeItemsEv
000000710016A2A0=_ZN8MoleMaze33getBonusMolePlacementAndDirectionEPN4sead7Vector3IfEEPhS3_S3_
000000710016A660=_ZNK8MoleMaze21isShortBlockPositionsEiii
000000710016A6D0=_ZN8MoleMaze17getShortBlockHardEv
000000710016A700=_ZN8MoleMaze12getBlockHardEv
000000710016A730=_ZN8MoleMaze19tryAddTilePlacementEiiRKN4sead7Vector3IfEE
000000710016A7DC=def_710016A788
000000710016A820=_ZN8MoleMaze12placeCeilingEv
000000710016A9D0=_ZN8MoleMaze15tryGetBlockHardEv
000000710016AA10=_ZN8MoleMaze23arrangeItemsKillerFloorEv
000000710016ADB4=def_710016AD94
000000710016B0F0=def_710016B08C
000000710016B3F0=_ZN8MoleMaze21selectKillerPlacementEiiiPiPh
000000710016B498=def_710016B48C
000000710016B510=_ZN8MoleMaze18selectKillerFacingEiiiPi
000000710016B5D0=_ZN8MoleMaze21removeKillersInFacingEiiiiiPi
000000710016B8B8=def_710016B758
000000710016B8D0=_ZN8MoleMaze8MazeTile11removeTilesEj
000000710016B8E0=_ZN8MoleMaze20removeKillerPositionEiihiPi
000000710016B900=_ZN8MoleMaze17checkKillerFacingEiiii
000000710016B9B0=_ZN8MoleMaze18cleanKillerShuffleEiPi
000000710016B9C0=_ZNK8MoleMaze15selectRandomBitEiiPi
000000710016B9D0=_ZN8MoleMaze14rotateTileBitsEji
000000710016BA10=_ZN8MoleMaze8MazeTile19selectRandPlacementEiPN4sead7Vector3IfEE
000000710016BAC0=_ZN8MoleMaze8MazeTile5resetEv
000000710016BAE0=_ZN8MoleMaze8MazeTile20addPlacementPositionERKN4sead7Vector3IfEE
000000710016BB30=_ZN8MoleMaze8MazeTileC2Ev
000000710016BB50=_ZN8MoleMaze8MazeTile8addTilesEj
000000710016BB60=_ZN8MoleMaze8MazeTile7isValidEv
000000710016BB70=_ZNK2al10FunctorV0MIP8MoleMazeMS1_FvvEEclEv
000000710016BB90=_ZNK2al10FunctorV0MIP8MoleMazeMS1_FvvEE5cloneEv
000000710016BBE0=_ZN20MoleMazeItemFloorSetC2ERKN2al13ActorInitInfoE
000000710016BED0=_ZN20MoleMazeItemFloorSet9initArrayEPN4sead8PtrArrayIN2al9LiveActorEEEPjPKcRK19ProjectActorFactoryRKNS2_13ActorInitInfoE
000000710016BFA0=_ZN20MoleMazeItemFloorSet16makeAllActorDeadEv
000000710016C150=_ZN20MoleMazeItemFloorSet9killArrayEPN4sead8PtrArrayIN2al9LiveActorEEE
000000710016C1E0=_ZN20MoleMazeItemFloorSet7shuffleEv
000000710016C290=_ZN20MoleMazeItemFloorSet8nextItemEv
000000710016C340=_ZN20MoleMazeItemFloorSet12nextRareItemEv
000000710016C420=_ZNK20MoleMazeItemFloorSet19getShuffleItemCountEv
000000710016C430=_ZNK20MoleMazeItemFloorSet13isKillerFloorEv
000000710016C440=_ZN9MultiLiftC2EPKcb
000000710016C4F0=_ZN9MultiLiftC1EPKcb
000000710016C5B0=_ZN9MultiLift4initERKN2al13ActorInitInfoE
000000710016C6E0=_ZN9MultiLift14exeWaitForRideEv
000000710016C760=_ZN9MultiLift12exeRideCheckEv
000000710016C7D0=_ZN9MultiLift7exeWaitEv
000000710016C850=_ZN9MultiLift10exePreMoveEv
000000710016C8F0=_ZN9MultiLift7exeMoveEv
000000710016C9C0=_ZN9MultiLift7exeStopEv
000000710016CA20=_ZN9MultiLift17exeRideKinopioNpcEv
000000710016CA30=_ZN9MultiLift7controlEv
000000710016CB00=_ZN9MultiLift10receiveMsgEPKN2al9SensorMsgEPNS0_9HitSensorES5_
000000710016CBE0=_ZN9MultiLiftD1Ev
000000710016CBF0=_ZN9MultiLiftD0Ev
000000710016CE40=_ZN28MultiLiftStateRideKinopioNpcC2EP9MultiLift
000000710016CE80=_ZN28MultiLiftStateRideKinopioNpc4initEv
000000710016CE90=_ZN28MultiLiftStateRideKinopioNpc10receiveMsgEPKN2al9SensorMsgEPNS0_9HitSensorES5_
000000710016CF20=_ZN28MultiLiftStateRideKinopioNpc14exeWaitForRideEv
000000710016CFA0=_ZN28MultiLiftStateRideKinopioNpc12exeRideCheckEv
000000710016D010=_ZN28MultiLiftStateRideKinopioNpcD0Ev
000000710016D130=_ZN10NeedleBallC2EPKc
000000710016D2B0=_ZN10NeedleBallC1EPKc
000000710016D3D0=_ZN10NeedleBall4initERKN2al13ActorInitInfoE
000000710016D590=_ZN10NeedleBall4killEv
000000710016D5C0=_ZN10NeedleBall7controlEv
000000710016D6A0=_ZN10NeedleBall12attackSensorEPN2al9HitSensorES2_
000000710016D820=_ZN10NeedleBall23killAndAppearBreakModelEv
000000710016D8D0=_ZN10NeedleBall10receiveMsgEPKN2al9SensorMsgEPNS0_9HitSensorES5_
000000710016DAA0=_ZN10NeedleBall21receiveMsgScreenPointEPKN2al9SensorMsgEPNS0_13ScreenPointerEPNS0_17ScreenPointTargetE
000000710016DB60=_ZNK10NeedleBall26isNerveEnableSupportFreezeEv
000000710016DBC0=_ZN10NeedleBall9disappearEv
000000710016DC10=_ZThn264_N10NeedleBall9disappearEv
000000710016DC60=_ZN10NeedleBall11setBasePoseERKN4sead4QuatIfEERKNS0_7Vector3IfEE
000000710016DD10=_ZThn264_N10NeedleBall11setBasePoseERKN4sead4QuatIfEERKNS0_7Vector3IfEE
000000710016DDC0=_ZN10NeedleBall13startGenerateEv
000000710016DE20=_ZThn264_N10NeedleBall13startGenerateEv
000000710016DE90=_ZN10NeedleBall9startMoveEv
000000710016DEE0=_ZThn264_N10NeedleBall9startMoveEv
000000710016DF30=_ZN10NeedleBall10exePreFallEv
000000710016E0E0=_ZN10NeedleBall11boundGroundEv
000000710016E290=_ZN10NeedleBall10rotateBallEv
000000710016E350=_ZN10NeedleBall9boundWallEv
000000710016E480=_ZN10NeedleBall7exeFallEv
000000710016E7D0=_ZN10NeedleBall20startEffectCollisionEv
000000710016EB00=_ZN10NeedleBall10exeRollingEv
000000710016EFA0=_ZN10NeedleBall17startEffectRotateEv
000000710016F000=_ZN10NeedleBall15exeCollideMagmaEv
000000710016F0E0=_ZN10NeedleBall6exeDieEv
000000710016F140=_ZN10NeedleBall16exeSupportFreezeEv
000000710016F280=_ZN10NeedleBall11exeGenerateEv
000000710016F2F0=_ZN10NeedleBall11endGenerateEv
000000710016F320=_ZN15GabonThrowActorD1Ev
000000710016F330=_ZN15GabonThrowActorD0Ev
000000710016F340=_ZN10NeedleBallD1Ev
000000710016F350=_ZN10NeedleBallD0Ev
000000710016F380=_ZN10NeedleBall14setArchiveNameEPKc
000000710016F390=_ZN10NeedleBall13setSuffixNameEPKc
000000710016F3A0=_ZN10NeedleBall8getActorEv
000000710016F3B0=_ZThn264_N10NeedleBall14setArchiveNameEPKc
000000710016F3C0=_ZThn264_N10NeedleBall13setSuffixNameEPKc
000000710016F3D0=_ZThn264_N10NeedleBall8getActorEv
000000710016F580=_ZN9NeedleBarC2EPKc
000000710016F640=_ZN9NeedleBarC1EPKc
000000710016F710=_ZN9NeedleBar4initERKN2al13ActorInitInfoE
000000710016F800=_ZN9NeedleBar12attackSensorEPN2al9HitSensorES2_
000000710016F860=_ZN9NeedleBar10receiveMsgEPKN2al9SensorMsgEPNS0_9HitSensorES5_
000000710016FA00=_ZN9NeedleBar21receiveMsgScreenPointEPKN2al9SensorMsgEPNS0_13ScreenPointerEPNS0_17ScreenPointTargetE
000000710016FA70=_ZN9NeedleBar10setRotateYEfb
000000710016FB00=_ZN9NeedleBar7controlEv
000000710016FB60=_ZNK9NeedleBar20isNerveSupportFreezeEv
000000710016FB70=_ZNK9NeedleBar6isStopEv
000000710016FBA0=_ZN9NeedleBar19onSyncSupportFreezeEv
000000710016FBF0=_ZN9NeedleBar20offSyncSupportFreezeEv
000000710016FC40=_ZN9NeedleBar7exeWaitEv
000000710016FC80=_ZN9NeedleBar16exeSupportFreezeEv
000000710016FCE0=_ZN9NeedleBar20exeSupportFreezeSyncEv
000000710016FD20=_ZN9NeedleBarD1Ev
000000710016FD30=_ZN9NeedleBarD0Ev
000000710016FE40=_ZN16NeedleRollerFallC2EPKc
000000710016FF90=_ZN16NeedleRollerFallC1EPKc
0000007100170090=_ZN16NeedleRollerFall4killEv
00000071001700A0=_ZN16NeedleRollerFall4initERKN2al13ActorInitInfoE
00000071001701D0=_ZN16NeedleRollerFall14setArchiveNameEPKc
00000071001701E0=_ZThn264_N16NeedleRollerFall14setArchiveNameEPKc
00000071001701F0=_ZN16NeedleRollerFall11setBasePoseERKN4sead4QuatIfEERKNS0_7Vector3IfEE
0000007100170260=_ZThn264_N16NeedleRollerFall11setBasePoseERKN4sead4QuatIfEERKNS0_7Vector3IfEE
00000071001702E0=_ZN16NeedleRollerFall12setMoveAccelEf
00000071001702F0=_ZN16NeedleRollerFall7controlEv
0000007100170390=_ZNK16NeedleRollerFall14isEnableAttackEv
00000071001703E0=_ZN16NeedleRollerFall13startGenerateEv
0000007100170460=_ZThn264_N16NeedleRollerFall13startGenerateEv
00000071001704F0=_ZN16NeedleRollerFall9startMoveEv
0000007100170540=_ZThn264_N16NeedleRollerFall9startMoveEv
0000007100170590=_ZN16NeedleRollerFall5startEv
0000007100170600=_ZN16NeedleRollerFall11exeGenerateEv
0000007100170610=_ZN16NeedleRollerFall7exeWaitEv
00000071001708C0=_ZN16NeedleRollerFall16exeSupportFreezeEv
0000007100170920=_ZN16NeedleRollerFall9disappearEv
0000007100170970=_ZThn264_N16NeedleRollerFall9disappearEv
00000071001709C0=_ZN16NeedleRollerFall12attackSensorEPN2al9HitSensorES2_
0000007100170A90=_ZN16NeedleRollerFall10receiveMsgEPKN2al9SensorMsgEPNS0_9HitSensorES5_
0000007100170D60=_ZN16NeedleRollerFall21receiveMsgScreenPointEPKN2al9SensorMsgEPNS0_13ScreenPointerEPNS0_17ScreenPointTargetE
0000007100170DD0=_ZN16NeedleRollerFallD1Ev
0000007100170DE0=_ZN16NeedleRollerFallD0Ev
0000007100170E10=_ZN16NeedleRollerFall13setSuffixNameEPKc
0000007100170E20=_ZN16NeedleRollerFall8getActorEv
0000007100170E30=_ZThn264_N16NeedleRollerFall13setSuffixNameEPKc
0000007100170E40=_ZThn264_N16NeedleRollerFall8getActorEv
0000007100170E60=nullsub_102
0000007100170ED0=_ZN10NeedleTrapC2EPKc
0000007100170F60=_ZN10NeedleTrapC1EPKc
0000007100170FF0=_ZN10NeedleTrap4initERKN2al13ActorInitInfoE
0000007100171140=_ZN10NeedleTrap18initAfterPlacementEv
0000007100171150=_ZN10NeedleTrap7controlEv
00000071001711E0=_ZN10NeedleTrap7exeStopEv
0000007100171230=_ZN10NeedleTrap7exeWaitEv
00000071001712B0=_ZN10NeedleTrap7exeSignEv
0000007100171310=_ZN10NeedleTrap9exeAttackEv
00000071001713A0=_ZN10NeedleTrap6exeEndEv
0000007100171430=_ZN10NeedleTrapD1Ev
0000007100171440=_ZN10NeedleTrapD0Ev
00000071001715E0=_ZN8JointSetC2Ev
0000007100171610=_ZN11OneSideStepC2EPKc
0000007100171790=_ZN11OneSideStepC1EPKc
0000007100171920=_ZN11OneSideStep4initERKN2al13ActorInitInfoE
0000007100171DA0=_ZN11OneSideStep5startEv
0000007100171E10=_ZN11OneSideStep7controlEv
0000007100172040=_ZN11OneSideStep12calcJointPosEv
0000007100172280=_ZN11OneSideStep10receiveMsgEPKN2al9SensorMsgEPNS0_9HitSensorES5_
000000710017232C=def_7100172888
00000071001728D0=_ZN11OneSideStep10exeStandByEv
00000071001728E0=_ZN11OneSideStep7exeStopEv
0000007100172900=_ZN11OneSideStep7exeWaitEv
0000007100172970=_ZN11OneSideStep7exeMoveEv
0000007100172A30=_ZN11OneSideStep8exeBreakEv
0000007100172A80=_ZN11OneSideStep12exeBreakWaitEv
0000007100172AF0=_ZN11OneSideStep17appearAndSetStartEv
0000007100172B60=_ZN11OneSideStepD1Ev
0000007100172B70=_ZN11OneSideStepD0Ev
0000007100172BA0=nullsub_103
0000007100172D10=_ZNK2al10FunctorV0MIP11OneSideStepMS1_FvvEEclEv
0000007100172D30=_ZNK2al10FunctorV0MIP11OneSideStepMS1_FvvEE5cloneEv
0000007100172D80=_ZN20OneSideStepChameleonC2EPKc
0000007100172E00=_ZN20OneSideStepChameleonC1EPKc
0000007100172E90=_ZN20OneSideStepChameleon4initERKN2al13ActorInitInfoE
0000007100173080=_ZN20OneSideStepChameleon7controlEv
0000007100173300=_ZN20OneSideStepChameleon10receiveMsgEPKN2al9SensorMsgEPNS0_9HitSensorES5_
0000007100173420=_ZN20OneSideStepChameleon21receiveMsgScreenPointEPKN2al9SensorMsgEPNS0_13ScreenPointerEPNS0_17ScreenPointTargetE
0000007100173480=_ZN20OneSideStepChameleon7exeWaitEv
00000071001734F0=_ZN20OneSideStepChameleon9exeAppearEv
00000071001735A0=_ZN20OneSideStepChameleon11exeReactionEv
00000071001735B0=_ZN20OneSideStepChameleon8exeTouchEv
0000007100173630=_ZN20OneSideStepChameleon14exeMicReactionEv
0000007100173640=_ZN20OneSideStepChameleon15appearChameleonEv
00000071001736A0=_ZN20OneSideStepChameleonD1Ev
00000071001736B0=_ZN20OneSideStepChameleonD0Ev
00000071001738C0=_ZN18OnPlayerInfoHolderC2Ei
0000007100173940=_ZN18OnPlayerInfoHolder15getOnPlayerInfoEPN2al9HitSensorE
00000071001739B0=_ZNK12OnPlayerInfo7isValidEv
00000071001739C0=_ZN18OnPlayerInfoHolder6updateEv
0000007100173A80=_ZN12OnPlayerInfo6updateEv
0000007100173AB0=_ZNK18OnPlayerInfoHolder20calcTotalOnPlayerDirEv
0000007100173B00=_ZNK18OnPlayerInfoHolder24calcTotalPrevOnPlayerDirEv
0000007100173B50=_ZNK18OnPlayerInfoHolder15isChangeOnStateEv
0000007100173B60=_ZNK18OnPlayerInfoHolder13isOnStateNoneEv
0000007100173B70=_ZNK18OnPlayerInfoHolder13isOnStatePlusEv
0000007100173B80=_ZNK18OnPlayerInfoHolder14isOnStateMinusEv
0000007100173B90=_ZNK18OnPlayerInfoHolder13isOnStateBothEv
0000007100173BA0=_ZN12OnPlayerInfoC2Ev
0000007100173BB0=_ZN14PanelNotePaintC2EPKc
0000007100173C50=_ZN14PanelNotePaintC1EPKc
0000007100173D00=_ZN14PanelNotePaint4initERKN2al13ActorInitInfoE
0000007100173DF0=_ZN14PanelNotePaint18initAfterPlacementEv
0000007100173E10=_ZN14PanelNotePaint17makeActorAppearedEv
0000007100173E60=_ZN14PanelNotePaint7controlEv
0000007100173EC0=_ZN14PanelNotePaint12attackSensorEPN2al9HitSensorES2_
0000007100173F00=_ZN14PanelNotePaint10receiveMsgEPKN2al9SensorMsgEPNS0_9HitSensorES5_
00000071001743A0=_ZN14PanelNotePaint18tryContinuePushingEv
0000007100174420=_ZNK14PanelNotePaint12isEnablePushEv
0000007100174470=_ZN14PanelNotePaint13pushFirstTimeEPN2al9HitSensorEbb
0000007100174530=_ZN14PanelNotePaint21receiveMsgScreenPointEPKN2al9SensorMsgEPNS0_13ScreenPointerEPNS0_17ScreenPointTargetE
0000007100174600=_ZN14PanelNotePaint24pushFirstTimeScreenPointEPN2al13ScreenPointerEbb
00000071001746E0=_ZNK14PanelNotePaint4isOnEv
00000071001746F0=_ZN14PanelNotePaint14getScoreSensorEv
0000007100174700=_ZN14PanelNotePaint17setCompleteEffectEv
0000007100174710=_ZN14PanelNotePaint23requestSwitchClippingOnEv
0000007100174760=_ZN14PanelNotePaint24requestSwitchClippingOffEv
0000007100174780=_ZN14PanelNotePaint10exeOffWaitEv
00000071001747E0=_ZN14PanelNotePaint11exeReactionEv
00000071001748B0=_ZN14PanelNotePaint15exeOnWaitBeforeEv
00000071001748C0=_ZN14PanelNotePaint16setNerveToOnWaitEv
0000007100174940=_ZN14PanelNotePaint9exeOnWaitEv
0000007100174980=_ZN14PanelNotePaint24exeOnWaitAfterHipDroppedEv
00000071001749C0=_ZN14PanelNotePaint17exeReactionReturnEv
0000007100174A00=_ZN14PanelNotePaint13exeHipDroppedEv
0000007100174B70=_ZN14PanelNotePaint31setNerveToOnWaitAfterHipDroppedEv
0000007100174BF0=_ZN14PanelNotePaint20exeInvincibleTouchedEv
0000007100174C90=_ZN14PanelNotePaint16settingForOnWaitEv
0000007100174D00=_ZN14PanelNotePaint27settingForInvincibleTouchedEv
0000007100174D50=_ZN14PanelNotePaint27setNerveToInvincibleTouchedEv
0000007100174DB0=_ZN14PanelNotePaintD1Ev
0000007100174DC0=_ZN14PanelNotePaintD0Ev
0000007100174FF0=_ZN19PanelNotePaintGroupC2EPKc
00000071001753D0=_ZN19PanelNotePaintGroupC1EPKc
00000071001757B0=_ZN19PanelNotePaintGroup4initERKN2al13ActorInitInfoE
00000071001759C0=_ZN19PanelNotePaintGroup17makeActorAppearedEv
0000007100175A10=_ZN19PanelNotePaintGroup13makeActorDeadEv
0000007100175A60=_ZN19PanelNotePaintGroup7controlEv
0000007100175BC8=def_7100175BAC
0000007100175C30=_ZN19PanelNotePaintGroup7exeWaitEv
0000007100175EE0=_ZN19PanelNotePaintGroup11updatePitchEv
0000007100175F40=_ZN19PanelNotePaintGroup11exeCompleteEv
0000007100176200=_ZN19PanelNotePaintGroup6exeEndEv
0000007100176210=_ZN19PanelNotePaintGroup11findPosInfoEi
0000007100176430=_ZN19PanelNotePaintGroup10setPosInfoEiPN4sead7Vector3IfEE
00000071001766D0=_ZN19PanelNotePaintGroupD1Ev
00000071001766E0=_ZN19PanelNotePaintGroupD0Ev
0000007100176720=nullsub_104
0000007100176740=_ZN10PatanPanelC2EPKc
0000007100176850=_ZN10PatanPanelC1EPKc
0000007100176970=_ZN10PatanPanel4initERKN2al13ActorInitInfoE
0000007100176DA0=_ZN10PatanPanel8forceEndEv
0000007100176E10=_ZN10PatanPanel5startEv
0000007100176E80=_ZN10PatanPanel10updatePoseEfRKN4sead7Vector3IfEES4_
00000071001770A0=_ZN10PatanPanel7setTimeEii
00000071001770B0=_ZN10PatanPanel10exeStandByEv
00000071001770C0=_ZN10PatanPanel7exeOpenEv
0000007100177180=_ZN10PatanPanel12exeStartNextEv
0000007100177210=_ZN10PatanPanel5startERKN4sead7Vector3IfEE
00000071001773F0=_ZN10PatanPanel7exeWaitEv
0000007100177460=_ZN10PatanPanel10startCloseEv
0000007100177750=_ZN10PatanPanel8exeCloseEv
0000007100177870=_ZN10PatanPanel11noticeCloseEv
0000007100177890=_ZNK10PatanPanel20calcOpenRotateOriginEPN4sead7Vector3IfEE
00000071001779B0=_ZN10PatanPanelD1Ev
00000071001779C0=_ZN10PatanPanelD0Ev
0000007100177AA0=_ZNK2al10FunctorV0MIP10PatanPanelMS1_FvvEEclEv
0000007100177AC0=_ZNK2al10FunctorV0MIP10PatanPanelMS1_FvvEE5cloneEv
0000007100177B10=_ZN17PatanPanelStarterC2EPKc
0000007100177B90=_ZN17PatanPanelStarterC1EPKc
0000007100177C10=_ZN17PatanPanelStarter4initERKN2al13ActorInitInfoE
0000007100177CB0=_ZN17PatanPanelStarter5closeEv
0000007100177D00=_ZN17PatanPanelStarter10receiveMsgEPKN2al9SensorMsgEPNS0_9HitSensorES5_
0000007100177D90=_ZN17PatanPanelStarter7controlEv
0000007100177DB0=_ZN17PatanPanelStarter10exeOffWaitEv
0000007100177E00=_ZN17PatanPanelStarter7exeToOnEv
0000007100177E90=_ZN17PatanPanelStarter9exeOnWaitEv
0000007100177EE0=_ZN17PatanPanelStarter8exeToOffEv
0000007100177F60=_ZN17PatanPanelStarterD1Ev
0000007100177F70=_ZN17PatanPanelStarterD0Ev
00000071001780D0=_ZNK2al10FunctorV0MIP17PatanPanelStarterMS1_FvvEEclEv
00000071001780F0=_ZNK2al10FunctorV0MIP17PatanPanelStarterMS1_FvvEE5cloneEv
0000007100178140=_ZN11PickaxeItemC2EPKcP10ItemBubble
00000071001781E0=_ZN11PickaxeItemC1EPKcP10ItemBubble
0000007100178280=_ZN11PickaxeItem4initERKN2al13ActorInitInfoE
00000071001783B0=_ZN11PickaxeItem18initAfterPlacementEv
00000071001783F0=_ZN11PickaxeItem6appearEv
0000007100178440=_ZN11PickaxeItem7controlEv
00000071001784A0=_ZN11PickaxeItem10receiveMsgEPKN2al9SensorMsgEPNS0_9HitSensorES5_
0000007100178710=_ZNK11PickaxeItem18isEnableMsgItemGetEPKN2al9SensorMsgE
0000007100178730=_ZN11PickaxeItem21receiveMsgScreenPointEPKN2al9SensorMsgEPNS0_13ScreenPointerEPNS0_17ScreenPointTargetE
0000007100178770=_ZN11PickaxeItem16appearPopUpFrontEv
00000071001787C0=_ZN11PickaxeItem16appearPopUpAboveEv
0000007100178850=_ZN11PickaxeItem34appearPopUpAboveConnectToCollisionEv
00000071001788C0=_ZN11PickaxeItem32appearPopUpOutConnectToCollisionEv
00000071001788F0=_ZN11PickaxeItem7exeWaitEv
0000007100178940=_ZN11PickaxeItem15exeAttachBubbleEv
00000071001789A0=_ZN11PickaxeItem13exePopUpFrontEv
0000007100178A10=_ZN11PickaxeItem13exePopUpAboveEv
0000007100178AE0=_ZN11PickaxeItem10exeRunawayEv
0000007100178BF0=_ZN11PickaxeItemD1Ev
0000007100178C00=_ZN11PickaxeItemD0Ev
0000007100178D90=_ZN17PlayerBindAnimObjC2ERKN4sead14SafeStringBaseIcEE
0000007100178E40=_ZN17PlayerBindAnimObjC1ERKN4sead14SafeStringBaseIcEE
0000007100178EF0=_ZN17PlayerBindAnimObj4initERKN2al13ActorInitInfoE
00000071001790E0=_ZN17PlayerBindAnimObj14appearBySwitchEv
0000007100179110=_ZN17PlayerBindAnimObj4killEv
0000007100179120=_ZN17PlayerBindAnimObj7controlEv
0000007100179130=_ZN17PlayerBindAnimObj10waitForEndEv
0000007100179180=_ZN17PlayerBindAnimObj7exeWaitEv
0000007100179230=_ZN17PlayerBindAnimObj13exeWaitForEndEv
0000007100179330=_ZN17PlayerBindAnimObj12attackSensorEPN2al9HitSensorES2_
0000007100179340=_ZN17PlayerBindAnimObj10receiveMsgEPKN2al9SensorMsgEPNS0_9HitSensorES5_
00000071001794E0=_ZN17PlayerBindAnimObjD1Ev
00000071001794F0=_ZN17PlayerBindAnimObjD0Ev
00000071001795E0=_ZNK2al10FunctorV0MIP17PlayerBindAnimObjMS1_FvvEEclEv
0000007100179600=_ZNK2al10FunctorV0MIP17PlayerBindAnimObjMS1_FvvEE5cloneEv
0000007100179650=_ZN23PlayerBindAnimPuppeteerC1EPKcP17PlayerBindAnimObji
00000071001796B0=_ZN23PlayerBindAnimPuppeteer6isWaitEv
0000007100179700=_ZN23PlayerBindAnimPuppeteer6isPlayEv
0000007100179710=_ZN23PlayerBindAnimPuppeteer5startEPN2al9HitSensorE
0000007100179730=_ZN23PlayerBindAnimPuppeteer7exeWaitEv
0000007100179800=_ZN23PlayerBindAnimPuppeteer4killEv
0000007100179850=_ZN23PlayerBindAnimPuppeteer7exePlayEv
0000007100179910=_ZN23PlayerBindAnimPuppeteer7exeDeadEv
0000007100179920=_ZN28PlayerBindAnimPuppeteerGroupC2EP17PlayerBindAnimObj
00000071001799F0=_ZN28PlayerBindAnimPuppeteerGroup10genMessageEPN4sead6hostio7ContextE
0000007100179A00=_ZN23PlayerBindAnimPuppeteerD0Ev
0000007100179A50=nullsub_105
0000007100179A60=_ZN11PlayerCrownC2ERKN2al13ActorInitInfoEPKc
0000007100179C50=_ZN11PlayerCrownC1ERKN2al13ActorInitInfoEPKc
0000007100179E40=_ZN11PlayerCrown10receiveMsgEPKN2al9SensorMsgEPNS0_9HitSensorES5_
000000710017A000=_ZN11PlayerCrown9shiftFallEj
000000710017A020=_ZNK11PlayerCrown15isNerveGettableEv
000000710017A0C0=_ZN11PlayerCrown10changeHostEP11PlayerActor
000000710017A0D0=_ZN11PlayerCrown6appearEv
000000710017A180=_ZNK11PlayerCrown15getPlayerSensorEv
000000710017A190=_ZN11PlayerCrown4killEv
000000710017A1C0=_ZN11PlayerCrown9exeAttachEv
000000710017A4C0=_ZNK11PlayerCrown23checkModelHideConditionEv
000000710017A560=_ZN11PlayerCrown4hideEv
000000710017A590=_ZN11PlayerCrown4showEv
000000710017A5C0=_ZN11PlayerCrown13calcFollowMtxEv
000000710017A820=_ZN11PlayerCrown7exeFallEv
000000710017ADC0=_ZN11PlayerCrown11startActionEPKc
000000710017AE10=_ZN11PlayerCrown21calcQuatFromFollowMtxEv
000000710017B040=_ZNK11PlayerCrown14getFallGravityEv
000000710017B060=_ZNK11PlayerCrown15getFallSpeedMaxEv
000000710017B080=_ZN11PlayerCrown7exeLandEv
000000710017B1A0=_ZN11PlayerCrown7exeWaitEv
000000710017B250=_ZN11PlayerCrown11exeSinkSandEv
000000710017B2D0=_ZNK11PlayerCrown8isAttachEv
000000710017B2E0=_ZN11PlayerCrown7controlEv
000000710017B470=_ZNK11PlayerCrown15isModelHideAnimEv
000000710017B4F0=_ZN11PlayerCrownD1Ev
000000710017B500=_ZN11PlayerCrownD0Ev
000000710017B530=_ZN11PlayerCrown12attackSensorEPN2al9HitSensorES2_
000000710017B600=_ZN17PlayerForceBubbleC2EPKc
000000710017B6A0=_ZN17PlayerForceBubbleC1EPKc
000000710017B750=_ZN17PlayerForceBubble4initERKN2al13ActorInitInfoE
000000710017B8F0=_ZN17PlayerForceBubble17disappearBySwitchEv
000000710017B900=_ZN17PlayerForceBubble14appearBySwitchEv
000000710017B910=_ZN17PlayerForceBubble7controlEv
000000710017BB00=_ZN17PlayerForceBubble8calcAnimEv
000000710017BB10=_ZN17PlayerForceBubble4killEv
000000710017BB20=_ZN17PlayerForceBubbleD1Ev
000000710017BB30=_ZN17PlayerForceBubbleD0Ev
000000710017BB60=_ZNK2al10FunctorV0MIP17PlayerForceBubbleMS1_FvvEEclEv
000000710017BB80=_ZNK2al10FunctorV0MIP17PlayerForceBubbleMS1_FvvEE5cloneEv
000000710017BBD0=_ZN19PlayerRestartSetterC2EPKc
000000710017BC50=_ZN19PlayerRestartSetterC1EPKc
000000710017BCD0=_ZN19PlayerRestartSetter4initERKN2al13ActorInitInfoE
000000710017BDC0=_ZN19PlayerRestartSetter11exeDeactiveEv
000000710017BE10=_ZN19PlayerRestartSetter9exeActiveEv
000000710017BE50=_ZN19PlayerRestartSetterD1Ev
000000710017BE60=_ZN19PlayerRestartSetterD0Ev
000000710017BF20=_ZN6PosterC2EPKc
000000710017BFA0=_ZN6PosterC1EPKc
000000710017C030=_ZN6Poster4initERKN2al13ActorInitInfoE
000000710017C110=_ZN6Poster18initAfterPlacementEv
000000710017C1F0=_ZN6Poster21receiveMsgScreenPointEPKN2al9SensorMsgEPNS0_13ScreenPointerEPNS0_17ScreenPointTargetE
000000710017C270=_ZN6Poster7controlEv
000000710017C2B0=_ZN6Poster7exeWaitEv
000000710017C310=_ZN6Poster8exeTouchEv
000000710017C420=_ZN6PosterD1Ev
000000710017C430=_ZN6PosterD0Ev
000000710017C4D0=_ZN10PosterFallC2EPKcPK6Poster
000000710017C560=_ZN10PosterFallC1EPKcPK6Poster
000000710017C5F0=_ZN10PosterFall4initERKN2al13ActorInitInfoE
000000710017C680=_ZN10PosterFall18initAfterPlacementEv
000000710017C6C0=_ZN10PosterFall7exeFallEv
000000710017C730=_ZN10PosterFallD1Ev
000000710017C740=_ZN10PosterFallD0Ev
000000710017C7F0=_ZN2al17registerBlockRailEPNS_9BlockRailE
000000710017C840=_ZN2al16tryRideBlockRailEPKNS_9LiveActorEPNS_14BlockRailRiderERKN4sead7Vector3IfEES9_
000000710017C8C0=_ZN19ProjectMtxConnectorC2Eb
000000710017C930=_ZN19ProjectMtxConnectorC1ERKN4sead4QuatIfEERKNS0_7Vector3IfEEb
000000710017C990=_ZN19ProjectMtxConnector4initEPKN4sead8Matrix34IfEERS3_
000000710017C9C0=_ZN19ProjectMtxConnector4initEPKN4sead8Matrix34IfEE
000000710017CA10=_ZN19ProjectMtxConnector18initExistCollisionEPKN2al9LiveActorE
000000710017CA80=_ZN19ProjectMtxConnector5clearEv
000000710017CAB0=_ZNK19ProjectMtxConnector7multVecEPN4sead7Vector3IfEERKS2_
000000710017CC20=_ZNK19ProjectMtxConnector7calcMtxEPN4sead8Matrix34IfEE
000000710017CCE0=_ZNK19ProjectMtxConnector9multTransEPN4sead7Vector3IfEERKS2_
000000710017CE50=_ZNK19ProjectMtxConnector7multMtxEPN4sead8Matrix34IfEERKS2_
000000710017D010=_ZNK19ProjectMtxConnector6multQTEPN4sead4QuatIfEEPNS0_7Vector3IfEE
000000710017D020=_ZNK19ProjectMtxConnector6multQTEPN4sead4QuatIfEEPNS0_7Vector3IfEERKS2_RKS5_
